
C:/Users/Jashwanth/Desktop/academics/BTP/mouse_edit/media_HAL.elf:     file format elf32-littlenios2
C:/Users/Jashwanth/Desktop/academics/BTP/mouse_edit/media_HAL.elf
architecture: nios2, flags 0x00000112:
EXEC_P, HAS_SYMS, D_PAGED
start address 0x00000168

Program Header:
    LOAD off    0x00001000 vaddr 0x00000000 paddr 0x00000000 align 2**12
         filesz 0x00000020 memsz 0x00000020 flags r-x
    LOAD off    0x00001020 vaddr 0x00000020 paddr 0x00000020 align 2**12
         filesz 0x000053dc memsz 0x000053dc flags r-x
    LOAD off    0x000063fc vaddr 0x000053fc paddr 0x000070d8 align 2**12
         filesz 0x00001cdc memsz 0x00001cdc flags rw-
    LOAD off    0x00008db4 vaddr 0x00008db4 paddr 0x00008db4 align 2**12
         filesz 0x00000000 memsz 0x00000150 flags rw-

Sections:
Idx Name          Size      VMA       LMA       File off  Algn
  0 .entry        00000020  00000000  00000000  00001000  2**5
                  CONTENTS, ALLOC, LOAD, READONLY, CODE
  1 .exceptions   00000148  00000020  00000020  00001020  2**2
                  CONTENTS, ALLOC, LOAD, READONLY, CODE
  2 .text         0000506c  00000168  00000168  00001168  2**2
                  CONTENTS, ALLOC, LOAD, READONLY, CODE
  3 .rodata       00000228  000051d4  000051d4  000061d4  2**2
                  CONTENTS, ALLOC, LOAD, READONLY, DATA
  4 .rwdata       00001cdc  000053fc  000070d8  000063fc  2**2
                  CONTENTS, ALLOC, LOAD, DATA, SMALL_DATA
  5 .bss          00000150  00008db4  00008db4  00008db4  2**2
                  ALLOC, SMALL_DATA
  6 .comment      00000026  00000000  00000000  000080d8  2**0
                  CONTENTS, READONLY
  7 .debug_aranges 000008f8  00000000  00000000  00008100  2**3
                  CONTENTS, READONLY, DEBUGGING
  8 .debug_pubnames 00001297  00000000  00000000  000089f8  2**0
                  CONTENTS, READONLY, DEBUGGING
  9 .debug_info   000181f8  00000000  00000000  00009c8f  2**0
                  CONTENTS, READONLY, DEBUGGING
 10 .debug_abbrev 00005714  00000000  00000000  00021e87  2**0
                  CONTENTS, READONLY, DEBUGGING
 11 .debug_line   0000d151  00000000  00000000  0002759b  2**0
                  CONTENTS, READONLY, DEBUGGING
 12 .debug_frame  00001118  00000000  00000000  000346ec  2**2
                  CONTENTS, READONLY, DEBUGGING
 13 .debug_str    00002885  00000000  00000000  00035804  2**0
                  CONTENTS, READONLY, DEBUGGING
 14 .debug_loc    00005341  00000000  00000000  00038089  2**0
                  CONTENTS, READONLY, DEBUGGING
 15 .debug_alt_sim_info 00000020  00000000  00000000  0003d3cc  2**2
                  CONTENTS, READONLY, DEBUGGING
 16 .debug_ranges 000002b0  00000000  00000000  0003d3f0  2**3
                  CONTENTS, READONLY, DEBUGGING
 17 .thread_model 00000003  00000000  00000000  000402a4  2**0
                  CONTENTS, READONLY
 18 .cpu          00000003  00000000  00000000  000402a7  2**0
                  CONTENTS, READONLY
 19 .qsys         00000001  00000000  00000000  000402aa  2**0
                  CONTENTS, READONLY
 20 .simulation_enabled 00000001  00000000  00000000  000402ab  2**0
                  CONTENTS, READONLY
 21 .sysid_hash   00000004  00000000  00000000  000402ac  2**0
                  CONTENTS, READONLY
 22 .sysid_base   00000004  00000000  00000000  000402b0  2**0
                  CONTENTS, READONLY
 23 .sysid_time   00000004  00000000  00000000  000402b4  2**0
                  CONTENTS, READONLY
 24 .stderr_dev   00000009  00000000  00000000  000402b8  2**0
                  CONTENTS, READONLY
 25 .stdin_dev    00000009  00000000  00000000  000402c1  2**0
                  CONTENTS, READONLY
 26 .stdout_dev   00000009  00000000  00000000  000402ca  2**0
                  CONTENTS, READONLY
 27 .sopc_system_name 0000000b  00000000  00000000  000402d3  2**0
                  CONTENTS, READONLY
 28 .jdi          00004d54  00000000  00000000  000402de  2**0
                  CONTENTS, READONLY
 29 .sopcinfo     000abe93  00000000  00000000  00045032  2**0
                  CONTENTS, READONLY
SYMBOL TABLE:
00000000 l    d  .entry	00000000 .entry
00000020 l    d  .exceptions	00000000 .exceptions
00000168 l    d  .text	00000000 .text
000051d4 l    d  .rodata	00000000 .rodata
000053fc l    d  .rwdata	00000000 .rwdata
00008db4 l    d  .bss	00000000 .bss
00000000 l    d  .comment	00000000 .comment
00000000 l    d  .debug_aranges	00000000 .debug_aranges
00000000 l    d  .debug_pubnames	00000000 .debug_pubnames
00000000 l    d  .debug_info	00000000 .debug_info
00000000 l    d  .debug_abbrev	00000000 .debug_abbrev
00000000 l    d  .debug_line	00000000 .debug_line
00000000 l    d  .debug_frame	00000000 .debug_frame
00000000 l    d  .debug_str	00000000 .debug_str
00000000 l    d  .debug_loc	00000000 .debug_loc
00000000 l    d  .debug_alt_sim_info	00000000 .debug_alt_sim_info
00000000 l    d  .debug_ranges	00000000 .debug_ranges
000001a0 l       .text	00000000 alt_after_alt_main
00000000 l    df *ABS*	00000000 alt_irq_handler.c
00000000 l    df *ABS*	00000000 media_HAL.c
000052f5 l     O .rodata	00000010 C.4.1853
00000000 l    df *ABS*	00000000 memcpy.c
00000000 l    df *ABS*	00000000 alt_load.c
00000000 l    df *ABS*	00000000 alt_main.c
00000000 l    df *ABS*	00000000 alt_printf.c
00000000 l    df *ABS*	00000000 alt_putchar.c
00000000 l    df *ABS*	00000000 alt_sys_init.c
000053fc l     O .rwdata	00001060 JTAG_UART
0000645c l     O .rwdata	00000030 AV_Config
0000648c l     O .rwdata	00000030 Audio
000064bc l     O .rwdata	0000002c Expansion_JP1
000064e8 l     O .rwdata	0000002c Expansion_JP2
00006514 l     O .rwdata	0000002c Green_LEDs
00006540 l     O .rwdata	0000002c HEX3_HEX0
0000656c l     O .rwdata	0000002c Pushbuttons
00006598 l     O .rwdata	0000002c Red_LEDs
000065c4 l     O .rwdata	0000002c Slider_Switches
000065f0 l     O .rwdata	00000038 PS2_Port
00006628 l     O .rwdata	0000002c Serial_Port
00006654 l     O .rwdata	00000048 VGA_Char_Buffer
0000669c l     O .rwdata	00000054 VGA_Pixel_Buffer
00000000 l    df *ABS*	00000000 altera_avalon_jtag_uart_fd.c
00000000 l    df *ABS*	00000000 altera_avalon_jtag_uart_init.c
00000ce4 l     F .text	00000054 altera_avalon_jtag_uart_timeout
00000db0 l     F .text	00000134 altera_avalon_jtag_uart_irq
00000000 l    df *ABS*	00000000 altera_avalon_jtag_uart_ioctl.c
00000000 l    df *ABS*	00000000 altera_avalon_jtag_uart_read.c
00000000 l    df *ABS*	00000000 altera_avalon_jtag_uart_write.c
00000000 l    df *ABS*	00000000 altera_avalon_timer_sc.c
00001280 l     F .text	0000003c alt_avalon_timer_sc_irq
00000000 l    df *ABS*	00000000 altera_up_avalon_parallel_port.c
00000000 l    df *ABS*	00000000 altera_up_avalon_ps2.c
00000000 l    df *ABS*	00000000 altera_up_avalon_rs232.c
00000000 l    df *ABS*	00000000 altera_up_avalon_video_character_buffer_with_dma.c
00000000 l    df *ABS*	00000000 altera_up_avalon_video_pixel_buffer_dma.c
00000000 l    df *ABS*	00000000 alt_alarm_start.c
00000000 l    df *ABS*	00000000 alt_close.c
00000000 l    df *ABS*	00000000 alt_dcache_flush_all.c
00000000 l    df *ABS*	00000000 alt_dev.c
00002574 l     F .text	00000008 alt_dev_null_write
00000000 l    df *ABS*	00000000 alt_dev_llist_insert.c
00000000 l    df *ABS*	00000000 alt_errno.c
00000000 l    df *ABS*	00000000 alt_find_dev.c
00000000 l    df *ABS*	00000000 alt_icache_flush_all.c
00000000 l    df *ABS*	00000000 alt_io_redirect.c
0000267c l     F .text	00000064 alt_open_fd
00000000 l    df *ABS*	00000000 alt_irq_register.c
00000000 l    df *ABS*	00000000 alt_irq_vars.c
00000000 l    df *ABS*	00000000 alt_open.c
00000000 l    df *ABS*	00000000 alt_release_fd.c
00000000 l    df *ABS*	00000000 alt_tick.c
00000000 l    df *ABS*	00000000 altera_nios2_qsys_irq.c
00000000 l    df *ABS*	00000000 alt_find_file.c
00000000 l    df *ABS*	00000000 alt_get_fd.c
00000000 l    df *ABS*	00000000 alt_icache_flush.c
00000000 l    df *ABS*	00000000 exit.c
00000000 l    df *ABS*	00000000 impure.c
00006898 l     O .rwdata	00000400 impure_data
00000000 l    df *ABS*	00000000 int_errno.c
00000000 l    df *ABS*	00000000 memcmp.c
00000000 l    df *ABS*	00000000 putc.c
00000000 l    df *ABS*	00000000 strcmp.c
00000000 l    df *ABS*	00000000 strlen.c
00000000 l    df *ABS*	00000000 wbuf.c
00000000 l    df *ABS*	00000000 wsetup.c
00000000 l    df *ABS*	00000000 __call_atexit.c
00003270 l     F .text	00000004 register_fini
00000000 l    df *ABS*	00000000 fflush.c
00000000 l    df *ABS*	00000000 findfp.c
00003654 l     F .text	00000058 std
00003760 l     F .text	00000008 __fp_lock
00003768 l     F .text	00000008 __fp_unlock
00000000 l    df *ABS*	00000000 mallocr.c
00000000 l    df *ABS*	00000000 fwalk.c
00000000 l    df *ABS*	00000000 makebuf.c
00000000 l    df *ABS*	00000000 mallocr.c
00000000 l    df *ABS*	00000000 memset.c
00000000 l    df *ABS*	00000000 sbrkr.c
00000000 l    df *ABS*	00000000 stdio.c
00000000 l    df *ABS*	00000000 writer.c
00000000 l    df *ABS*	00000000 closer.c
00000000 l    df *ABS*	00000000 fclose.c
00000000 l    df *ABS*	00000000 fstatr.c
00000000 l    df *ABS*	00000000 isattyr.c
00000000 l    df *ABS*	00000000 lseekr.c
00000000 l    df *ABS*	00000000 readr.c
00000000 l    df *ABS*	00000000 alt_exit.c
00000000 l    df *ABS*	00000000 alt_fstat.c
00000000 l    df *ABS*	00000000 alt_isatty.c
00000000 l    df *ABS*	00000000 alt_lseek.c
00000000 l    df *ABS*	00000000 alt_malloc_lock.c
00000000 l    df *ABS*	00000000 alt_read.c
00000000 l    df *ABS*	00000000 alt_sbrk.c
000070d4 l     O .rwdata	00000004 heap_end
00000000 l    df *ABS*	00000000 alt_write.c
00004c7c g     F .text	00000070 _isatty_r
00000720 g     F .text	00000050 alt_main
00001bf8 g     F .text	00000194 alt_up_pixel_buffer_dma_draw_vline
00008e04 g     O .bss	00000100 alt_irq
00001630 g     F .text	0000001c alt_up_ps2_disable_read_interrupt
00004cec g     F .text	00000078 _lseek_r
000070d8 g       *ABS*	00000000 __flash_rwdata_start
00008f04 g       *ABS*	00000000 __alt_heap_start
000048b8 g     F .text	00000068 __sseek
000036bc g     F .text	000000a4 __sinit
00002fe8 g     F .text	00000130 __swbuf_r
00001838 g     F .text	00000088 alt_up_char_buffer_string
000012f0 g     F .text	0000000c read_CE_bit
000037bc g     F .text	00000068 __sfmoreglue
00004f90 g     F .text	00000004 __malloc_unlock
000013c0 g     F .text	00000080 alt_up_ps2_read_data_byte_timeout
000016dc g     F .text	00000080 alt_up_rs232_read_fd
000018c0 g     F .text	00000058 alt_up_char_buffer_draw
000037ac g     F .text	00000010 _cleanup
000022ec g     F .text	000000bc alt_up_pixel_buffer_dma_draw
00000000  w      *UND*	00000000 __errno
000023e0 g     F .text	00000020 alt_up_pixel_buffer_dma_open_dev
00000000 g     F .entry	0000001c __reset
00000020 g       *ABS*	00000000 __flash_exceptions_start
00004c08 g     F .text	00000074 _fstat_r
00008dcc g     O .bss	00000004 errno
00008db8 g     O .bss	00000004 alt_argv
0000f0a0 g       *ABS*	00000000 _gp
000023b8 g     F .text	00000028 alt_up_pixel_buffer_dma_change_back_buffer_address
00006718 g     O .rwdata	00000180 alt_fd_list
000025ec g     F .text	00000070 alt_find_dev
000005bc g     F .text	000000a0 memcpy
00001918 g     F .text	00000028 alt_up_char_buffer_clear
000037a0 g     F .text	0000000c _cleanup_r
000026e0 g     F .text	00000098 alt_io_redirect
00001690 g     F .text	0000004c alt_up_rs232_read_data
000023a8 g     F .text	00000010 alt_up_pixel_buffer_dma_check_swap_buffers_status
00000f58 g     F .text	00000168 altera_avalon_jtag_uart_read
00004e70 g     F .text	00000084 isatty
000001a4 g     F .text	00000068 VGA_line
00001d8c g     F .text	00000174 alt_up_pixel_buffer_dma_draw_hline
00002be4 g     F .text	0000003c alt_icache_flush
00008dd0 g     O .bss	00000004 __malloc_top_pad
00004840 g     F .text	00000070 _sbrk_r
000019b0 g     F .text	0000005c helper_plot_pixel
00004d64 g     F .text	00000078 _read_r
000070b0 g     O .rwdata	00000004 alt_max_fd
00001664 g     F .text	0000000c alt_up_rs232_check_parity
00004ae4 g     F .text	00000110 _fclose_r
000012fc g     F .text	00000008 read_num_bytes_available
00003620 g     F .text	00000034 fflush
00008dd4 g     O .bss	00000004 __malloc_max_sbrked_mem
00002778 g     F .text	000000bc alt_irq_register
000012dc g     F .text	0000000c read_RI_bit
00002214 g     F .text	000000b4 alt_up_pixel_buffer_dma_clear_screen
00004ef4 g     F .text	00000098 lseek
000070c8 g     O .rwdata	00000004 _global_impure_ptr
00008f04 g       *ABS*	00000000 __bss_end
00001fd0 g     F .text	00000244 alt_up_pixel_buffer_dma_draw_box
00002a08 g     F .text	000000ac alt_tick
00001310 g     F .text	00000008 read_data_byte
00003788 g     F .text	00000018 __fp_lock_all
000029d4 g     F .text	00000034 alt_alarm_stop
000012e8 g     F .text	00000008 read_RE_bit
00008dc0 g     O .bss	00000004 alt_irq_active
000000ec g     F .exceptions	0000007c alt_irq_handler
000066f0 g     O .rwdata	00000028 alt_dev_null
000012bc g     F .text	00000020 alt_up_parallel_port_open_dev
000014c4 g     F .text	00000040 alt_up_ps2_write_data_byte
00002570 g     F .text	00000004 alt_dcache_flush_all
00001f00 g     F .text	000000d0 alt_up_pixel_buffer_dma_draw_rectangle
000070d8 g       *ABS*	00000000 __ram_rwdata_end
000070a8 g     O .rwdata	00000008 alt_dev_list
000050dc g     F .text	000000f4 write
00002dd0 g     F .text	000000e8 _putc_r
00001a0c g     F .text	000001ec alt_up_pixel_buffer_dma_draw_line
000053fc g       *ABS*	00000000 __ram_rodata_end
00004df0 g     F .text	00000080 fstat
00001784 g     F .text	00000070 alt_up_rs232_write_fd
00000000 g       *ABS*	00000000 __alt_mem_SDRAM
00008f04 g       *ABS*	00000000 end
00001504 g     F .text	00000070 alt_up_ps2_write_fd
00001960 g     F .text	00000050 alt_up_char_buffer_init
00000d38 g     F .text	00000078 altera_avalon_jtag_uart_init
00800000 g       *ABS*	00000000 __alt_stack_pointer
00000258 g     F .text	000000c0 HEX_PS2
0000123c g     F .text	00000044 alt_avalon_timer_sc_init
000010c0 g     F .text	0000017c altera_avalon_jtag_uart_write
000036ac g     F .text	00000004 __sfp_lock_acquire
00003a40 g     F .text	00000314 _free_r
00000770 g     F .text	000001dc alt_printf
00003274 g     F .text	000001b0 __call_exitprocs
000070d0 g     O .rwdata	00000004 __malloc_sbrk_base
00000168 g     F .text	0000003c _start
00008dc4 g     O .bss	00000004 _alt_tick_rate
00008dc8 g     O .bss	00000004 _alt_nticks
00004f94 g     F .text	000000f8 read
00000994 g     F .text	00000280 alt_sys_init
00001338 g     F .text	00000030 alt_up_ps2_clear_fifo
0000175c g     F .text	00000010 alt_up_rs232_get_available_space_in_write_FIFO
0000020c g     F .text	0000004c VGA_box
00000cac g     F .text	00000038 altera_avalon_jtag_uart_close
000053fc g       *ABS*	00000000 __ram_rwdata_start
000051d4 g       *ABS*	00000000 __ram_rodata_start
00008ddc g     O .bss	00000028 __malloc_current_mallinfo
00000c84 g     F .text	00000028 altera_avalon_jtag_uart_read_fd
00002b78 g     F .text	0000006c alt_get_fd
00004a74 g     F .text	00000070 _close_r
00002c58 g     F .text	00000074 memcmp
00000c34 g     F .text	00000028 altera_avalon_jtag_uart_close_fd
00008f04 g       *ABS*	00000000 __alt_stack_base
00000c14 g     F .text	00000020 altera_avalon_jtag_uart_ioctl_fd
00003134 g     F .text	0000013c __swsetup_r
00003824 g     F .text	000000f0 __sfp
00006c98 g     O .rwdata	00000408 __malloc_av_
000036b8 g     F .text	00000004 __sinit_lock_release
0000499c g     F .text	00000060 __sread
000017f4 g     F .text	0000001c alt_up_rs232_disable_read_interrupt
00002abc g     F .text	000000bc alt_find_file
0000257c g     F .text	00000070 alt_dev_llist_insert
00004f8c g     F .text	00000004 __malloc_lock
0000508c g     F .text	00000050 sbrk
00003424 g     F .text	000001fc _fflush_r
00008db4 g       *ABS*	00000000 __bss_start
000047a8 g     F .text	00000098 memset
00000318 g     F .text	000002a4 main
00008dbc g     O .bss	00000004 alt_envp
00008dd8 g     O .bss	00000004 __malloc_max_total_mem
000022c8 g     F .text	00000024 alt_up_pixel_buffer_dma_swap_buffers
00001940 g     F .text	00000020 alt_up_char_buffer_open_dev
00000c5c g     F .text	00000028 altera_avalon_jtag_uart_write_fd
00003118 g     F .text	0000001c __swbuf
000048b0 g     F .text	00000008 __sclose
00800000 g       *ABS*	00000000 __alt_heap_limit
00004bf4 g     F .text	00000014 fclose
00001368 g     F .text	00000058 alt_up_ps2_read_data_byte
00004068 g     F .text	00000740 _malloc_r
000070b4 g     O .rwdata	00000004 alt_errno
00003e1c g     F .text	000000b8 _fwalk
00001318 g     F .text	00000020 alt_up_ps2_open_dev
00002ccc g     F .text	00000104 putc
00003914 g     F .text	0000012c _malloc_trim_r
0000164c g     F .text	00000018 alt_up_ps2_enable_read_interrupt
00002eb8 g     F .text	000000bc strcmp
000051d4 g       *ABS*	00000000 __flash_rodata_start
00001670 g     F .text	00000020 alt_up_rs232_open_dev
00000974 g     F .text	00000020 alt_irq_init
000029b0 g     F .text	00000024 alt_release_fd
00001304 g     F .text	0000000c read_data_valid
00001574 g     F .text	00000034 alt_up_ps2_write_data_byte_with_ack
000049fc g     F .text	00000078 _write_r
000070c4 g     O .rwdata	00000004 _impure_ptr
00008db4 g     O .bss	00000004 alt_argc
00000020 g       .exceptions	00000000 alt_irq_entry
00003770 g     F .text	00000018 __fp_unlock_all
000070a0 g     O .rwdata	00000008 alt_fs_list
00001810 g     F .text	00000018 alt_up_rs232_enable_read_interrupt
0000176c g     F .text	00000018 alt_up_rs232_write_data
00000020 g       *ABS*	00000000 __ram_exceptions_start
000070d8 g       *ABS*	00000000 _edata
00008f04 g       *ABS*	00000000 _end
00000168 g       *ABS*	00000000 __ram_exceptions_end
00000ee4 g     F .text	00000074 altera_avalon_jtag_uart_ioctl
00004920 g     F .text	0000007c __swrite
000070cc g     O .rwdata	00000004 __malloc_trim_threshold
00002ab4 g     F .text	00000008 altera_nios2_qsys_irq_init
00002c20 g     F .text	00000038 exit
00003d54 g     F .text	000000c8 _fwalk_reent
000015a8 g     F .text	00000088 alt_up_ps2_init
00800000 g       *ABS*	00000000 __alt_data_end
00000020 g     F .exceptions	00000000 alt_exception
000036b0 g     F .text	00000004 __sfp_lock_release
00004ddc g     F .text	00000014 _exit
00002400 g     F .text	00000094 alt_alarm_start
00003ed4 g     F .text	00000194 __smakebuf_r
00001468 g     F .text	0000005c alt_up_ps2_wait_for_ack
00002f74 g     F .text	00000074 strlen
00002834 g     F .text	0000017c open
0000094c g     F .text	00000028 alt_putchar
0000265c g     F .text	00000020 alt_icache_flush_all
000070b8 g     O .rwdata	00000004 alt_priority_mask
00001440 g     F .text	00000028 alt_up_ps2_read_fd
000070bc g     O .rwdata	00000008 alt_alarm_list
00001828 g     F .text	00000010 alt_up_rs232_get_used_space_in_read_FIFO
00002494 g     F .text	000000dc close
0000065c g     F .text	000000c4 alt_load
00000000  w      *UND*	00000000 free
000036b4 g     F .text	00000004 __sinit_lock_acquire



Disassembly of section .entry:

00000000 <__reset>:
   0:	00808014 	movui	r2,512
   4:	1001483a 	initi	r2
   8:	10bff804 	addi	r2,r2,-32
   c:	00bffd16 	blt	zero,r2,4 <__reset+0x4>
  10:	00400034 	movhi	at,0
  14:	08405a14 	ori	at,at,360
  18:	0800683a 	jmp	at
  1c:	00000000 	call	0 <__reset>

Disassembly of section .exceptions:

00000020 <alt_exception>:
  20:	deffed04 	addi	sp,sp,-76
  24:	dfc00015 	stw	ra,0(sp)
  28:	d8400215 	stw	at,8(sp)
  2c:	d8800315 	stw	r2,12(sp)
  30:	d8c00415 	stw	r3,16(sp)
  34:	d9000515 	stw	r4,20(sp)
  38:	d9400615 	stw	r5,24(sp)
  3c:	d9800715 	stw	r6,28(sp)
  40:	d9c00815 	stw	r7,32(sp)
  44:	000b307a 	rdctl	r5,estatus
  48:	da000915 	stw	r8,36(sp)
  4c:	da400a15 	stw	r9,40(sp)
  50:	da800b15 	stw	r10,44(sp)
  54:	dac00c15 	stw	r11,48(sp)
  58:	db000d15 	stw	r12,52(sp)
  5c:	db400e15 	stw	r13,56(sp)
  60:	db800f15 	stw	r14,60(sp)
  64:	dbc01015 	stw	r15,64(sp)
  68:	d9401115 	stw	r5,68(sp)
  6c:	ebffff04 	addi	r15,ea,-4
  70:	dbc01215 	stw	r15,72(sp)
  74:	0009313a 	rdctl	r4,ipending
  78:	2880004c 	andi	r2,r5,1
  7c:	10000326 	beq	r2,zero,8c <alt_exception+0x6c>
  80:	20000226 	beq	r4,zero,8c <alt_exception+0x6c>
  84:	00000ec0 	call	ec <alt_irq_handler>
  88:	00000306 	br	98 <alt_exception+0x78>
  8c:	df401215 	stw	ea,72(sp)
  90:	e8bfff17 	ldw	r2,-4(ea)
  94:	003da03a 	break	0
  98:	d9401117 	ldw	r5,68(sp)
  9c:	df401217 	ldw	ea,72(sp)
  a0:	dfc00017 	ldw	ra,0(sp)
  a4:	2801707a 	wrctl	estatus,r5
  a8:	d8400217 	ldw	at,8(sp)
  ac:	d8800317 	ldw	r2,12(sp)
  b0:	d8c00417 	ldw	r3,16(sp)
  b4:	d9000517 	ldw	r4,20(sp)
  b8:	d9400617 	ldw	r5,24(sp)
  bc:	d9800717 	ldw	r6,28(sp)
  c0:	d9c00817 	ldw	r7,32(sp)
  c4:	da000917 	ldw	r8,36(sp)
  c8:	da400a17 	ldw	r9,40(sp)
  cc:	da800b17 	ldw	r10,44(sp)
  d0:	dac00c17 	ldw	r11,48(sp)
  d4:	db000d17 	ldw	r12,52(sp)
  d8:	db400e17 	ldw	r13,56(sp)
  dc:	db800f17 	ldw	r14,60(sp)
  e0:	dbc01017 	ldw	r15,64(sp)
  e4:	dec01304 	addi	sp,sp,76
  e8:	ef80083a 	eret

000000ec <alt_irq_handler>:
  ec:	defffe04 	addi	sp,sp,-8
  f0:	dfc00115 	stw	ra,4(sp)
  f4:	dc000015 	stw	r16,0(sp)
  f8:	000d313a 	rdctl	r6,ipending
  fc:	04000074 	movhi	r16,1
 100:	84238104 	addi	r16,r16,-29180
 104:	3080004c 	andi	r2,r6,1
 108:	1005003a 	cmpeq	r2,r2,zero
 10c:	10000a1e 	bne	r2,zero,138 <alt_irq_handler+0x4c>
 110:	000b883a 	mov	r5,zero
 114:	280490fa 	slli	r2,r5,3
 118:	1405883a 	add	r2,r2,r16
 11c:	10c00017 	ldw	r3,0(r2)
 120:	11000117 	ldw	r4,4(r2)
 124:	183ee83a 	callr	r3
 128:	0005313a 	rdctl	r2,ipending
 12c:	10000a26 	beq	r2,zero,158 <alt_irq_handler+0x6c>
 130:	100d883a 	mov	r6,r2
 134:	003ff306 	br	104 <alt_irq_handler+0x18>
 138:	00c00044 	movi	r3,1
 13c:	000b883a 	mov	r5,zero
 140:	1809883a 	mov	r4,r3
 144:	18c7883a 	add	r3,r3,r3
 148:	290b883a 	add	r5,r5,r4
 14c:	30c4703a 	and	r2,r6,r3
 150:	103ff01e 	bne	r2,zero,114 <alt_irq_handler+0x28>
 154:	003ffb06 	br	144 <alt_irq_handler+0x58>
 158:	dfc00117 	ldw	ra,4(sp)
 15c:	dc000017 	ldw	r16,0(sp)
 160:	dec00204 	addi	sp,sp,8
 164:	f800283a 	ret

Disassembly of section .text:

00000168 <_start>:
     168:	06c02034 	movhi	sp,128
     16c:	dec00014 	ori	sp,sp,0
     170:	06800034 	movhi	gp,0
     174:	d6bc2814 	ori	gp,gp,61600
     178:	00800034 	movhi	r2,0
     17c:	10a36d14 	ori	r2,r2,36276
     180:	00c00034 	movhi	r3,0
     184:	18e3c114 	ori	r3,r3,36612
     188:	10c00326 	beq	r2,r3,198 <_start+0x30>
     18c:	10000015 	stw	zero,0(r2)
     190:	10800104 	addi	r2,r2,4
     194:	10fffd36 	bltu	r2,r3,18c <_start+0x24>
     198:	000065c0 	call	65c <alt_load>
     19c:	00007200 	call	720 <alt_main>

000001a0 <alt_after_alt_main>:
     1a0:	003fff06 	br	1a0 <alt_after_alt_main>

000001a4 <VGA_line>:
			}	
		}
	}
}
void VGA_line(int x, int y, short pixel_color)
{
     1a4:	0015883a 	mov	r10,zero
     1a8:	0007883a 	mov	r3,zero
     1ac:	02c20034 	movhi	r11,2048
     1b0:	03809fc4 	movi	r14,639
     1b4:	03400044 	movi	r13,1
     1b8:	03007804 	movi	r12,480
	// x->col no , y->row_no;
//	alt_up_pixel_buffer_clear_screen (pixel_buf_dev);
	
    while(row < 480)
	{
	  offset = (row << 9) + y;
     1bc:	500e927a 	slli	r7,r10,9
	  *(pixel_buffer + offset) = pixel_color;
     1c0:	3945883a 	add	r2,r7,r5
     1c4:	1085883a 	add	r2,r2,r2
     1c8:	12c5883a 	add	r2,r2,r11
     1cc:	1180000d 	sth	r6,0(r2)
	  while(row==x && col < 640)
     1d0:	22800b1e 	bne	r4,r10,200 <VGA_line+0x5c>
     1d4:	70c00a16 	blt	r14,r3,200 <VGA_line+0x5c>
     1d8:	38c5883a 	add	r2,r7,r3
     1dc:	1085883a 	add	r2,r2,r2
     1e0:	12c5883a 	add	r2,r2,r11
     1e4:	02400044 	movi	r9,1
     1e8:	02000084 	movi	r8,2
     1ec:	01c0a004 	movi	r7,640
	  {
	    offset = (row << 9) + col;
		*(pixel_buffer + offset) = pixel_color;
     1f0:	1180000d 	sth	r6,0(r2)
		col++;
     1f4:	1a47883a 	add	r3,r3,r9
     1f8:	1205883a 	add	r2,r2,r8
	
    while(row < 480)
	{
	  offset = (row << 9) + y;
	  *(pixel_buffer + offset) = pixel_color;
	  while(row==x && col < 640)
     1fc:	19fffc1e 	bne	r3,r7,1f0 <VGA_line+0x4c>
	  {
	    offset = (row << 9) + col;
		*(pixel_buffer + offset) = pixel_color;
		col++;
	  }
	  row++;
     200:	5355883a 	add	r10,r10,r13
	int offset, row =0 , col = 0;
  	volatile short * pixel_buffer = (short *) 0x08000000;	// VGA pixel buffer
	// x->col no , y->row_no;
//	alt_up_pixel_buffer_clear_screen (pixel_buf_dev);
	
    while(row < 480)
     204:	533fed1e 	bne	r10,r12,1bc <VGA_line+0x18>
		col++;
	  }
	  row++;
	}  
    
}
     208:	f800283a 	ret

0000020c <VGA_box>:

/****************************************************************************************
 * Draw a filled rectangle on the VGA monitor 
****************************************************************************************/
void VGA_box(int x1, int y1, int x2, int y2, short pixel_color)
{
     20c:	dac0000b 	ldhu	r11,0(sp)
	int offset, row, col;
  	volatile short * pixel_buffer = (short *) 0x08000000;	// VGA pixel buffer

	/* assume that the box coordinates are valid */
	for (row = y1; row <= y2; row++)
     210:	39401016 	blt	r7,r5,254 <VGA_box+0x48>
     214:	03000044 	movi	r12,1
     218:	00000c06 	br	24c <VGA_box+0x40>
     21c:	2007883a 	mov	r3,r4
     220:	2810927a 	slli	r8,r5,9
     224:	02820034 	movhi	r10,2048
     228:	02400044 	movi	r9,1
	{
		col = x1;
		while (col <= x2)
		{
			offset = (row << 9) + col;
			*(pixel_buffer + offset) = pixel_color;	// compute halfword address, set pixel
     22c:	40c5883a 	add	r2,r8,r3
     230:	1085883a 	add	r2,r2,r2
     234:	1285883a 	add	r2,r2,r10
     238:	12c0000d 	sth	r11,0(r2)
			++col;
     23c:	1a47883a 	add	r3,r3,r9

	/* assume that the box coordinates are valid */
	for (row = y1; row <= y2; row++)
	{
		col = x1;
		while (col <= x2)
     240:	30fffa0e 	bge	r6,r3,22c <VGA_box+0x20>
{
	int offset, row, col;
  	volatile short * pixel_buffer = (short *) 0x08000000;	// VGA pixel buffer

	/* assume that the box coordinates are valid */
	for (row = y1; row <= y2; row++)
     244:	2b0b883a 	add	r5,r5,r12
     248:	39400216 	blt	r7,r5,254 <VGA_box+0x48>
	{
		col = x1;
		while (col <= x2)
     24c:	313ff30e 	bge	r6,r4,21c <VGA_box+0x10>
     250:	003ffc06 	br	244 <VGA_box+0x38>
     254:	f800283a 	ret

00000258 <HEX_PS2>:

/****************************************************************************************
 * Subroutine to show a string of HEX data on the HEX displays
****************************************************************************************/
void HEX_PS2(char b1, char b2)
{
     258:	defff704 	addi	sp,sp,-36
     25c:	dfc00815 	stw	ra,32(sp)
     260:	dc800715 	stw	r18,28(sp)
     264:	dc400615 	stw	r17,24(sp)
     268:	dc000515 	stw	r16,20(sp)
     26c:	2021883a 	mov	r16,r4
     270:	2823883a 	mov	r17,r5
	volatile int * HEX3_HEX0_ptr = (int *) 0x10000020;

	/* SEVEN_SEGMENT_DECODE_TABLE gives the on/off settings for all segments in 
	 * a single 7-seg display in the DE1 Media Computer, for the hex digits 0 - F */
	char	seven_seg_decode_table[] = {	0x3F, 0x06, 0x5B, 0x4F, 0x66, 0x6D, 0x7C, 0x07, 
		  										0x7F, 0x67, 0x77, 0x7C, 0x39, 0x5E, 0x79, 0x71 };
     274:	04800404 	movi	r18,16
     278:	d809883a 	mov	r4,sp
     27c:	01400034 	movhi	r5,0
     280:	2954bd44 	addi	r5,r5,21237
     284:	900d883a 	mov	r6,r18
     288:	00005bc0 	call	5bc <memcpy>
	char	hex_segs[] = { 0, 0, 0, 0};
	int shift_buffer, nibble;
	char code;
	int i;

	shift_buffer = ((b1 & 0xFF) << 8) | (b2 & (0xFF));
     28c:	84003fcc 	andi	r16,r16,255
     290:	8020923a 	slli	r16,r16,8
     294:	8c403fcc 	andi	r17,r17,255
     298:	8460b03a 	or	r16,r16,r17
	for ( i = 0; i < 4; ++i )
	{
		nibble = shift_buffer & 0x0000000F;		// character is in rightmost nibble
		code = seven_seg_decode_table[nibble];
		hex_segs[i] = code;
     29c:	00c003c4 	movi	r3,15
     2a0:	80c4703a 	and	r2,r16,r3
     2a4:	d885883a 	add	r2,sp,r2
     2a8:	10800003 	ldbu	r2,0(r2)
     2ac:	d8800405 	stb	r2,16(sp)
		shift_buffer = shift_buffer >> 4;
     2b0:	8005d13a 	srai	r2,r16,4
	shift_buffer = ((b1 & 0xFF) << 8) | (b2 & (0xFF));
	for ( i = 0; i < 4; ++i )
	{
		nibble = shift_buffer & 0x0000000F;		// character is in rightmost nibble
		code = seven_seg_decode_table[nibble];
		hex_segs[i] = code;
     2b4:	10c4703a 	and	r2,r2,r3
     2b8:	d885883a 	add	r2,sp,r2
     2bc:	10800003 	ldbu	r2,0(r2)
     2c0:	d8800445 	stb	r2,17(sp)
		shift_buffer = shift_buffer >> 4;
     2c4:	8005d23a 	srai	r2,r16,8
	shift_buffer = ((b1 & 0xFF) << 8) | (b2 & (0xFF));
	for ( i = 0; i < 4; ++i )
	{
		nibble = shift_buffer & 0x0000000F;		// character is in rightmost nibble
		code = seven_seg_decode_table[nibble];
		hex_segs[i] = code;
     2c8:	10c4703a 	and	r2,r2,r3
     2cc:	d885883a 	add	r2,sp,r2
     2d0:	10800003 	ldbu	r2,0(r2)
     2d4:	d8800485 	stb	r2,18(sp)
     2d8:	8021d33a 	srai	r16,r16,12
     2dc:	80e0703a 	and	r16,r16,r3
     2e0:	dc05883a 	add	r2,sp,r16
     2e4:	10800003 	ldbu	r2,0(r2)
     2e8:	d88004c5 	stb	r2,19(sp)
		shift_buffer = shift_buffer >> 4;
	}
	/* drive the hex displays */
	*(HEX3_HEX0_ptr) = *(int *) (hex_segs);
     2ec:	dc85883a 	add	r2,sp,r18
     2f0:	10c00017 	ldw	r3,0(r2)
     2f4:	00840034 	movhi	r2,4096
     2f8:	10800804 	addi	r2,r2,32
     2fc:	10c00015 	stw	r3,0(r2)
}
     300:	dfc00817 	ldw	ra,32(sp)
     304:	dc800717 	ldw	r18,28(sp)
     308:	dc400617 	ldw	r17,24(sp)
     30c:	dc000517 	ldw	r16,20(sp)
     310:	dec00904 	addi	sp,sp,36
     314:	f800283a 	ret

00000318 <main>:
 * 	   the box
 * Displays the last two bytes of data received from the PS/2 port 
 * 	   on the HEX displays on the DE1 board
********************************************************************************/
int main(void)
{
     318:	defff104 	addi	sp,sp,-60
     31c:	dfc00e15 	stw	ra,56(sp)
     320:	df000d15 	stw	fp,52(sp)
     324:	ddc00c15 	stw	r23,48(sp)
     328:	dd800b15 	stw	r22,44(sp)
     32c:	dd400a15 	stw	r21,40(sp)
     330:	dd000915 	stw	r20,36(sp)
     334:	dcc00815 	stw	r19,32(sp)
     338:	dc800715 	stw	r18,28(sp)
     33c:	dc400615 	stw	r17,24(sp)
     340:	dc000515 	stw	r16,20(sp)
	}
	else
		alt_printf ("Opened char buffer device\n"); */
		
	alt_up_pixel_buffer_dma_dev *pixel_buffer_dev;
	pixel_buffer_dev = alt_up_pixel_buffer_dma_open_dev ("/dev/VGA_Pixel_Buffer");
     344:	01000034 	movhi	r4,0
     348:	21147504 	addi	r4,r4,20948
     34c:	00023e00 	call	23e0 <alt_up_pixel_buffer_dma_open_dev>
     350:	102f883a 	mov	r23,r2
	if ( pixel_buffer_dev == NULL)
     354:	1000041e 	bne	r2,zero,368 <main+0x50>
		alt_printf ("Error: could not open VGA pixel buffer device\n");
     358:	01000034 	movhi	r4,0
     35c:	21147b04 	addi	r4,r4,20972
     360:	00007700 	call	770 <alt_printf>
     364:	00000306 	br	374 <main+0x5c>
	else
		alt_printf ("Opened character VGA pixel buffer device\n");
     368:	01000034 	movhi	r4,0
     36c:	21148704 	addi	r4,r4,21020
     370:	00007700 	call	770 <alt_printf>
	/* clear the graphics screen */
	alt_up_pixel_buffer_dma_clear_screen(pixel_buffer_dev, 0);
     374:	b809883a 	mov	r4,r23
     378:	000b883a 	mov	r5,zero
     37c:	00022140 	call	2214 <alt_up_pixel_buffer_dma_clear_screen>
    alt_up_pixel_buffer_dma_draw_line(pixel_buffer_dev,160,0,160,240,255,0);
     380:	01c02804 	movi	r7,160
     384:	00803c04 	movi	r2,240
     388:	d8800015 	stw	r2,0(sp)
     38c:	04003fc4 	movi	r16,255
     390:	dc000115 	stw	r16,4(sp)
     394:	d8000215 	stw	zero,8(sp)
     398:	b809883a 	mov	r4,r23
     39c:	380b883a 	mov	r5,r7
     3a0:	000d883a 	mov	r6,zero
     3a4:	0001a0c0 	call	1a0c <alt_up_pixel_buffer_dma_draw_line>
	alt_up_pixel_buffer_dma_draw_line(pixel_buffer_dev,0,120,319,120,255,0);
     3a8:	01801e04 	movi	r6,120
     3ac:	d9800015 	stw	r6,0(sp)
     3b0:	dc000115 	stw	r16,4(sp)
     3b4:	d8000215 	stw	zero,8(sp)
     3b8:	b809883a 	mov	r4,r23
     3bc:	000b883a 	mov	r5,zero
     3c0:	01c04fc4 	movi	r7,319
     3c4:	0001a0c0 	call	1a0c <alt_up_pixel_buffer_dma_draw_line>
	int start_x=160,start_y = 120,count = 0 ;
 //   VGA_line ( start_x,start_y,0x187F);
    

	// open the PS2 port
	PS2_dev = alt_up_ps2_open_dev ("/dev/PS2_Port");
     3c8:	01000034 	movhi	r4,0
     3cc:	21149204 	addi	r4,r4,21064
     3d0:	00013180 	call	1318 <alt_up_ps2_open_dev>
     3d4:	1029883a 	mov	r20,r2
	if ( PS2_dev == NULL)
     3d8:	1000041e 	bne	r2,zero,3ec <main+0xd4>
	{
		alt_printf ("Error: could not open PS2 device\n");
     3dc:	01000034 	movhi	r4,0
     3e0:	21149604 	addi	r4,r4,21080
     3e4:	00007700 	call	770 <alt_printf>
     3e8:	00006706 	br	588 <main+0x270>
		return -1;
	}
	else
		alt_printf ("Opened PS2 device\n");
     3ec:	01000034 	movhi	r4,0
     3f0:	21149f04 	addi	r4,r4,21116
     3f4:	00007700 	call	770 <alt_printf>

	
	// open the green LEDs parallel port
	green_LEDs_dev = alt_up_parallel_port_open_dev ("/dev/Green_LEDs");
     3f8:	01000034 	movhi	r4,0
     3fc:	2114a404 	addi	r4,r4,21136
     400:	00012bc0 	call	12bc <alt_up_parallel_port_open_dev>
     404:	d8800415 	stw	r2,16(sp)
	if (green_LEDs_dev == NULL)
     408:	1000041e 	bne	r2,zero,41c <main+0x104>
	{
		alt_printf ("Error: could not open green LEDs device\n");
     40c:	01000034 	movhi	r4,0
     410:	2114a804 	addi	r4,r4,21152
     414:	00007700 	call	770 <alt_printf>
     418:	00005b06 	br	588 <main+0x270>
		return -1;
	}
	else
		alt_printf ("Opened green LEDs device\n");
     41c:	01000034 	movhi	r4,0
     420:	2114b304 	addi	r4,r4,21196
     424:	00007700 	call	770 <alt_printf>

	(void) alt_up_ps2_write_data_byte (PS2_dev, 0xFF);		// reset
     428:	a009883a 	mov	r4,r20
     42c:	01403fc4 	movi	r5,255
     430:	00014c40 	call	14c4 <alt_up_ps2_write_data_byte>
     434:	0025883a 	mov	r18,zero
     438:	0027883a 	mov	r19,zero
     43c:	05802804 	movi	r22,160
     440:	05401e04 	movi	r21,120
     444:	0023883a 	mov	r17,zero
     448:	07003c04 	movi	fp,240
     44c:	00000206 	br	458 <main+0x140>
     450:	9027883a 	mov	r19,r18
     454:	8025883a 	mov	r18,r16
	while(1)
	{
		
		/* check for PS/2 data--display on HEX displays */
		if (alt_up_ps2_read_data_byte (PS2_dev, &PS2_data) == 0)
     458:	a009883a 	mov	r4,r20
     45c:	d9400304 	addi	r5,sp,12
     460:	00013680 	call	1368 <alt_up_ps2_read_data_byte>
     464:	10000226 	beq	r2,zero,470 <main+0x158>
     468:	9021883a 	mov	r16,r18
     46c:	003ff906 	br	454 <main+0x13c>
		{
			/* shift the next data byte into the display */
			byte3 = byte2;
			byte2 = byte1;
			byte1 = PS2_data;
     470:	dc000303 	ldbu	r16,12(sp)
		//	HEX_PS2 (byte1, byte2);
		//    alt_printf("byte1 is %x\n",byte1);
		//	alt_printf("byte2 is %x\n",byte2);
		//	alt_printf("byte3 is %x\n",byte3);
            count++;
     474:	8c400044 	addi	r17,r17,1
            if(count==63)
     478:	00800fc4 	movi	r2,63
     47c:	88802e1e 	bne	r17,r2,538 <main+0x220>
		/*	 if(byte3 && 0x01==1)
			   alt_printf("left button clicked\n");
			 if(byte3 && 0x02==1)  
			   alt_printf("right button clicked\n");  */
             //  HEX_PS2(byte2,byte1);
              (void) alt_up_parallel_port_write_data (green_LEDs_dev, byte3);
     480:	d8800417 	ldw	r2,16(sp)
     484:	10c00a17 	ldw	r3,40(r2)
     488:	98803fcc 	andi	r2,r19,255
     48c:	18800035 	stwio	r2,0(r3)
			  start_x +=  (byte2/10);
     490:	90803fcc 	andi	r2,r18,255
     494:	00c00284 	movi	r3,10
     498:	10c5203a 	divu	r2,r2,r3
     49c:	b0ad883a 	add	r22,r22,r2
			  start_y +=  (byte1/10);
     4a0:	80803fcc 	andi	r2,r16,255
     4a4:	10c5203a 	divu	r2,r2,r3
     4a8:	a8ab883a 	add	r21,r21,r2
		      if(byte3 && 0x20 == 1)
			  {
				 alt_printf("- y  mov\n");
                 start_y -=  15;
			  }
			  if(start_x > 320)
     4ac:	00805004 	movi	r2,320
     4b0:	1580020e 	bge	r2,r22,4bc <main+0x1a4>
     4b4:	05804ec4 	movi	r22,315
     4b8:	00000206 	br	4c4 <main+0x1ac>
				 start_x = 315;
			  if(start_x < 0)
     4bc:	b000010e 	bge	r22,zero,4c4 <main+0x1ac>
     4c0:	05800144 	movi	r22,5
                 start_x = 5;
                if(start_y > 240)
     4c4:	e540020e 	bge	fp,r21,4d0 <main+0x1b8>
     4c8:	05403ac4 	movi	r21,235
     4cc:	00000206 	br	4d8 <main+0x1c0>
                 start_y = 235;
                if(start_y < 0)
     4d0:	a800010e 	bge	r21,zero,4d8 <main+0x1c0>
     4d4:	05400144 	movi	r21,5
                 start_y = 5;   
				 alt_up_pixel_buffer_dma_clear_screen(pixel_buffer_dev, 0);
     4d8:	b809883a 	mov	r4,r23
     4dc:	000b883a 	mov	r5,zero
     4e0:	00022140 	call	2214 <alt_up_pixel_buffer_dma_clear_screen>
                 alt_up_pixel_buffer_dma_draw_line(pixel_buffer_dev,start_x,0,start_x,240,255,0);
     4e4:	df000015 	stw	fp,0(sp)
     4e8:	00803fc4 	movi	r2,255
     4ec:	d8800115 	stw	r2,4(sp)
     4f0:	d8000215 	stw	zero,8(sp)
     4f4:	b809883a 	mov	r4,r23
     4f8:	b00b883a 	mov	r5,r22
     4fc:	000d883a 	mov	r6,zero
     500:	b00f883a 	mov	r7,r22
     504:	0001a0c0 	call	1a0c <alt_up_pixel_buffer_dma_draw_line>
	             alt_up_pixel_buffer_dma_draw_line(pixel_buffer_dev,0,start_y,319,start_y,255,0);
     508:	dd400015 	stw	r21,0(sp)
     50c:	00c03fc4 	movi	r3,255
     510:	d8c00115 	stw	r3,4(sp)
     514:	d8000215 	stw	zero,8(sp)
     518:	b809883a 	mov	r4,r23
     51c:	000b883a 	mov	r5,zero
     520:	a80d883a 	mov	r6,r21
     524:	01c04fc4 	movi	r7,319
     528:	0001a0c0 	call	1a0c <alt_up_pixel_buffer_dma_draw_line>
     52c:	9027883a 	mov	r19,r18
     530:	0023883a 	mov	r17,zero
     534:	003fc706 	br	454 <main+0x13c>
				 count = 0;
			}
            else if(count==3)
     538:	008000c4 	movi	r2,3
     53c:	88bfc41e 	bne	r17,r2,450 <main+0x138>
            {	 
			    if ( (byte2 == (unsigned char) 0xAA) && (byte1 == (unsigned char) 0x00) )
     540:	013fea84 	movi	r4,-86
     544:	90c03fcc 	andi	r3,r18,255
     548:	20803fcc 	andi	r2,r4,255
     54c:	18bfc01e 	bne	r3,r2,450 <main+0x138>
     550:	80803fcc 	andi	r2,r16,255
     554:	10000226 	beq	r2,zero,560 <main+0x248>
     558:	2027883a 	mov	r19,r4
     55c:	003fbd06 	br	454 <main+0x13c>
				{
				     alt_printf("mouse reset\n");
     560:	01000034 	movhi	r4,0
     564:	2114ba04 	addi	r4,r4,21224
     568:	00007700 	call	770 <alt_printf>
				     (void) alt_up_ps2_write_data_byte (PS2_dev, 0xF4);	
     56c:	a009883a 	mov	r4,r20
     570:	01403d04 	movi	r5,244
     574:	00014c40 	call	14c4 <alt_up_ps2_write_data_byte>
				     alt_up_ps2_clear_fifo(PS2_dev);
     578:	a009883a 	mov	r4,r20
     57c:	00013380 	call	1338 <alt_up_ps2_clear_fifo>
     580:	04ffea84 	movi	r19,-86
     584:	003fb306 	br	454 <main+0x13c>
				// mouse inserted; initialize se
				}
			}	
		}
	}
}
     588:	00bfffc4 	movi	r2,-1
     58c:	dfc00e17 	ldw	ra,56(sp)
     590:	df000d17 	ldw	fp,52(sp)
     594:	ddc00c17 	ldw	r23,48(sp)
     598:	dd800b17 	ldw	r22,44(sp)
     59c:	dd400a17 	ldw	r21,40(sp)
     5a0:	dd000917 	ldw	r20,36(sp)
     5a4:	dcc00817 	ldw	r19,32(sp)
     5a8:	dc800717 	ldw	r18,28(sp)
     5ac:	dc400617 	ldw	r17,24(sp)
     5b0:	dc000517 	ldw	r16,20(sp)
     5b4:	dec00f04 	addi	sp,sp,60
     5b8:	f800283a 	ret

000005bc <memcpy>:
     5bc:	01c003c4 	movi	r7,15
     5c0:	2007883a 	mov	r3,r4
     5c4:	3980032e 	bgeu	r7,r6,5d4 <memcpy+0x18>
     5c8:	2904b03a 	or	r2,r5,r4
     5cc:	108000cc 	andi	r2,r2,3
     5d0:	10000926 	beq	r2,zero,5f8 <memcpy+0x3c>
     5d4:	30000626 	beq	r6,zero,5f0 <memcpy+0x34>
     5d8:	30cd883a 	add	r6,r6,r3
     5dc:	28800003 	ldbu	r2,0(r5)
     5e0:	29400044 	addi	r5,r5,1
     5e4:	18800005 	stb	r2,0(r3)
     5e8:	18c00044 	addi	r3,r3,1
     5ec:	30fffb1e 	bne	r6,r3,5dc <memcpy+0x20>
     5f0:	2005883a 	mov	r2,r4
     5f4:	f800283a 	ret
     5f8:	3811883a 	mov	r8,r7
     5fc:	200f883a 	mov	r7,r4
     600:	28c00017 	ldw	r3,0(r5)
     604:	31bffc04 	addi	r6,r6,-16
     608:	38c00015 	stw	r3,0(r7)
     60c:	28800117 	ldw	r2,4(r5)
     610:	38800115 	stw	r2,4(r7)
     614:	28c00217 	ldw	r3,8(r5)
     618:	38c00215 	stw	r3,8(r7)
     61c:	28800317 	ldw	r2,12(r5)
     620:	29400404 	addi	r5,r5,16
     624:	38800315 	stw	r2,12(r7)
     628:	39c00404 	addi	r7,r7,16
     62c:	41bff436 	bltu	r8,r6,600 <memcpy+0x44>
     630:	008000c4 	movi	r2,3
     634:	1180072e 	bgeu	r2,r6,654 <memcpy+0x98>
     638:	1007883a 	mov	r3,r2
     63c:	28800017 	ldw	r2,0(r5)
     640:	31bfff04 	addi	r6,r6,-4
     644:	29400104 	addi	r5,r5,4
     648:	38800015 	stw	r2,0(r7)
     64c:	39c00104 	addi	r7,r7,4
     650:	19bffa36 	bltu	r3,r6,63c <memcpy+0x80>
     654:	3807883a 	mov	r3,r7
     658:	003fde06 	br	5d4 <memcpy+0x18>

0000065c <alt_load>:
     65c:	deffff04 	addi	sp,sp,-4
     660:	dfc00015 	stw	ra,0(sp)
     664:	01000034 	movhi	r4,0
     668:	211c3604 	addi	r4,r4,28888
     66c:	00c00034 	movhi	r3,0
     670:	18d4ff04 	addi	r3,r3,21500
     674:	20c00926 	beq	r4,r3,69c <alt_load+0x40>
     678:	01800034 	movhi	r6,0
     67c:	319c3604 	addi	r6,r6,28888
     680:	19800626 	beq	r3,r6,69c <alt_load+0x40>
     684:	01400104 	movi	r5,4
     688:	20800017 	ldw	r2,0(r4)
     68c:	18800015 	stw	r2,0(r3)
     690:	1947883a 	add	r3,r3,r5
     694:	2149883a 	add	r4,r4,r5
     698:	30fffb1e 	bne	r6,r3,688 <alt_load+0x2c>
     69c:	01000034 	movhi	r4,0
     6a0:	21000804 	addi	r4,r4,32
     6a4:	00c00034 	movhi	r3,0
     6a8:	18c00804 	addi	r3,r3,32
     6ac:	20c00926 	beq	r4,r3,6d4 <alt_load+0x78>
     6b0:	01800034 	movhi	r6,0
     6b4:	31805a04 	addi	r6,r6,360
     6b8:	19800626 	beq	r3,r6,6d4 <alt_load+0x78>
     6bc:	01400104 	movi	r5,4
     6c0:	20800017 	ldw	r2,0(r4)
     6c4:	18800015 	stw	r2,0(r3)
     6c8:	1947883a 	add	r3,r3,r5
     6cc:	2149883a 	add	r4,r4,r5
     6d0:	30fffb1e 	bne	r6,r3,6c0 <alt_load+0x64>
     6d4:	01000034 	movhi	r4,0
     6d8:	21147504 	addi	r4,r4,20948
     6dc:	00c00034 	movhi	r3,0
     6e0:	18d47504 	addi	r3,r3,20948
     6e4:	20c00926 	beq	r4,r3,70c <alt_load+0xb0>
     6e8:	01800034 	movhi	r6,0
     6ec:	3194ff04 	addi	r6,r6,21500
     6f0:	19800626 	beq	r3,r6,70c <alt_load+0xb0>
     6f4:	01400104 	movi	r5,4
     6f8:	20800017 	ldw	r2,0(r4)
     6fc:	18800015 	stw	r2,0(r3)
     700:	1947883a 	add	r3,r3,r5
     704:	2149883a 	add	r4,r4,r5
     708:	30fffb1e 	bne	r6,r3,6f8 <alt_load+0x9c>
     70c:	00025700 	call	2570 <alt_dcache_flush_all>
     710:	000265c0 	call	265c <alt_icache_flush_all>
     714:	dfc00017 	ldw	ra,0(sp)
     718:	dec00104 	addi	sp,sp,4
     71c:	f800283a 	ret

00000720 <alt_main>:
     720:	defffe04 	addi	sp,sp,-8
     724:	dfc00115 	stw	ra,4(sp)
     728:	dc000015 	stw	r16,0(sp)
     72c:	0009883a 	mov	r4,zero
     730:	00009740 	call	974 <alt_irq_init>
     734:	00009940 	call	994 <alt_sys_init>
     738:	01800034 	movhi	r6,0
     73c:	3194c204 	addi	r6,r6,21256
     740:	3009883a 	mov	r4,r6
     744:	300b883a 	mov	r5,r6
     748:	00026e00 	call	26e0 <alt_io_redirect>
     74c:	d1274517 	ldw	r4,-25324(gp)
     750:	d1674617 	ldw	r5,-25320(gp)
     754:	d1a74717 	ldw	r6,-25316(gp)
     758:	00003180 	call	318 <main>
     75c:	1021883a 	mov	r16,r2
     760:	01000044 	movi	r4,1
     764:	00024940 	call	2494 <close>
     768:	8009883a 	mov	r4,r16
     76c:	0002c200 	call	2c20 <exit>

00000770 <alt_printf>:
     770:	defff804 	addi	sp,sp,-32
     774:	dfc00415 	stw	ra,16(sp)
     778:	dc800315 	stw	r18,12(sp)
     77c:	dc400215 	stw	r17,8(sp)
     780:	dc000115 	stw	r16,4(sp)
     784:	d9400515 	stw	r5,20(sp)
     788:	d9800615 	stw	r6,24(sp)
     78c:	d9c00715 	stw	r7,28(sp)
     790:	d8800504 	addi	r2,sp,20
     794:	d8800015 	stw	r2,0(sp)
     798:	2023883a 	mov	r17,r4
     79c:	00005d06 	br	914 <alt_printf+0x1a4>
     7a0:	8c400044 	addi	r17,r17,1
     7a4:	21003fcc 	andi	r4,r4,255
     7a8:	2100201c 	xori	r4,r4,128
     7ac:	213fe004 	addi	r4,r4,-128
     7b0:	00800944 	movi	r2,37
     7b4:	20800226 	beq	r4,r2,7c0 <alt_printf+0x50>
     7b8:	000094c0 	call	94c <alt_putchar>
     7bc:	00005506 	br	914 <alt_printf+0x1a4>
     7c0:	89400003 	ldbu	r5,0(r17)
     7c4:	8c400044 	addi	r17,r17,1
     7c8:	29003fcc 	andi	r4,r5,255
     7cc:	2100201c 	xori	r4,r4,128
     7d0:	213fe004 	addi	r4,r4,-128
     7d4:	20005726 	beq	r4,zero,934 <alt_printf+0x1c4>
     7d8:	00800944 	movi	r2,37
     7dc:	2080021e 	bne	r4,r2,7e8 <alt_printf+0x78>
     7e0:	000094c0 	call	94c <alt_putchar>
     7e4:	00004b06 	br	914 <alt_printf+0x1a4>
     7e8:	28c03fcc 	andi	r3,r5,255
     7ec:	18c0201c 	xori	r3,r3,128
     7f0:	18ffe004 	addi	r3,r3,-128
     7f4:	008018c4 	movi	r2,99
     7f8:	1880061e 	bne	r3,r2,814 <alt_printf+0xa4>
     7fc:	d8c00017 	ldw	r3,0(sp)
     800:	18800104 	addi	r2,r3,4
     804:	d8800015 	stw	r2,0(sp)
     808:	19000017 	ldw	r4,0(r3)
     80c:	000094c0 	call	94c <alt_putchar>
     810:	00004006 	br	914 <alt_printf+0x1a4>
     814:	28c03fcc 	andi	r3,r5,255
     818:	18c0201c 	xori	r3,r3,128
     81c:	18ffe004 	addi	r3,r3,-128
     820:	00801e04 	movi	r2,120
     824:	1880231e 	bne	r3,r2,8b4 <alt_printf+0x144>
     828:	d8c00017 	ldw	r3,0(sp)
     82c:	18800104 	addi	r2,r3,4
     830:	d8800015 	stw	r2,0(sp)
     834:	1c800017 	ldw	r18,0(r3)
     838:	90000326 	beq	r18,zero,848 <alt_printf+0xd8>
     83c:	90bc002c 	andhi	r2,r18,61440
     840:	10000426 	beq	r2,zero,854 <alt_printf+0xe4>
     844:	00003906 	br	92c <alt_printf+0x1bc>
     848:	01000c04 	movi	r4,48
     84c:	000094c0 	call	94c <alt_putchar>
     850:	00003006 	br	914 <alt_printf+0x1a4>
     854:	04000704 	movi	r16,28
     858:	013fff04 	movi	r4,-4
     85c:	00c003c4 	movi	r3,15
     860:	8121883a 	add	r16,r16,r4
     864:	1c04983a 	sll	r2,r3,r16
     868:	9084703a 	and	r2,r18,r2
     86c:	103ffc26 	beq	r2,zero,860 <alt_printf+0xf0>
     870:	80002816 	blt	r16,zero,914 <alt_printf+0x1a4>
     874:	008003c4 	movi	r2,15
     878:	1404983a 	sll	r2,r2,r16
     87c:	9084703a 	and	r2,r18,r2
     880:	1406d83a 	srl	r3,r2,r16
     884:	00800244 	movi	r2,9
     888:	10c00236 	bltu	r2,r3,894 <alt_printf+0x124>
     88c:	19000c04 	addi	r4,r3,48
     890:	00000106 	br	898 <alt_printf+0x128>
     894:	190015c4 	addi	r4,r3,87
     898:	21003fcc 	andi	r4,r4,255
     89c:	2100201c 	xori	r4,r4,128
     8a0:	213fe004 	addi	r4,r4,-128
     8a4:	000094c0 	call	94c <alt_putchar>
     8a8:	843fff04 	addi	r16,r16,-4
     8ac:	80001916 	blt	r16,zero,914 <alt_printf+0x1a4>
     8b0:	003ff006 	br	874 <alt_printf+0x104>
     8b4:	28c03fcc 	andi	r3,r5,255
     8b8:	18c0201c 	xori	r3,r3,128
     8bc:	18ffe004 	addi	r3,r3,-128
     8c0:	00801cc4 	movi	r2,115
     8c4:	1880131e 	bne	r3,r2,914 <alt_printf+0x1a4>
     8c8:	d8800017 	ldw	r2,0(sp)
     8cc:	10c00104 	addi	r3,r2,4
     8d0:	d8c00015 	stw	r3,0(sp)
     8d4:	14000017 	ldw	r16,0(r2)
     8d8:	81000003 	ldbu	r4,0(r16)
     8dc:	20803fcc 	andi	r2,r4,255
     8e0:	1080201c 	xori	r2,r2,128
     8e4:	10bfe004 	addi	r2,r2,-128
     8e8:	10000a26 	beq	r2,zero,914 <alt_printf+0x1a4>
     8ec:	84000044 	addi	r16,r16,1
     8f0:	21003fcc 	andi	r4,r4,255
     8f4:	2100201c 	xori	r4,r4,128
     8f8:	213fe004 	addi	r4,r4,-128
     8fc:	000094c0 	call	94c <alt_putchar>
     900:	81000003 	ldbu	r4,0(r16)
     904:	20803fcc 	andi	r2,r4,255
     908:	1080201c 	xori	r2,r2,128
     90c:	10bfe004 	addi	r2,r2,-128
     910:	103ff61e 	bne	r2,zero,8ec <alt_printf+0x17c>
     914:	89000003 	ldbu	r4,0(r17)
     918:	20803fcc 	andi	r2,r4,255
     91c:	1080201c 	xori	r2,r2,128
     920:	10bfe004 	addi	r2,r2,-128
     924:	103f9e1e 	bne	r2,zero,7a0 <alt_printf+0x30>
     928:	00000206 	br	934 <alt_printf+0x1c4>
     92c:	04000704 	movi	r16,28
     930:	003fd006 	br	874 <alt_printf+0x104>
     934:	dfc00417 	ldw	ra,16(sp)
     938:	dc800317 	ldw	r18,12(sp)
     93c:	dc400217 	ldw	r17,8(sp)
     940:	dc000117 	ldw	r16,4(sp)
     944:	dec00804 	addi	sp,sp,32
     948:	f800283a 	ret

0000094c <alt_putchar>:
     94c:	deffff04 	addi	sp,sp,-4
     950:	dfc00015 	stw	ra,0(sp)
     954:	00800034 	movhi	r2,0
     958:	109c3104 	addi	r2,r2,28868
     95c:	10800017 	ldw	r2,0(r2)
     960:	11400217 	ldw	r5,8(r2)
     964:	0002ccc0 	call	2ccc <putc>
     968:	dfc00017 	ldw	ra,0(sp)
     96c:	dec00104 	addi	sp,sp,4
     970:	f800283a 	ret

00000974 <alt_irq_init>:
     974:	deffff04 	addi	sp,sp,-4
     978:	dfc00015 	stw	ra,0(sp)
     97c:	0002ab40 	call	2ab4 <altera_nios2_qsys_irq_init>
     980:	00800044 	movi	r2,1
     984:	1001703a 	wrctl	status,r2
     988:	dfc00017 	ldw	ra,0(sp)
     98c:	dec00104 	addi	sp,sp,4
     990:	f800283a 	ret

00000994 <alt_sys_init>:
     994:	defffd04 	addi	sp,sp,-12
     998:	dfc00215 	stw	ra,8(sp)
     99c:	dc400115 	stw	r17,4(sp)
     9a0:	dc000015 	stw	r16,0(sp)
     9a4:	04000204 	movi	r16,8
     9a8:	01040034 	movhi	r4,4096
     9ac:	21080004 	addi	r4,r4,8192
     9b0:	000b883a 	mov	r5,zero
     9b4:	000d883a 	mov	r6,zero
     9b8:	800f883a 	mov	r7,r16
     9bc:	000123c0 	call	123c <alt_avalon_timer_sc_init>
     9c0:	04400034 	movhi	r17,0
     9c4:	8c550904 	addi	r17,r17,21540
     9c8:	8809883a 	mov	r4,r17
     9cc:	000b883a 	mov	r5,zero
     9d0:	800d883a 	mov	r6,r16
     9d4:	0000d380 	call	d38 <altera_avalon_jtag_uart_init>
     9d8:	04000034 	movhi	r16,0
     9dc:	841c2a04 	addi	r16,r16,28840
     9e0:	893ff604 	addi	r4,r17,-40
     9e4:	800b883a 	mov	r5,r16
     9e8:	000257c0 	call	257c <alt_dev_llist_insert>
     9ec:	01000034 	movhi	r4,0
     9f0:	21191704 	addi	r4,r4,25692
     9f4:	800b883a 	mov	r5,r16
     9f8:	000257c0 	call	257c <alt_dev_llist_insert>
     9fc:	01000034 	movhi	r4,0
     a00:	21192304 	addi	r4,r4,25740
     a04:	800b883a 	mov	r5,r16
     a08:	000257c0 	call	257c <alt_dev_llist_insert>
     a0c:	01000034 	movhi	r4,0
     a10:	21192f04 	addi	r4,r4,25788
     a14:	800b883a 	mov	r5,r16
     a18:	000257c0 	call	257c <alt_dev_llist_insert>
     a1c:	01000034 	movhi	r4,0
     a20:	21193a04 	addi	r4,r4,25832
     a24:	800b883a 	mov	r5,r16
     a28:	000257c0 	call	257c <alt_dev_llist_insert>
     a2c:	01000034 	movhi	r4,0
     a30:	21194504 	addi	r4,r4,25876
     a34:	800b883a 	mov	r5,r16
     a38:	000257c0 	call	257c <alt_dev_llist_insert>
     a3c:	01000034 	movhi	r4,0
     a40:	21195004 	addi	r4,r4,25920
     a44:	800b883a 	mov	r5,r16
     a48:	000257c0 	call	257c <alt_dev_llist_insert>
     a4c:	01000034 	movhi	r4,0
     a50:	21195b04 	addi	r4,r4,25964
     a54:	800b883a 	mov	r5,r16
     a58:	000257c0 	call	257c <alt_dev_llist_insert>
     a5c:	01000034 	movhi	r4,0
     a60:	21196604 	addi	r4,r4,26008
     a64:	800b883a 	mov	r5,r16
     a68:	000257c0 	call	257c <alt_dev_llist_insert>
     a6c:	01000034 	movhi	r4,0
     a70:	21197104 	addi	r4,r4,26052
     a74:	800b883a 	mov	r5,r16
     a78:	000257c0 	call	257c <alt_dev_llist_insert>
     a7c:	04400034 	movhi	r17,0
     a80:	8c597c04 	addi	r17,r17,26096
     a84:	8809883a 	mov	r4,r17
     a88:	00015a80 	call	15a8 <alt_up_ps2_init>
     a8c:	8809883a 	mov	r4,r17
     a90:	800b883a 	mov	r5,r16
     a94:	000257c0 	call	257c <alt_dev_llist_insert>
     a98:	01000034 	movhi	r4,0
     a9c:	21198a04 	addi	r4,r4,26152
     aa0:	800b883a 	mov	r5,r16
     aa4:	000257c0 	call	257c <alt_dev_llist_insert>
     aa8:	01000034 	movhi	r4,0
     aac:	21199504 	addi	r4,r4,26196
     ab0:	20800a17 	ldw	r2,40(r4)
     ab4:	10800104 	addi	r2,r2,4
     ab8:	10c0000b 	ldhu	r3,0(r2)
     abc:	20c00c15 	stw	r3,48(r4)
     ac0:	10800017 	ldw	r2,0(r2)
     ac4:	100ad43a 	srli	r5,r2,16
     ac8:	21400d15 	stw	r5,52(r4)
     acc:	00801004 	movi	r2,64
     ad0:	10c00436 	bltu	r2,r3,ae4 <alt_sys_init+0x150>
     ad4:	00800fc4 	movi	r2,63
     ad8:	20800f15 	stw	r2,60(r4)
     adc:	00800184 	movi	r2,6
     ae0:	20801015 	stw	r2,64(r4)
     ae4:	00800804 	movi	r2,32
     ae8:	11400436 	bltu	r2,r5,afc <alt_sys_init+0x168>
     aec:	00c007c4 	movi	r3,31
     af0:	00800034 	movhi	r2,0
     af4:	10999504 	addi	r2,r2,26196
     af8:	10c01115 	stw	r3,68(r2)
     afc:	04000034 	movhi	r16,0
     b00:	84199504 	addi	r16,r16,26196
     b04:	8009883a 	mov	r4,r16
     b08:	00019600 	call	1960 <alt_up_char_buffer_init>
     b0c:	8009883a 	mov	r4,r16
     b10:	01400034 	movhi	r5,0
     b14:	295c2a04 	addi	r5,r5,28840
     b18:	000257c0 	call	257c <alt_dev_llist_insert>
     b1c:	01800034 	movhi	r6,0
     b20:	3199a704 	addi	r6,r6,26268
     b24:	30c00a17 	ldw	r3,40(r6)
     b28:	18800017 	ldw	r2,0(r3)
     b2c:	30800b15 	stw	r2,44(r6)
     b30:	18800117 	ldw	r2,4(r3)
     b34:	30800c15 	stw	r2,48(r6)
     b38:	19000204 	addi	r4,r3,8
     b3c:	2080000b 	ldhu	r2,0(r4)
     b40:	30800f15 	stw	r2,60(r6)
     b44:	20800017 	ldw	r2,0(r4)
     b48:	1004d43a 	srli	r2,r2,16
     b4c:	30801015 	stw	r2,64(r6)
     b50:	18c00304 	addi	r3,r3,12
     b54:	18800017 	ldw	r2,0(r3)
     b58:	1005d07a 	srai	r2,r2,1
     b5c:	01000044 	movi	r4,1
     b60:	1104703a 	and	r2,r2,r4
     b64:	30800d15 	stw	r2,52(r6)
     b68:	18800017 	ldw	r2,0(r3)
     b6c:	1005d13a 	srai	r2,r2,4
     b70:	114003cc 	andi	r5,r2,15
     b74:	31400e15 	stw	r5,56(r6)
     b78:	1a000017 	ldw	r8,0(r3)
     b7c:	400ed43a 	srli	r7,r8,16
     b80:	2900021e 	bne	r5,r4,b8c <alt_sys_init+0x1f8>
     b84:	30001115 	stw	zero,68(r6)
     b88:	00000b06 	br	bb8 <alt_sys_init+0x224>
     b8c:	00800084 	movi	r2,2
     b90:	2880051e 	bne	r5,r2,ba8 <alt_sys_init+0x214>
     b94:	00c00044 	movi	r3,1
     b98:	00800034 	movhi	r2,0
     b9c:	1099a704 	addi	r2,r2,26268
     ba0:	10c01115 	stw	r3,68(r2)
     ba4:	00000406 	br	bb8 <alt_sys_init+0x224>
     ba8:	00c00084 	movi	r3,2
     bac:	00800034 	movhi	r2,0
     bb0:	1099a704 	addi	r2,r2,26268
     bb4:	10c01115 	stw	r3,68(r2)
     bb8:	01000034 	movhi	r4,0
     bbc:	2119a704 	addi	r4,r4,26268
     bc0:	38c03fcc 	andi	r3,r7,255
     bc4:	01800804 	movi	r6,32
     bc8:	30c5c83a 	sub	r2,r6,r3
     bcc:	017fffc4 	movi	r5,-1
     bd0:	2884d83a 	srl	r2,r5,r2
     bd4:	20801215 	stw	r2,72(r4)
     bd8:	20801117 	ldw	r2,68(r4)
     bdc:	1887883a 	add	r3,r3,r2
     be0:	20c01315 	stw	r3,76(r4)
     be4:	4004d63a 	srli	r2,r8,24
     be8:	308dc83a 	sub	r6,r6,r2
     bec:	298ad83a 	srl	r5,r5,r6
     bf0:	21401415 	stw	r5,80(r4)
     bf4:	01400034 	movhi	r5,0
     bf8:	295c2a04 	addi	r5,r5,28840
     bfc:	000257c0 	call	257c <alt_dev_llist_insert>
     c00:	dfc00217 	ldw	ra,8(sp)
     c04:	dc400117 	ldw	r17,4(sp)
     c08:	dc000017 	ldw	r16,0(sp)
     c0c:	dec00304 	addi	sp,sp,12
     c10:	f800283a 	ret

00000c14 <altera_avalon_jtag_uart_ioctl_fd>:
     c14:	deffff04 	addi	sp,sp,-4
     c18:	dfc00015 	stw	ra,0(sp)
     c1c:	21000017 	ldw	r4,0(r4)
     c20:	21000a04 	addi	r4,r4,40
     c24:	0000ee40 	call	ee4 <altera_avalon_jtag_uart_ioctl>
     c28:	dfc00017 	ldw	ra,0(sp)
     c2c:	dec00104 	addi	sp,sp,4
     c30:	f800283a 	ret

00000c34 <altera_avalon_jtag_uart_close_fd>:
     c34:	deffff04 	addi	sp,sp,-4
     c38:	dfc00015 	stw	ra,0(sp)
     c3c:	2005883a 	mov	r2,r4
     c40:	21000017 	ldw	r4,0(r4)
     c44:	21000a04 	addi	r4,r4,40
     c48:	11400217 	ldw	r5,8(r2)
     c4c:	0000cac0 	call	cac <altera_avalon_jtag_uart_close>
     c50:	dfc00017 	ldw	ra,0(sp)
     c54:	dec00104 	addi	sp,sp,4
     c58:	f800283a 	ret

00000c5c <altera_avalon_jtag_uart_write_fd>:
     c5c:	deffff04 	addi	sp,sp,-4
     c60:	dfc00015 	stw	ra,0(sp)
     c64:	2005883a 	mov	r2,r4
     c68:	21000017 	ldw	r4,0(r4)
     c6c:	21000a04 	addi	r4,r4,40
     c70:	11c00217 	ldw	r7,8(r2)
     c74:	00010c00 	call	10c0 <altera_avalon_jtag_uart_write>
     c78:	dfc00017 	ldw	ra,0(sp)
     c7c:	dec00104 	addi	sp,sp,4
     c80:	f800283a 	ret

00000c84 <altera_avalon_jtag_uart_read_fd>:
     c84:	deffff04 	addi	sp,sp,-4
     c88:	dfc00015 	stw	ra,0(sp)
     c8c:	2005883a 	mov	r2,r4
     c90:	21000017 	ldw	r4,0(r4)
     c94:	21000a04 	addi	r4,r4,40
     c98:	11c00217 	ldw	r7,8(r2)
     c9c:	0000f580 	call	f58 <altera_avalon_jtag_uart_read>
     ca0:	dfc00017 	ldw	ra,0(sp)
     ca4:	dec00104 	addi	sp,sp,4
     ca8:	f800283a 	ret

00000cac <altera_avalon_jtag_uart_close>:
     cac:	21800c17 	ldw	r6,48(r4)
     cb0:	2950000c 	andi	r5,r5,16384
     cb4:	280b003a 	cmpeq	r5,r5,zero
     cb8:	00000306 	br	cc8 <altera_avalon_jtag_uart_close+0x1c>
     cbc:	2800021e 	bne	r5,zero,cc8 <altera_avalon_jtag_uart_close+0x1c>
     cc0:	00bffd44 	movi	r2,-11
     cc4:	f800283a 	ret
     cc8:	20800d17 	ldw	r2,52(r4)
     ccc:	11800326 	beq	r2,r6,cdc <altera_avalon_jtag_uart_close+0x30>
     cd0:	20c00917 	ldw	r3,36(r4)
     cd4:	20800117 	ldw	r2,4(r4)
     cd8:	18bff836 	bltu	r3,r2,cbc <altera_avalon_jtag_uart_close+0x10>
     cdc:	0005883a 	mov	r2,zero
     ce0:	f800283a 	ret

00000ce4 <altera_avalon_jtag_uart_timeout>:
     ce4:	20800017 	ldw	r2,0(r4)
     ce8:	10c00104 	addi	r3,r2,4
     cec:	18800037 	ldwio	r2,0(r3)
     cf0:	01410004 	movi	r5,1024
     cf4:	1144703a 	and	r2,r2,r5
     cf8:	10000526 	beq	r2,zero,d10 <altera_avalon_jtag_uart_timeout+0x2c>
     cfc:	20800817 	ldw	r2,32(r4)
     d00:	1144b03a 	or	r2,r2,r5
     d04:	18800035 	stwio	r2,0(r3)
     d08:	20000915 	stw	zero,36(r4)
     d0c:	00000606 	br	d28 <altera_avalon_jtag_uart_timeout+0x44>
     d10:	20c00917 	ldw	r3,36(r4)
     d14:	00a00034 	movhi	r2,32768
     d18:	10bfff04 	addi	r2,r2,-4
     d1c:	10c00236 	bltu	r2,r3,d28 <altera_avalon_jtag_uart_timeout+0x44>
     d20:	18800044 	addi	r2,r3,1
     d24:	20800915 	stw	r2,36(r4)
     d28:	00800074 	movhi	r2,1
     d2c:	10a37104 	addi	r2,r2,-29244
     d30:	10800017 	ldw	r2,0(r2)
     d34:	f800283a 	ret

00000d38 <altera_avalon_jtag_uart_init>:
     d38:	defffe04 	addi	sp,sp,-8
     d3c:	dfc00115 	stw	ra,4(sp)
     d40:	dc000015 	stw	r16,0(sp)
     d44:	2021883a 	mov	r16,r4
     d48:	00c00044 	movi	r3,1
     d4c:	20c00815 	stw	r3,32(r4)
     d50:	20800017 	ldw	r2,0(r4)
     d54:	10c00135 	stwio	r3,4(r2)
     d58:	3009883a 	mov	r4,r6
     d5c:	800b883a 	mov	r5,r16
     d60:	01800034 	movhi	r6,0
     d64:	31836c04 	addi	r6,r6,3504
     d68:	00027780 	call	2778 <alt_irq_register>
     d6c:	80000915 	stw	zero,36(r16)
     d70:	81000204 	addi	r4,r16,8
     d74:	00800074 	movhi	r2,1
     d78:	10a37104 	addi	r2,r2,-29244
     d7c:	11400017 	ldw	r5,0(r2)
     d80:	01800034 	movhi	r6,0
     d84:	31833904 	addi	r6,r6,3300
     d88:	800f883a 	mov	r7,r16
     d8c:	00024000 	call	2400 <alt_alarm_start>
     d90:	1000030e 	bge	r2,zero,da0 <altera_avalon_jtag_uart_init+0x68>
     d94:	00a00034 	movhi	r2,32768
     d98:	10bfffc4 	addi	r2,r2,-1
     d9c:	80800115 	stw	r2,4(r16)
     da0:	dfc00117 	ldw	ra,4(sp)
     da4:	dc000017 	ldw	r16,0(sp)
     da8:	dec00204 	addi	sp,sp,8
     dac:	f800283a 	ret

00000db0 <altera_avalon_jtag_uart_irq>:
     db0:	22000017 	ldw	r8,0(r4)
     db4:	03800104 	movi	r14,4
     db8:	4399883a 	add	r12,r8,r14
     dbc:	037ffff4 	movhi	r13,65535
     dc0:	62c00037 	ldwio	r11,0(r12)
     dc4:	5880c00c 	andi	r2,r11,768
     dc8:	10004526 	beq	r2,zero,ee0 <altera_avalon_jtag_uart_irq+0x130>
     dcc:	5880400c 	andi	r2,r11,256
     dd0:	10002126 	beq	r2,zero,e58 <altera_avalon_jtag_uart_irq+0xa8>
     dd4:	20800a17 	ldw	r2,40(r4)
     dd8:	10800044 	addi	r2,r2,1
     ddc:	1081ffcc 	andi	r2,r2,2047
     de0:	20c00b17 	ldw	r3,44(r4)
     de4:	10c01626 	beq	r2,r3,e40 <altera_avalon_jtag_uart_irq+0x90>
     de8:	02a00014 	movui	r10,32768
     dec:	02400e04 	movi	r9,56
     df0:	01c00044 	movi	r7,1
     df4:	0181ffc4 	movi	r6,2047
     df8:	41400037 	ldwio	r5,0(r8)
     dfc:	2a84703a 	and	r2,r5,r10
     e00:	10000d26 	beq	r2,zero,e38 <altera_avalon_jtag_uart_irq+0x88>
     e04:	20800a17 	ldw	r2,40(r4)
     e08:	1105883a 	add	r2,r2,r4
     e0c:	1245883a 	add	r2,r2,r9
     e10:	11400005 	stb	r5,0(r2)
     e14:	20800a17 	ldw	r2,40(r4)
     e18:	11c5883a 	add	r2,r2,r7
     e1c:	1184703a 	and	r2,r2,r6
     e20:	20800a15 	stw	r2,40(r4)
     e24:	20800a17 	ldw	r2,40(r4)
     e28:	11c5883a 	add	r2,r2,r7
     e2c:	1184703a 	and	r2,r2,r6
     e30:	20c00b17 	ldw	r3,44(r4)
     e34:	10fff01e 	bne	r2,r3,df8 <altera_avalon_jtag_uart_irq+0x48>
     e38:	2b44703a 	and	r2,r5,r13
     e3c:	10000626 	beq	r2,zero,e58 <altera_avalon_jtag_uart_irq+0xa8>
     e40:	20800817 	ldw	r2,32(r4)
     e44:	00ffff84 	movi	r3,-2
     e48:	10c4703a 	and	r2,r2,r3
     e4c:	20800815 	stw	r2,32(r4)
     e50:	60800035 	stwio	r2,0(r12)
     e54:	60800037 	ldwio	r2,0(r12)
     e58:	5880800c 	andi	r2,r11,512
     e5c:	103fd826 	beq	r2,zero,dc0 <altera_avalon_jtag_uart_irq+0x10>
     e60:	5b44703a 	and	r2,r11,r13
     e64:	100ad43a 	srli	r5,r2,16
     e68:	283fd526 	beq	r5,zero,dc0 <altera_avalon_jtag_uart_irq+0x10>
     e6c:	20c00d17 	ldw	r3,52(r4)
     e70:	20800c17 	ldw	r2,48(r4)
     e74:	18801126 	beq	r3,r2,ebc <altera_avalon_jtag_uart_irq+0x10c>
     e78:	02420e04 	movi	r9,2104
     e7c:	01800044 	movi	r6,1
     e80:	01c1ffc4 	movi	r7,2047
     e84:	20800d17 	ldw	r2,52(r4)
     e88:	1105883a 	add	r2,r2,r4
     e8c:	1245883a 	add	r2,r2,r9
     e90:	10800007 	ldb	r2,0(r2)
     e94:	40800035 	stwio	r2,0(r8)
     e98:	20800d17 	ldw	r2,52(r4)
     e9c:	1185883a 	add	r2,r2,r6
     ea0:	11c4703a 	and	r2,r2,r7
     ea4:	20800d15 	stw	r2,52(r4)
     ea8:	298bc83a 	sub	r5,r5,r6
     eac:	283fc426 	beq	r5,zero,dc0 <altera_avalon_jtag_uart_irq+0x10>
     eb0:	20c00d17 	ldw	r3,52(r4)
     eb4:	20800c17 	ldw	r2,48(r4)
     eb8:	18bff21e 	bne	r3,r2,e84 <altera_avalon_jtag_uart_irq+0xd4>
     ebc:	20c00817 	ldw	r3,32(r4)
     ec0:	00bfff44 	movi	r2,-3
     ec4:	1886703a 	and	r3,r3,r2
     ec8:	20c00815 	stw	r3,32(r4)
     ecc:	20800017 	ldw	r2,0(r4)
     ed0:	1385883a 	add	r2,r2,r14
     ed4:	10c00035 	stwio	r3,0(r2)
     ed8:	60800037 	ldwio	r2,0(r12)
     edc:	003fb806 	br	dc0 <altera_avalon_jtag_uart_irq+0x10>
     ee0:	f800283a 	ret

00000ee4 <altera_avalon_jtag_uart_ioctl>:
     ee4:	009a8044 	movi	r2,27137
     ee8:	28800326 	beq	r5,r2,ef8 <altera_avalon_jtag_uart_ioctl+0x14>
     eec:	009a8084 	movi	r2,27138
     ef0:	2880171e 	bne	r5,r2,f50 <altera_avalon_jtag_uart_ioctl+0x6c>
     ef4:	00000d06 	br	f2c <altera_avalon_jtag_uart_ioctl+0x48>
     ef8:	20c00117 	ldw	r3,4(r4)
     efc:	00a00034 	movhi	r2,32768
     f00:	10bfffc4 	addi	r2,r2,-1
     f04:	18801226 	beq	r3,r2,f50 <altera_avalon_jtag_uart_ioctl+0x6c>
     f08:	31800017 	ldw	r6,0(r6)
     f0c:	30ffff84 	addi	r3,r6,-2
     f10:	10bfff44 	addi	r2,r2,-3
     f14:	10c0022e 	bgeu	r2,r3,f20 <altera_avalon_jtag_uart_ioctl+0x3c>
     f18:	01a00034 	movhi	r6,32768
     f1c:	31bfff84 	addi	r6,r6,-2
     f20:	21800115 	stw	r6,4(r4)
     f24:	0005883a 	mov	r2,zero
     f28:	f800283a 	ret
     f2c:	20c00117 	ldw	r3,4(r4)
     f30:	00a00034 	movhi	r2,32768
     f34:	10bfffc4 	addi	r2,r2,-1
     f38:	18800526 	beq	r3,r2,f50 <altera_avalon_jtag_uart_ioctl+0x6c>
     f3c:	20800917 	ldw	r2,36(r4)
     f40:	10c5803a 	cmpltu	r2,r2,r3
     f44:	30800015 	stw	r2,0(r6)
     f48:	0005883a 	mov	r2,zero
     f4c:	f800283a 	ret
     f50:	00bff9c4 	movi	r2,-25
     f54:	f800283a 	ret

00000f58 <altera_avalon_jtag_uart_read>:
     f58:	defff604 	addi	sp,sp,-40
     f5c:	dfc00915 	stw	ra,36(sp)
     f60:	df000815 	stw	fp,32(sp)
     f64:	ddc00715 	stw	r23,28(sp)
     f68:	dd800615 	stw	r22,24(sp)
     f6c:	dd400515 	stw	r21,20(sp)
     f70:	dd000415 	stw	r20,16(sp)
     f74:	dcc00315 	stw	r19,12(sp)
     f78:	dc800215 	stw	r18,8(sp)
     f7c:	dc400115 	stw	r17,4(sp)
     f80:	dc000015 	stw	r16,0(sp)
     f84:	2025883a 	mov	r18,r4
     f88:	282f883a 	mov	r23,r5
     f8c:	3027883a 	mov	r19,r6
     f90:	3839883a 	mov	fp,r7
     f94:	0180220e 	bge	zero,r6,1020 <altera_avalon_jtag_uart_read+0xc8>
     f98:	b82b883a 	mov	r21,r23
     f9c:	95800a17 	ldw	r22,40(r18)
     fa0:	94400b17 	ldw	r17,44(r18)
     fa4:	b4400236 	bltu	r22,r17,fb0 <altera_avalon_jtag_uart_read+0x58>
     fa8:	b461c83a 	sub	r16,r22,r17
     fac:	00000206 	br	fb8 <altera_avalon_jtag_uart_read+0x60>
     fb0:	00820004 	movi	r2,2048
     fb4:	1461c83a 	sub	r16,r2,r17
     fb8:	80000d26 	beq	r16,zero,ff0 <altera_avalon_jtag_uart_read+0x98>
     fbc:	9829883a 	mov	r20,r19
     fc0:	9c001d36 	bltu	r19,r16,1038 <altera_avalon_jtag_uart_read+0xe0>
     fc4:	91400e04 	addi	r5,r18,56
     fc8:	a809883a 	mov	r4,r21
     fcc:	2c4b883a 	add	r5,r5,r17
     fd0:	800d883a 	mov	r6,r16
     fd4:	00005bc0 	call	5bc <memcpy>
     fd8:	ac2b883a 	add	r21,r21,r16
     fdc:	9c27c83a 	sub	r19,r19,r16
     fe0:	8445883a 	add	r2,r16,r17
     fe4:	1081ffcc 	andi	r2,r2,2047
     fe8:	90800b15 	stw	r2,44(r18)
     fec:	04ffeb16 	blt	zero,r19,f9c <altera_avalon_jtag_uart_read+0x44>
     ff0:	adc01c1e 	bne	r21,r23,1064 <altera_avalon_jtag_uart_read+0x10c>
     ff4:	e090000c 	andi	r2,fp,16384
     ff8:	10000d1e 	bne	r2,zero,1030 <altera_avalon_jtag_uart_read+0xd8>
     ffc:	90800a17 	ldw	r2,40(r18)
    1000:	b080031e 	bne	r22,r2,1010 <altera_avalon_jtag_uart_read+0xb8>
    1004:	90c00917 	ldw	r3,36(r18)
    1008:	90800117 	ldw	r2,4(r18)
    100c:	18bffb36 	bltu	r3,r2,ffc <altera_avalon_jtag_uart_read+0xa4>
    1010:	90800a17 	ldw	r2,40(r18)
    1014:	b0800426 	beq	r22,r2,1028 <altera_avalon_jtag_uart_read+0xd0>
    1018:	04c0030e 	bge	zero,r19,1028 <altera_avalon_jtag_uart_read+0xd0>
    101c:	003fde06 	br	f98 <altera_avalon_jtag_uart_read+0x40>
    1020:	3890000c 	andi	r2,r7,16384
    1024:	1000021e 	bne	r2,zero,1030 <altera_avalon_jtag_uart_read+0xd8>
    1028:	00bffec4 	movi	r2,-5
    102c:	00001806 	br	1090 <altera_avalon_jtag_uart_read+0x138>
    1030:	00bffd44 	movi	r2,-11
    1034:	00001606 	br	1090 <altera_avalon_jtag_uart_read+0x138>
    1038:	91400e04 	addi	r5,r18,56
    103c:	a809883a 	mov	r4,r21
    1040:	894b883a 	add	r5,r17,r5
    1044:	980d883a 	mov	r6,r19
    1048:	00005bc0 	call	5bc <memcpy>
    104c:	aceb883a 	add	r21,r21,r19
    1050:	0027883a 	mov	r19,zero
    1054:	a445883a 	add	r2,r20,r17
    1058:	1081ffcc 	andi	r2,r2,2047
    105c:	90800b15 	stw	r2,44(r18)
    1060:	003fe306 	br	ff0 <altera_avalon_jtag_uart_read+0x98>
    1064:	0009303a 	rdctl	r4,status
    1068:	00bfff84 	movi	r2,-2
    106c:	2084703a 	and	r2,r4,r2
    1070:	1001703a 	wrctl	status,r2
    1074:	90800817 	ldw	r2,32(r18)
    1078:	10800054 	ori	r2,r2,1
    107c:	90800815 	stw	r2,32(r18)
    1080:	90c00017 	ldw	r3,0(r18)
    1084:	18800135 	stwio	r2,4(r3)
    1088:	2001703a 	wrctl	status,r4
    108c:	adc5c83a 	sub	r2,r21,r23
    1090:	dfc00917 	ldw	ra,36(sp)
    1094:	df000817 	ldw	fp,32(sp)
    1098:	ddc00717 	ldw	r23,28(sp)
    109c:	dd800617 	ldw	r22,24(sp)
    10a0:	dd400517 	ldw	r21,20(sp)
    10a4:	dd000417 	ldw	r20,16(sp)
    10a8:	dcc00317 	ldw	r19,12(sp)
    10ac:	dc800217 	ldw	r18,8(sp)
    10b0:	dc400117 	ldw	r17,4(sp)
    10b4:	dc000017 	ldw	r16,0(sp)
    10b8:	dec00a04 	addi	sp,sp,40
    10bc:	f800283a 	ret

000010c0 <altera_avalon_jtag_uart_write>:
    10c0:	defff804 	addi	sp,sp,-32
    10c4:	dfc00715 	stw	ra,28(sp)
    10c8:	dd800615 	stw	r22,24(sp)
    10cc:	dd400515 	stw	r21,20(sp)
    10d0:	dd000415 	stw	r20,16(sp)
    10d4:	dcc00315 	stw	r19,12(sp)
    10d8:	dc800215 	stw	r18,8(sp)
    10dc:	dc400115 	stw	r17,4(sp)
    10e0:	dc000015 	stw	r16,0(sp)
    10e4:	2021883a 	mov	r16,r4
    10e8:	282d883a 	mov	r22,r5
    10ec:	3011883a 	mov	r8,r6
    10f0:	382b883a 	mov	r21,r7
    10f4:	01800616 	blt	zero,r6,1110 <altera_avalon_jtag_uart_write+0x50>
    10f8:	2829883a 	mov	r20,r5
    10fc:	00002106 	br	1184 <altera_avalon_jtag_uart_write+0xc4>
    1100:	a585c83a 	sub	r2,r20,r22
    1104:	00004306 	br	1214 <altera_avalon_jtag_uart_write+0x154>
    1108:	00bffd44 	movi	r2,-11
    110c:	00004106 	br	1214 <altera_avalon_jtag_uart_write+0x154>
    1110:	2829883a 	mov	r20,r5
    1114:	84800c17 	ldw	r18,48(r16)
    1118:	81400d17 	ldw	r5,52(r16)
    111c:	9140032e 	bgeu	r18,r5,112c <altera_avalon_jtag_uart_write+0x6c>
    1120:	2c85c83a 	sub	r2,r5,r18
    1124:	11bfffc4 	addi	r6,r2,-1
    1128:	00000606 	br	1144 <altera_avalon_jtag_uart_write+0x84>
    112c:	28000326 	beq	r5,zero,113c <altera_avalon_jtag_uart_write+0x7c>
    1130:	00820004 	movi	r2,2048
    1134:	148dc83a 	sub	r6,r2,r18
    1138:	00000206 	br	1144 <altera_avalon_jtag_uart_write+0x84>
    113c:	0081ffc4 	movi	r2,2047
    1140:	148dc83a 	sub	r6,r2,r18
    1144:	30002626 	beq	r6,zero,11e0 <altera_avalon_jtag_uart_write+0x120>
    1148:	4027883a 	mov	r19,r8
    114c:	3023883a 	mov	r17,r6
    1150:	4180012e 	bgeu	r8,r6,1158 <altera_avalon_jtag_uart_write+0x98>
    1154:	4023883a 	mov	r17,r8
    1158:	81020e04 	addi	r4,r16,2104
    115c:	2489883a 	add	r4,r4,r18
    1160:	a00b883a 	mov	r5,r20
    1164:	880d883a 	mov	r6,r17
    1168:	00005bc0 	call	5bc <memcpy>
    116c:	a469883a 	add	r20,r20,r17
    1170:	9c51c83a 	sub	r8,r19,r17
    1174:	9445883a 	add	r2,r18,r17
    1178:	1081ffcc 	andi	r2,r2,2047
    117c:	80800c15 	stw	r2,48(r16)
    1180:	023fe416 	blt	zero,r8,1114 <altera_avalon_jtag_uart_write+0x54>
    1184:	0009303a 	rdctl	r4,status
    1188:	00bfff84 	movi	r2,-2
    118c:	2084703a 	and	r2,r4,r2
    1190:	1001703a 	wrctl	status,r2
    1194:	80800817 	ldw	r2,32(r16)
    1198:	10800094 	ori	r2,r2,2
    119c:	80800815 	stw	r2,32(r16)
    11a0:	80c00017 	ldw	r3,0(r16)
    11a4:	18800135 	stwio	r2,4(r3)
    11a8:	2001703a 	wrctl	status,r4
    11ac:	00000706 	br	11cc <altera_avalon_jtag_uart_write+0x10c>
    11b0:	80800d17 	ldw	r2,52(r16)
    11b4:	1140031e 	bne	r2,r5,11c4 <altera_avalon_jtag_uart_write+0x104>
    11b8:	80c00917 	ldw	r3,36(r16)
    11bc:	80800117 	ldw	r2,4(r16)
    11c0:	18bffb36 	bltu	r3,r2,11b0 <altera_avalon_jtag_uart_write+0xf0>
    11c4:	80800d17 	ldw	r2,52(r16)
    11c8:	117fed1e 	bne	r2,r5,1180 <altera_avalon_jtag_uart_write+0xc0>
    11cc:	b53fcc1e 	bne	r22,r20,1100 <altera_avalon_jtag_uart_write+0x40>
    11d0:	a890000c 	andi	r2,r21,16384
    11d4:	103fcc1e 	bne	r2,zero,1108 <altera_avalon_jtag_uart_write+0x48>
    11d8:	00bffec4 	movi	r2,-5
    11dc:	00000d06 	br	1214 <altera_avalon_jtag_uart_write+0x154>
    11e0:	0009303a 	rdctl	r4,status
    11e4:	00bfff84 	movi	r2,-2
    11e8:	2084703a 	and	r2,r4,r2
    11ec:	1001703a 	wrctl	status,r2
    11f0:	80800817 	ldw	r2,32(r16)
    11f4:	10800094 	ori	r2,r2,2
    11f8:	80800815 	stw	r2,32(r16)
    11fc:	80c00017 	ldw	r3,0(r16)
    1200:	18800135 	stwio	r2,4(r3)
    1204:	2001703a 	wrctl	status,r4
    1208:	a890000c 	andi	r2,r21,16384
    120c:	103fe826 	beq	r2,zero,11b0 <altera_avalon_jtag_uart_write+0xf0>
    1210:	003fee06 	br	11cc <altera_avalon_jtag_uart_write+0x10c>
    1214:	dfc00717 	ldw	ra,28(sp)
    1218:	dd800617 	ldw	r22,24(sp)
    121c:	dd400517 	ldw	r21,20(sp)
    1220:	dd000417 	ldw	r20,16(sp)
    1224:	dcc00317 	ldw	r19,12(sp)
    1228:	dc800217 	ldw	r18,8(sp)
    122c:	dc400117 	ldw	r17,4(sp)
    1230:	dc000017 	ldw	r16,0(sp)
    1234:	dec00804 	addi	sp,sp,32
    1238:	f800283a 	ret

0000123c <alt_avalon_timer_sc_init>:
    123c:	deffff04 	addi	sp,sp,-4
    1240:	dfc00015 	stw	ra,0(sp)
    1244:	200b883a 	mov	r5,r4
    1248:	00c00074 	movhi	r3,1
    124c:	18e37104 	addi	r3,r3,-29244
    1250:	18800017 	ldw	r2,0(r3)
    1254:	1000011e 	bne	r2,zero,125c <alt_avalon_timer_sc_init+0x20>
    1258:	19c00015 	stw	r7,0(r3)
    125c:	008001c4 	movi	r2,7
    1260:	28800135 	stwio	r2,4(r5)
    1264:	3009883a 	mov	r4,r6
    1268:	01800034 	movhi	r6,0
    126c:	3184a004 	addi	r6,r6,4736
    1270:	00027780 	call	2778 <alt_irq_register>
    1274:	dfc00017 	ldw	ra,0(sp)
    1278:	dec00104 	addi	sp,sp,4
    127c:	f800283a 	ret

00001280 <alt_avalon_timer_sc_irq>:
    1280:	defffe04 	addi	sp,sp,-8
    1284:	dfc00115 	stw	ra,4(sp)
    1288:	dc000015 	stw	r16,0(sp)
    128c:	20000035 	stwio	zero,0(r4)
    1290:	20800137 	ldwio	r2,4(r4)
    1294:	0021303a 	rdctl	r16,status
    1298:	00bfff84 	movi	r2,-2
    129c:	8084703a 	and	r2,r16,r2
    12a0:	1001703a 	wrctl	status,r2
    12a4:	0002a080 	call	2a08 <alt_tick>
    12a8:	8001703a 	wrctl	status,r16
    12ac:	dfc00117 	ldw	ra,4(sp)
    12b0:	dc000017 	ldw	r16,0(sp)
    12b4:	dec00204 	addi	sp,sp,8
    12b8:	f800283a 	ret

000012bc <alt_up_parallel_port_open_dev>:
    12bc:	deffff04 	addi	sp,sp,-4
    12c0:	dfc00015 	stw	ra,0(sp)
    12c4:	01400034 	movhi	r5,0
    12c8:	295c2a04 	addi	r5,r5,28840
    12cc:	00025ec0 	call	25ec <alt_find_dev>
    12d0:	dfc00017 	ldw	ra,0(sp)
    12d4:	dec00104 	addi	sp,sp,4
    12d8:	f800283a 	ret

000012dc <read_RI_bit>:
    12dc:	2080400c 	andi	r2,r4,256
    12e0:	1004c03a 	cmpne	r2,r2,zero
    12e4:	f800283a 	ret

000012e8 <read_RE_bit>:
    12e8:	2080004c 	andi	r2,r4,1
    12ec:	f800283a 	ret

000012f0 <read_CE_bit>:
    12f0:	2081000c 	andi	r2,r4,1024
    12f4:	1004c03a 	cmpne	r2,r2,zero
    12f8:	f800283a 	ret

000012fc <read_num_bytes_available>:
    12fc:	2004d43a 	srli	r2,r4,16
    1300:	f800283a 	ret

00001304 <read_data_valid>:
    1304:	20a0000c 	andi	r2,r4,32768
    1308:	1004c03a 	cmpne	r2,r2,zero
    130c:	f800283a 	ret

00001310 <read_data_byte>:
    1310:	20803fcc 	andi	r2,r4,255
    1314:	f800283a 	ret

00001318 <alt_up_ps2_open_dev>:
    1318:	deffff04 	addi	sp,sp,-4
    131c:	dfc00015 	stw	ra,0(sp)
    1320:	01400034 	movhi	r5,0
    1324:	295c2a04 	addi	r5,r5,28840
    1328:	00025ec0 	call	25ec <alt_find_dev>
    132c:	dfc00017 	ldw	ra,0(sp)
    1330:	dec00104 	addi	sp,sp,4
    1334:	f800283a 	ret

00001338 <alt_up_ps2_clear_fifo>:
    1338:	defffe04 	addi	sp,sp,-8
    133c:	dfc00115 	stw	ra,4(sp)
    1340:	dc000015 	stw	r16,0(sp)
    1344:	24000a17 	ldw	r16,40(r4)
    1348:	81000037 	ldwio	r4,0(r16)
    134c:	00012fc0 	call	12fc <read_num_bytes_available>
    1350:	10bfffcc 	andi	r2,r2,65535
    1354:	103ffc1e 	bne	r2,zero,1348 <alt_up_ps2_clear_fifo+0x10>
    1358:	dfc00117 	ldw	ra,4(sp)
    135c:	dc000017 	ldw	r16,0(sp)
    1360:	dec00204 	addi	sp,sp,8
    1364:	f800283a 	ret

00001368 <alt_up_ps2_read_data_byte>:
    1368:	defffd04 	addi	sp,sp,-12
    136c:	dfc00215 	stw	ra,8(sp)
    1370:	dc400115 	stw	r17,4(sp)
    1374:	dc000015 	stw	r16,0(sp)
    1378:	2823883a 	mov	r17,r5
    137c:	20800a17 	ldw	r2,40(r4)
    1380:	14000037 	ldwio	r16,0(r2)
    1384:	8009883a 	mov	r4,r16
    1388:	00013040 	call	1304 <read_data_valid>
    138c:	10803fcc 	andi	r2,r2,255
    1390:	1000021e 	bne	r2,zero,139c <alt_up_ps2_read_data_byte+0x34>
    1394:	00bfffc4 	movi	r2,-1
    1398:	00000406 	br	13ac <alt_up_ps2_read_data_byte+0x44>
    139c:	8009883a 	mov	r4,r16
    13a0:	00013100 	call	1310 <read_data_byte>
    13a4:	88800005 	stb	r2,0(r17)
    13a8:	0005883a 	mov	r2,zero
    13ac:	dfc00217 	ldw	ra,8(sp)
    13b0:	dc400117 	ldw	r17,4(sp)
    13b4:	dc000017 	ldw	r16,0(sp)
    13b8:	dec00304 	addi	sp,sp,12
    13bc:	f800283a 	ret

000013c0 <alt_up_ps2_read_data_byte_timeout>:
    13c0:	defffb04 	addi	sp,sp,-20
    13c4:	dfc00415 	stw	ra,16(sp)
    13c8:	dcc00315 	stw	r19,12(sp)
    13cc:	dc800215 	stw	r18,8(sp)
    13d0:	dc400115 	stw	r17,4(sp)
    13d4:	dc000015 	stw	r16,0(sp)
    13d8:	2025883a 	mov	r18,r4
    13dc:	2827883a 	mov	r19,r5
    13e0:	0023883a 	mov	r17,zero
    13e4:	90800a17 	ldw	r2,40(r18)
    13e8:	14000037 	ldwio	r16,0(r2)
    13ec:	8009883a 	mov	r4,r16
    13f0:	00013040 	call	1304 <read_data_valid>
    13f4:	10803fcc 	andi	r2,r2,255
    13f8:	10000526 	beq	r2,zero,1410 <alt_up_ps2_read_data_byte_timeout+0x50>
    13fc:	8009883a 	mov	r4,r16
    1400:	00013100 	call	1310 <read_data_byte>
    1404:	98800005 	stb	r2,0(r19)
    1408:	0005883a 	mov	r2,zero
    140c:	00000506 	br	1424 <alt_up_ps2_read_data_byte_timeout+0x64>
    1410:	8c400044 	addi	r17,r17,1
    1414:	90800c17 	ldw	r2,48(r18)
    1418:	103ff226 	beq	r2,zero,13e4 <alt_up_ps2_read_data_byte_timeout+0x24>
    141c:	147ff12e 	bgeu	r2,r17,13e4 <alt_up_ps2_read_data_byte_timeout+0x24>
    1420:	00bfe304 	movi	r2,-116
    1424:	dfc00417 	ldw	ra,16(sp)
    1428:	dcc00317 	ldw	r19,12(sp)
    142c:	dc800217 	ldw	r18,8(sp)
    1430:	dc400117 	ldw	r17,4(sp)
    1434:	dc000017 	ldw	r16,0(sp)
    1438:	dec00504 	addi	sp,sp,20
    143c:	f800283a 	ret

00001440 <alt_up_ps2_read_fd>:
    1440:	deffff04 	addi	sp,sp,-4
    1444:	dfc00015 	stw	ra,0(sp)
    1448:	21000017 	ldw	r4,0(r4)
    144c:	0180010e 	bge	zero,r6,1454 <alt_up_ps2_read_fd+0x14>
    1450:	003fff06 	br	1450 <alt_up_ps2_read_fd+0x10>
    1454:	00013c00 	call	13c0 <alt_up_ps2_read_data_byte_timeout>
    1458:	1005003a 	cmpeq	r2,r2,zero
    145c:	dfc00017 	ldw	ra,0(sp)
    1460:	dec00104 	addi	sp,sp,4
    1464:	f800283a 	ret

00001468 <alt_up_ps2_wait_for_ack>:
    1468:	defffc04 	addi	sp,sp,-16
    146c:	dfc00315 	stw	ra,12(sp)
    1470:	dc400215 	stw	r17,8(sp)
    1474:	dc000115 	stw	r16,4(sp)
    1478:	2021883a 	mov	r16,r4
    147c:	d8000005 	stb	zero,0(sp)
    1480:	04403e84 	movi	r17,250
    1484:	8009883a 	mov	r4,r16
    1488:	d80b883a 	mov	r5,sp
    148c:	00013c00 	call	13c0 <alt_up_ps2_read_data_byte_timeout>
    1490:	1007883a 	mov	r3,r2
    1494:	10803fcc 	andi	r2,r2,255
    1498:	1000041e 	bne	r2,zero,14ac <alt_up_ps2_wait_for_ack+0x44>
    149c:	d8800003 	ldbu	r2,0(sp)
    14a0:	147ff81e 	bne	r2,r17,1484 <alt_up_ps2_wait_for_ack+0x1c>
    14a4:	0005883a 	mov	r2,zero
    14a8:	00000106 	br	14b0 <alt_up_ps2_wait_for_ack+0x48>
    14ac:	18803fcc 	andi	r2,r3,255
    14b0:	dfc00317 	ldw	ra,12(sp)
    14b4:	dc400217 	ldw	r17,8(sp)
    14b8:	dc000117 	ldw	r16,4(sp)
    14bc:	dec00404 	addi	sp,sp,16
    14c0:	f800283a 	ret

000014c4 <alt_up_ps2_write_data_byte>:
    14c4:	deffff04 	addi	sp,sp,-4
    14c8:	dfc00015 	stw	ra,0(sp)
    14cc:	20800a17 	ldw	r2,40(r4)
    14d0:	29403fcc 	andi	r5,r5,255
    14d4:	11400025 	stbio	r5,0(r2)
    14d8:	20800a17 	ldw	r2,40(r4)
    14dc:	11000137 	ldwio	r4,4(r2)
    14e0:	00012f00 	call	12f0 <read_CE_bit>
    14e4:	10803fcc 	andi	r2,r2,255
    14e8:	10000226 	beq	r2,zero,14f4 <alt_up_ps2_write_data_byte+0x30>
    14ec:	00bffec4 	movi	r2,-5
    14f0:	00000106 	br	14f8 <alt_up_ps2_write_data_byte+0x34>
    14f4:	0005883a 	mov	r2,zero
    14f8:	dfc00017 	ldw	ra,0(sp)
    14fc:	dec00104 	addi	sp,sp,4
    1500:	f800283a 	ret

00001504 <alt_up_ps2_write_fd>:
    1504:	defffb04 	addi	sp,sp,-20
    1508:	dfc00415 	stw	ra,16(sp)
    150c:	dcc00315 	stw	r19,12(sp)
    1510:	dc800215 	stw	r18,8(sp)
    1514:	dc400115 	stw	r17,4(sp)
    1518:	dc000015 	stw	r16,0(sp)
    151c:	2827883a 	mov	r19,r5
    1520:	3025883a 	mov	r18,r6
    1524:	24400017 	ldw	r17,0(r4)
    1528:	01800216 	blt	zero,r6,1534 <alt_up_ps2_write_fd+0x30>
    152c:	0021883a 	mov	r16,zero
    1530:	00000806 	br	1554 <alt_up_ps2_write_fd+0x50>
    1534:	0021883a 	mov	r16,zero
    1538:	9c05883a 	add	r2,r19,r16
    153c:	8809883a 	mov	r4,r17
    1540:	11400003 	ldbu	r5,0(r2)
    1544:	00014c40 	call	14c4 <alt_up_ps2_write_data_byte>
    1548:	1000021e 	bne	r2,zero,1554 <alt_up_ps2_write_fd+0x50>
    154c:	84000044 	addi	r16,r16,1
    1550:	943ff91e 	bne	r18,r16,1538 <alt_up_ps2_write_fd+0x34>
    1554:	8005883a 	mov	r2,r16
    1558:	dfc00417 	ldw	ra,16(sp)
    155c:	dcc00317 	ldw	r19,12(sp)
    1560:	dc800217 	ldw	r18,8(sp)
    1564:	dc400117 	ldw	r17,4(sp)
    1568:	dc000017 	ldw	r16,0(sp)
    156c:	dec00504 	addi	sp,sp,20
    1570:	f800283a 	ret

00001574 <alt_up_ps2_write_data_byte_with_ack>:
    1574:	defffe04 	addi	sp,sp,-8
    1578:	dfc00115 	stw	ra,4(sp)
    157c:	dc000015 	stw	r16,0(sp)
    1580:	2021883a 	mov	r16,r4
    1584:	29403fcc 	andi	r5,r5,255
    1588:	00014c40 	call	14c4 <alt_up_ps2_write_data_byte>
    158c:	1000021e 	bne	r2,zero,1598 <alt_up_ps2_write_data_byte_with_ack+0x24>
    1590:	8009883a 	mov	r4,r16
    1594:	00014680 	call	1468 <alt_up_ps2_wait_for_ack>
    1598:	dfc00117 	ldw	ra,4(sp)
    159c:	dc000017 	ldw	r16,0(sp)
    15a0:	dec00204 	addi	sp,sp,8
    15a4:	f800283a 	ret

000015a8 <alt_up_ps2_init>:
    15a8:	defffd04 	addi	sp,sp,-12
    15ac:	dfc00215 	stw	ra,8(sp)
    15b0:	dc000115 	stw	r16,4(sp)
    15b4:	2021883a 	mov	r16,r4
    15b8:	01403fc4 	movi	r5,255
    15bc:	00015740 	call	1574 <alt_up_ps2_write_data_byte_with_ack>
    15c0:	1000171e 	bne	r2,zero,1620 <alt_up_ps2_init+0x78>
    15c4:	8009883a 	mov	r4,r16
    15c8:	d80b883a 	mov	r5,sp
    15cc:	00013c00 	call	13c0 <alt_up_ps2_read_data_byte_timeout>
    15d0:	1000131e 	bne	r2,zero,1620 <alt_up_ps2_init+0x78>
    15d4:	d8c00003 	ldbu	r3,0(sp)
    15d8:	00802a84 	movi	r2,170
    15dc:	1880101e 	bne	r3,r2,1620 <alt_up_ps2_init+0x78>
    15e0:	8009883a 	mov	r4,r16
    15e4:	d80b883a 	mov	r5,sp
    15e8:	00013c00 	call	13c0 <alt_up_ps2_read_data_byte_timeout>
    15ec:	1007883a 	mov	r3,r2
    15f0:	00bfe304 	movi	r2,-116
    15f4:	1880031e 	bne	r3,r2,1604 <alt_up_ps2_init+0x5c>
    15f8:	00800044 	movi	r2,1
    15fc:	80800d15 	stw	r2,52(r16)
    1600:	00000706 	br	1620 <alt_up_ps2_init+0x78>
    1604:	1800061e 	bne	r3,zero,1620 <alt_up_ps2_init+0x78>
    1608:	d8800003 	ldbu	r2,0(sp)
    160c:	1000041e 	bne	r2,zero,1620 <alt_up_ps2_init+0x78>
    1610:	80000d15 	stw	zero,52(r16)
    1614:	8009883a 	mov	r4,r16
    1618:	01403d04 	movi	r5,244
    161c:	00014c40 	call	14c4 <alt_up_ps2_write_data_byte>
    1620:	dfc00217 	ldw	ra,8(sp)
    1624:	dc000117 	ldw	r16,4(sp)
    1628:	dec00304 	addi	sp,sp,12
    162c:	f800283a 	ret

00001630 <alt_up_ps2_disable_read_interrupt>:
    1630:	20800a17 	ldw	r2,40(r4)
    1634:	10800104 	addi	r2,r2,4
    1638:	10c00037 	ldwio	r3,0(r2)
    163c:	013fff84 	movi	r4,-2
    1640:	1906703a 	and	r3,r3,r4
    1644:	10c00035 	stwio	r3,0(r2)
    1648:	f800283a 	ret

0000164c <alt_up_ps2_enable_read_interrupt>:
    164c:	20c00a17 	ldw	r3,40(r4)
    1650:	18c00104 	addi	r3,r3,4
    1654:	18800037 	ldwio	r2,0(r3)
    1658:	10800054 	ori	r2,r2,1
    165c:	18800035 	stwio	r2,0(r3)
    1660:	f800283a 	ret

00001664 <alt_up_rs232_check_parity>:
    1664:	200495ba 	slli	r2,r4,22
    1668:	1005d7fa 	srai	r2,r2,31
    166c:	f800283a 	ret

00001670 <alt_up_rs232_open_dev>:
    1670:	deffff04 	addi	sp,sp,-4
    1674:	dfc00015 	stw	ra,0(sp)
    1678:	01400034 	movhi	r5,0
    167c:	295c2a04 	addi	r5,r5,28840
    1680:	00025ec0 	call	25ec <alt_find_dev>
    1684:	dfc00017 	ldw	ra,0(sp)
    1688:	dec00104 	addi	sp,sp,4
    168c:	f800283a 	ret

00001690 <alt_up_rs232_read_data>:
    1690:	defffd04 	addi	sp,sp,-12
    1694:	dfc00215 	stw	ra,8(sp)
    1698:	dc400115 	stw	r17,4(sp)
    169c:	dc000015 	stw	r16,0(sp)
    16a0:	3023883a 	mov	r17,r6
    16a4:	20800a17 	ldw	r2,40(r4)
    16a8:	14000037 	ldwio	r16,0(r2)
    16ac:	2c000005 	stb	r16,0(r5)
    16b0:	8009883a 	mov	r4,r16
    16b4:	00016640 	call	1664 <alt_up_rs232_check_parity>
    16b8:	88800005 	stb	r2,0(r17)
    16bc:	8420000c 	andi	r16,r16,32768
    16c0:	8020d3fa 	srli	r16,r16,15
    16c4:	80bfffc4 	addi	r2,r16,-1
    16c8:	dfc00217 	ldw	ra,8(sp)
    16cc:	dc400117 	ldw	r17,4(sp)
    16d0:	dc000017 	ldw	r16,0(sp)
    16d4:	dec00304 	addi	sp,sp,12
    16d8:	f800283a 	ret

000016dc <alt_up_rs232_read_fd>:
    16dc:	defff904 	addi	sp,sp,-28
    16e0:	dfc00615 	stw	ra,24(sp)
    16e4:	dd000515 	stw	r20,20(sp)
    16e8:	dcc00415 	stw	r19,16(sp)
    16ec:	dc800315 	stw	r18,12(sp)
    16f0:	dc400215 	stw	r17,8(sp)
    16f4:	dc000115 	stw	r16,4(sp)
    16f8:	2821883a 	mov	r16,r5
    16fc:	3029883a 	mov	r20,r6
    1700:	24c00017 	ldw	r19,0(r4)
    1704:	3000021e 	bne	r6,zero,1710 <alt_up_rs232_read_fd+0x34>
    1708:	0025883a 	mov	r18,zero
    170c:	00000a06 	br	1738 <alt_up_rs232_read_fd+0x5c>
    1710:	0025883a 	mov	r18,zero
    1714:	04400044 	movi	r17,1
    1718:	800b883a 	mov	r5,r16
    171c:	8461883a 	add	r16,r16,r17
    1720:	9809883a 	mov	r4,r19
    1724:	d80d883a 	mov	r6,sp
    1728:	00016900 	call	1690 <alt_up_rs232_read_data>
    172c:	1000021e 	bne	r2,zero,1738 <alt_up_rs232_read_fd+0x5c>
    1730:	9465883a 	add	r18,r18,r17
    1734:	a4bff81e 	bne	r20,r18,1718 <alt_up_rs232_read_fd+0x3c>
    1738:	9005883a 	mov	r2,r18
    173c:	dfc00617 	ldw	ra,24(sp)
    1740:	dd000517 	ldw	r20,20(sp)
    1744:	dcc00417 	ldw	r19,16(sp)
    1748:	dc800317 	ldw	r18,12(sp)
    174c:	dc400217 	ldw	r17,8(sp)
    1750:	dc000117 	ldw	r16,4(sp)
    1754:	dec00704 	addi	sp,sp,28
    1758:	f800283a 	ret

0000175c <alt_up_rs232_get_available_space_in_write_FIFO>:
    175c:	20800a17 	ldw	r2,40(r4)
    1760:	10800137 	ldwio	r2,4(r2)
    1764:	1004d43a 	srli	r2,r2,16
    1768:	f800283a 	ret

0000176c <alt_up_rs232_write_data>:
    176c:	20800a17 	ldw	r2,40(r4)
    1770:	10c00037 	ldwio	r3,0(r2)
    1774:	29403fcc 	andi	r5,r5,255
    1778:	11400035 	stwio	r5,0(r2)
    177c:	0005883a 	mov	r2,zero
    1780:	f800283a 	ret

00001784 <alt_up_rs232_write_fd>:
    1784:	defffb04 	addi	sp,sp,-20
    1788:	dfc00415 	stw	ra,16(sp)
    178c:	dcc00315 	stw	r19,12(sp)
    1790:	dc800215 	stw	r18,8(sp)
    1794:	dc400115 	stw	r17,4(sp)
    1798:	dc000015 	stw	r16,0(sp)
    179c:	2827883a 	mov	r19,r5
    17a0:	3025883a 	mov	r18,r6
    17a4:	24400017 	ldw	r17,0(r4)
    17a8:	3000021e 	bne	r6,zero,17b4 <alt_up_rs232_write_fd+0x30>
    17ac:	0021883a 	mov	r16,zero
    17b0:	00000806 	br	17d4 <alt_up_rs232_write_fd+0x50>
    17b4:	0021883a 	mov	r16,zero
    17b8:	84c5883a 	add	r2,r16,r19
    17bc:	8809883a 	mov	r4,r17
    17c0:	11400003 	ldbu	r5,0(r2)
    17c4:	000176c0 	call	176c <alt_up_rs232_write_data>
    17c8:	1000021e 	bne	r2,zero,17d4 <alt_up_rs232_write_fd+0x50>
    17cc:	84000044 	addi	r16,r16,1
    17d0:	943ff91e 	bne	r18,r16,17b8 <alt_up_rs232_write_fd+0x34>
    17d4:	8005883a 	mov	r2,r16
    17d8:	dfc00417 	ldw	ra,16(sp)
    17dc:	dcc00317 	ldw	r19,12(sp)
    17e0:	dc800217 	ldw	r18,8(sp)
    17e4:	dc400117 	ldw	r17,4(sp)
    17e8:	dc000017 	ldw	r16,0(sp)
    17ec:	dec00504 	addi	sp,sp,20
    17f0:	f800283a 	ret

000017f4 <alt_up_rs232_disable_read_interrupt>:
    17f4:	20800a17 	ldw	r2,40(r4)
    17f8:	10800104 	addi	r2,r2,4
    17fc:	10c00037 	ldwio	r3,0(r2)
    1800:	013fff84 	movi	r4,-2
    1804:	1906703a 	and	r3,r3,r4
    1808:	10c00035 	stwio	r3,0(r2)
    180c:	f800283a 	ret

00001810 <alt_up_rs232_enable_read_interrupt>:
    1810:	20c00a17 	ldw	r3,40(r4)
    1814:	18c00104 	addi	r3,r3,4
    1818:	18800037 	ldwio	r2,0(r3)
    181c:	10800054 	ori	r2,r2,1
    1820:	18800035 	stwio	r2,0(r3)
    1824:	f800283a 	ret

00001828 <alt_up_rs232_get_used_space_in_read_FIFO>:
    1828:	20800a17 	ldw	r2,40(r4)
    182c:	108000ab 	ldhuio	r2,2(r2)
    1830:	10bfffcc 	andi	r2,r2,65535
    1834:	f800283a 	ret

00001838 <alt_up_char_buffer_string>:
    1838:	20800c17 	ldw	r2,48(r4)
    183c:	30801c2e 	bgeu	r6,r2,18b0 <alt_up_char_buffer_string+0x78>
    1840:	20800d17 	ldw	r2,52(r4)
    1844:	38801a2e 	bgeu	r7,r2,18b0 <alt_up_char_buffer_string+0x78>
    1848:	22001017 	ldw	r8,64(r4)
    184c:	28c00003 	ldbu	r3,0(r5)
    1850:	18803fcc 	andi	r2,r3,255
    1854:	1080201c 	xori	r2,r2,128
    1858:	10bfe004 	addi	r2,r2,-128
    185c:	10001626 	beq	r2,zero,18b8 <alt_up_char_buffer_string+0x80>
    1860:	3a04983a 	sll	r2,r7,r8
    1864:	308f883a 	add	r7,r6,r2
    1868:	02000044 	movi	r8,1
    186c:	20800b17 	ldw	r2,44(r4)
    1870:	3885883a 	add	r2,r7,r2
    1874:	18c03fcc 	andi	r3,r3,255
    1878:	18c0201c 	xori	r3,r3,128
    187c:	18ffe004 	addi	r3,r3,-128
    1880:	10c00025 	stbio	r3,0(r2)
    1884:	320d883a 	add	r6,r6,r8
    1888:	20800c17 	ldw	r2,48(r4)
    188c:	3080082e 	bgeu	r6,r2,18b0 <alt_up_char_buffer_string+0x78>
    1890:	2a0b883a 	add	r5,r5,r8
    1894:	28c00003 	ldbu	r3,0(r5)
    1898:	18803fcc 	andi	r2,r3,255
    189c:	1080201c 	xori	r2,r2,128
    18a0:	10bfe004 	addi	r2,r2,-128
    18a4:	10000426 	beq	r2,zero,18b8 <alt_up_char_buffer_string+0x80>
    18a8:	3a0f883a 	add	r7,r7,r8
    18ac:	003fef06 	br	186c <alt_up_char_buffer_string+0x34>
    18b0:	00bfffc4 	movi	r2,-1
    18b4:	f800283a 	ret
    18b8:	0005883a 	mov	r2,zero
    18bc:	f800283a 	ret

000018c0 <alt_up_char_buffer_draw>:
    18c0:	2011883a 	mov	r8,r4
    18c4:	20800c17 	ldw	r2,48(r4)
    18c8:	3080112e 	bgeu	r6,r2,1910 <alt_up_char_buffer_draw+0x50>
    18cc:	20800d17 	ldw	r2,52(r4)
    18d0:	38800f2e 	bgeu	r7,r2,1910 <alt_up_char_buffer_draw+0x50>
    18d4:	20c00f17 	ldw	r3,60(r4)
    18d8:	30c6703a 	and	r3,r6,r3
    18dc:	20800e17 	ldw	r2,56(r4)
    18e0:	1886983a 	sll	r3,r3,r2
    18e4:	20801117 	ldw	r2,68(r4)
    18e8:	3884703a 	and	r2,r7,r2
    18ec:	21001017 	ldw	r4,64(r4)
    18f0:	1104983a 	sll	r2,r2,r4
    18f4:	1886b03a 	or	r3,r3,r2
    18f8:	40800b17 	ldw	r2,44(r8)
    18fc:	1887883a 	add	r3,r3,r2
    1900:	28803fcc 	andi	r2,r5,255
    1904:	18800025 	stbio	r2,0(r3)
    1908:	0005883a 	mov	r2,zero
    190c:	f800283a 	ret
    1910:	00bfffc4 	movi	r2,-1
    1914:	f800283a 	ret

00001918 <alt_up_char_buffer_clear>:
    1918:	20c00a17 	ldw	r3,40(r4)
    191c:	00800044 	movi	r2,1
    1920:	188000a5 	stbio	r2,2(r3)
    1924:	20800a17 	ldw	r2,40(r4)
    1928:	10c00084 	addi	r3,r2,2
    192c:	01000044 	movi	r4,1
    1930:	18800023 	ldbuio	r2,0(r3)
    1934:	1104703a 	and	r2,r2,r4
    1938:	103ffd1e 	bne	r2,zero,1930 <alt_up_char_buffer_clear+0x18>
    193c:	f800283a 	ret

00001940 <alt_up_char_buffer_open_dev>:
    1940:	deffff04 	addi	sp,sp,-4
    1944:	dfc00015 	stw	ra,0(sp)
    1948:	01400034 	movhi	r5,0
    194c:	295c2a04 	addi	r5,r5,28840
    1950:	00025ec0 	call	25ec <alt_find_dev>
    1954:	dfc00017 	ldw	ra,0(sp)
    1958:	dec00104 	addi	sp,sp,4
    195c:	f800283a 	ret

00001960 <alt_up_char_buffer_init>:
    1960:	defffe04 	addi	sp,sp,-8
    1964:	dfc00115 	stw	ra,4(sp)
    1968:	dc000015 	stw	r16,0(sp)
    196c:	24000217 	ldw	r16,8(r4)
    1970:	80800007 	ldb	r2,0(r16)
    1974:	10000a26 	beq	r2,zero,19a0 <alt_up_char_buffer_init+0x40>
    1978:	8009883a 	mov	r4,r16
    197c:	01400034 	movhi	r5,0
    1980:	2954f404 	addi	r5,r5,21456
    1984:	0002eb80 	call	2eb8 <strcmp>
    1988:	1000021e 	bne	r2,zero,1994 <alt_up_char_buffer_init+0x34>
    198c:	80000005 	stb	zero,0(r16)
    1990:	00000306 	br	19a0 <alt_up_char_buffer_init+0x40>
    1994:	84000044 	addi	r16,r16,1
    1998:	80800007 	ldb	r2,0(r16)
    199c:	103ff61e 	bne	r2,zero,1978 <alt_up_char_buffer_init+0x18>
    19a0:	dfc00117 	ldw	ra,4(sp)
    19a4:	dc000017 	ldw	r16,0(sp)
    19a8:	dec00204 	addi	sp,sp,8
    19ac:	f800283a 	ret

000019b0 <helper_plot_pixel>:
    19b0:	da000017 	ldw	r8,0(sp)
    19b4:	d8c00117 	ldw	r3,4(sp)
    19b8:	1800051e 	bne	r3,zero,19d0 <helper_plot_pixel+0x20>
    19bc:	29c5383a 	mul	r2,r5,r7
    19c0:	3085883a 	add	r2,r6,r2
    19c4:	1105883a 	add	r2,r2,r4
    19c8:	12000025 	stbio	r8,0(r2)
    19cc:	f800283a 	ret
    19d0:	00800044 	movi	r2,1
    19d4:	1880061e 	bne	r3,r2,19f0 <helper_plot_pixel+0x40>
    19d8:	29c5383a 	mul	r2,r5,r7
    19dc:	3085883a 	add	r2,r6,r2
    19e0:	1085883a 	add	r2,r2,r2
    19e4:	1105883a 	add	r2,r2,r4
    19e8:	1200002d 	sthio	r8,0(r2)
    19ec:	f800283a 	ret
    19f0:	29c5383a 	mul	r2,r5,r7
    19f4:	1185883a 	add	r2,r2,r6
    19f8:	1085883a 	add	r2,r2,r2
    19fc:	1085883a 	add	r2,r2,r2
    1a00:	1105883a 	add	r2,r2,r4
    1a04:	12000035 	stwio	r8,0(r2)
    1a08:	f800283a 	ret

00001a0c <alt_up_pixel_buffer_dma_draw_line>:
    1a0c:	defff304 	addi	sp,sp,-52
    1a10:	dfc00c15 	stw	ra,48(sp)
    1a14:	df000b15 	stw	fp,44(sp)
    1a18:	ddc00a15 	stw	r23,40(sp)
    1a1c:	dd800915 	stw	r22,36(sp)
    1a20:	dd400815 	stw	r21,32(sp)
    1a24:	dd000715 	stw	r20,28(sp)
    1a28:	dcc00615 	stw	r19,24(sp)
    1a2c:	dc800515 	stw	r18,20(sp)
    1a30:	dc400415 	stw	r17,16(sp)
    1a34:	dc000315 	stw	r16,12(sp)
    1a38:	3011883a 	mov	r8,r6
    1a3c:	da400d17 	ldw	r9,52(sp)
    1a40:	4987c83a 	sub	r3,r9,r6
    1a44:	1800010e 	bge	r3,zero,1a4c <alt_up_pixel_buffer_dma_draw_line+0x40>
    1a48:	00c7c83a 	sub	r3,zero,r3
    1a4c:	3945c83a 	sub	r2,r7,r5
    1a50:	1000010e 	bge	r2,zero,1a58 <alt_up_pixel_buffer_dma_draw_line+0x4c>
    1a54:	0085c83a 	sub	r2,zero,r2
    1a58:	10c4803a 	cmplt	r2,r2,r3
    1a5c:	1015883a 	mov	r10,r2
    1a60:	20c00e17 	ldw	r3,56(r4)
    1a64:	00800044 	movi	r2,1
    1a68:	1880021e 	bne	r3,r2,1a74 <alt_up_pixel_buffer_dma_draw_line+0x68>
    1a6c:	d8000215 	stw	zero,8(sp)
    1a70:	00000306 	br	1a80 <alt_up_pixel_buffer_dma_draw_line+0x74>
    1a74:	18c00098 	cmpnei	r3,r3,2
    1a78:	18c00044 	addi	r3,r3,1
    1a7c:	d8c00215 	stw	r3,8(sp)
    1a80:	20800d17 	ldw	r2,52(r4)
    1a84:	1000061e 	bne	r2,zero,1aa0 <alt_up_pixel_buffer_dma_draw_line+0x94>
    1a88:	20801317 	ldw	r2,76(r4)
    1a8c:	d8c00217 	ldw	r3,8(sp)
    1a90:	10c5c83a 	sub	r2,r2,r3
    1a94:	00c00044 	movi	r3,1
    1a98:	18ae983a 	sll	r23,r3,r2
    1a9c:	00000106 	br	1aa4 <alt_up_pixel_buffer_dma_draw_line+0x98>
    1aa0:	25c00f17 	ldw	r23,60(r4)
    1aa4:	d8c00f17 	ldw	r3,60(sp)
    1aa8:	00800044 	movi	r2,1
    1aac:	1880021e 	bne	r3,r2,1ab8 <alt_up_pixel_buffer_dma_draw_line+0xac>
    1ab0:	25800c17 	ldw	r22,48(r4)
    1ab4:	00000106 	br	1abc <alt_up_pixel_buffer_dma_draw_line+0xb0>
    1ab8:	25800b17 	ldw	r22,44(r4)
    1abc:	50000326 	beq	r10,zero,1acc <alt_up_pixel_buffer_dma_draw_line+0xc0>
    1ac0:	400d883a 	mov	r6,r8
    1ac4:	4827883a 	mov	r19,r9
    1ac8:	00000406 	br	1adc <alt_up_pixel_buffer_dma_draw_line+0xd0>
    1acc:	280d883a 	mov	r6,r5
    1ad0:	400b883a 	mov	r5,r8
    1ad4:	3827883a 	mov	r19,r7
    1ad8:	480f883a 	mov	r7,r9
    1adc:	9980060e 	bge	r19,r6,1af8 <alt_up_pixel_buffer_dma_draw_line+0xec>
    1ae0:	9805883a 	mov	r2,r19
    1ae4:	3027883a 	mov	r19,r6
    1ae8:	100d883a 	mov	r6,r2
    1aec:	3805883a 	mov	r2,r7
    1af0:	280f883a 	mov	r7,r5
    1af4:	100b883a 	mov	r5,r2
    1af8:	99abc83a 	sub	r21,r19,r6
    1afc:	3969c83a 	sub	r20,r7,r5
    1b00:	a000010e 	bge	r20,zero,1b08 <alt_up_pixel_buffer_dma_draw_line+0xfc>
    1b04:	0529c83a 	sub	r20,zero,r20
    1b08:	a804d7fa 	srli	r2,r21,31
    1b0c:	1545883a 	add	r2,r2,r21
    1b10:	1005d07a 	srai	r2,r2,1
    1b14:	00a3c83a 	sub	r17,zero,r2
    1b18:	29c0020e 	bge	r5,r7,1b24 <alt_up_pixel_buffer_dma_draw_line+0x118>
    1b1c:	07000044 	movi	fp,1
    1b20:	00000106 	br	1b28 <alt_up_pixel_buffer_dma_draw_line+0x11c>
    1b24:	073fffc4 	movi	fp,-1
    1b28:	50000226 	beq	r10,zero,1b34 <alt_up_pixel_buffer_dma_draw_line+0x128>
    1b2c:	9980030e 	bge	r19,r6,1b3c <alt_up_pixel_buffer_dma_draw_line+0x130>
    1b30:	00002506 	br	1bc8 <alt_up_pixel_buffer_dma_draw_line+0x1bc>
    1b34:	9980130e 	bge	r19,r6,1b84 <alt_up_pixel_buffer_dma_draw_line+0x178>
    1b38:	00002306 	br	1bc8 <alt_up_pixel_buffer_dma_draw_line+0x1bc>
    1b3c:	3021883a 	mov	r16,r6
    1b40:	2825883a 	mov	r18,r5
    1b44:	d8800e17 	ldw	r2,56(sp)
    1b48:	d8800015 	stw	r2,0(sp)
    1b4c:	d8c00217 	ldw	r3,8(sp)
    1b50:	d8c00115 	stw	r3,4(sp)
    1b54:	b009883a 	mov	r4,r22
    1b58:	b80b883a 	mov	r5,r23
    1b5c:	900d883a 	mov	r6,r18
    1b60:	800f883a 	mov	r7,r16
    1b64:	00019b00 	call	19b0 <helper_plot_pixel>
    1b68:	8d23883a 	add	r17,r17,r20
    1b6c:	0440020e 	bge	zero,r17,1b78 <alt_up_pixel_buffer_dma_draw_line+0x16c>
    1b70:	9725883a 	add	r18,r18,fp
    1b74:	8d63c83a 	sub	r17,r17,r21
    1b78:	84000044 	addi	r16,r16,1
    1b7c:	9c001216 	blt	r19,r16,1bc8 <alt_up_pixel_buffer_dma_draw_line+0x1bc>
    1b80:	003ff006 	br	1b44 <alt_up_pixel_buffer_dma_draw_line+0x138>
    1b84:	3021883a 	mov	r16,r6
    1b88:	2825883a 	mov	r18,r5
    1b8c:	d8800e17 	ldw	r2,56(sp)
    1b90:	d8800015 	stw	r2,0(sp)
    1b94:	d8c00217 	ldw	r3,8(sp)
    1b98:	d8c00115 	stw	r3,4(sp)
    1b9c:	b009883a 	mov	r4,r22
    1ba0:	b80b883a 	mov	r5,r23
    1ba4:	800d883a 	mov	r6,r16
    1ba8:	900f883a 	mov	r7,r18
    1bac:	00019b00 	call	19b0 <helper_plot_pixel>
    1bb0:	8d23883a 	add	r17,r17,r20
    1bb4:	0440020e 	bge	zero,r17,1bc0 <alt_up_pixel_buffer_dma_draw_line+0x1b4>
    1bb8:	9725883a 	add	r18,r18,fp
    1bbc:	8d63c83a 	sub	r17,r17,r21
    1bc0:	84000044 	addi	r16,r16,1
    1bc4:	9c3ff10e 	bge	r19,r16,1b8c <alt_up_pixel_buffer_dma_draw_line+0x180>
    1bc8:	dfc00c17 	ldw	ra,48(sp)
    1bcc:	df000b17 	ldw	fp,44(sp)
    1bd0:	ddc00a17 	ldw	r23,40(sp)
    1bd4:	dd800917 	ldw	r22,36(sp)
    1bd8:	dd400817 	ldw	r21,32(sp)
    1bdc:	dd000717 	ldw	r20,28(sp)
    1be0:	dcc00617 	ldw	r19,24(sp)
    1be4:	dc800517 	ldw	r18,20(sp)
    1be8:	dc400417 	ldw	r17,16(sp)
    1bec:	dc000317 	ldw	r16,12(sp)
    1bf0:	dec00d04 	addi	sp,sp,52
    1bf4:	f800283a 	ret

00001bf8 <alt_up_pixel_buffer_dma_draw_vline>:
    1bf8:	22400f17 	ldw	r9,60(r4)
    1bfc:	20801017 	ldw	r2,64(r4)
    1c00:	3811883a 	mov	r8,r7
    1c04:	3980022e 	bgeu	r7,r6,1c10 <alt_up_pixel_buffer_dma_draw_vline+0x18>
    1c08:	3011883a 	mov	r8,r6
    1c0c:	380d883a 	mov	r6,r7
    1c10:	2a405d2e 	bgeu	r5,r9,1d88 <alt_up_pixel_buffer_dma_draw_vline+0x190>
    1c14:	30805c2e 	bgeu	r6,r2,1d88 <alt_up_pixel_buffer_dma_draw_vline+0x190>
    1c18:	40800136 	bltu	r8,r2,1c20 <alt_up_pixel_buffer_dma_draw_vline+0x28>
    1c1c:	123fffc4 	addi	r8,r2,-1
    1c20:	d8c00117 	ldw	r3,4(sp)
    1c24:	00800044 	movi	r2,1
    1c28:	1880021e 	bne	r3,r2,1c34 <alt_up_pixel_buffer_dma_draw_vline+0x3c>
    1c2c:	20c00c17 	ldw	r3,48(r4)
    1c30:	00000106 	br	1c38 <alt_up_pixel_buffer_dma_draw_vline+0x40>
    1c34:	20c00b17 	ldw	r3,44(r4)
    1c38:	d9c00017 	ldw	r7,0(sp)
    1c3c:	20800d17 	ldw	r2,52(r4)
    1c40:	1000281e 	bne	r2,zero,1ce4 <alt_up_pixel_buffer_dma_draw_vline+0xec>
    1c44:	22801317 	ldw	r10,76(r4)
    1c48:	3284983a 	sll	r2,r6,r10
    1c4c:	1887883a 	add	r3,r3,r2
    1c50:	21000e17 	ldw	r4,56(r4)
    1c54:	00800044 	movi	r2,1
    1c58:	2080091e 	bne	r4,r2,1c80 <alt_up_pixel_buffer_dma_draw_vline+0x88>
    1c5c:	41804a36 	bltu	r8,r6,1d88 <alt_up_pixel_buffer_dma_draw_vline+0x190>
    1c60:	1013883a 	mov	r9,r2
    1c64:	1288983a 	sll	r4,r2,r10
    1c68:	1945883a 	add	r2,r3,r5
    1c6c:	11c00025 	stbio	r7,0(r2)
    1c70:	1907883a 	add	r3,r3,r4
    1c74:	324d883a 	add	r6,r6,r9
    1c78:	41804336 	bltu	r8,r6,1d88 <alt_up_pixel_buffer_dma_draw_vline+0x190>
    1c7c:	003ffa06 	br	1c68 <alt_up_pixel_buffer_dma_draw_vline+0x70>
    1c80:	00800084 	movi	r2,2
    1c84:	2080021e 	bne	r4,r2,1c90 <alt_up_pixel_buffer_dma_draw_vline+0x98>
    1c88:	4180032e 	bgeu	r8,r6,1c98 <alt_up_pixel_buffer_dma_draw_vline+0xa0>
    1c8c:	f800283a 	ret
    1c90:	41800a2e 	bgeu	r8,r6,1cbc <alt_up_pixel_buffer_dma_draw_vline+0xc4>
    1c94:	f800283a 	ret
    1c98:	294b883a 	add	r5,r5,r5
    1c9c:	02400044 	movi	r9,1
    1ca0:	4a88983a 	sll	r4,r9,r10
    1ca4:	28c5883a 	add	r2,r5,r3
    1ca8:	11c0002d 	sthio	r7,0(r2)
    1cac:	1907883a 	add	r3,r3,r4
    1cb0:	324d883a 	add	r6,r6,r9
    1cb4:	41803436 	bltu	r8,r6,1d88 <alt_up_pixel_buffer_dma_draw_vline+0x190>
    1cb8:	003ffa06 	br	1ca4 <alt_up_pixel_buffer_dma_draw_vline+0xac>
    1cbc:	2945883a 	add	r2,r5,r5
    1cc0:	108b883a 	add	r5,r2,r2
    1cc4:	02400044 	movi	r9,1
    1cc8:	4a88983a 	sll	r4,r9,r10
    1ccc:	28c5883a 	add	r2,r5,r3
    1cd0:	11c00035 	stwio	r7,0(r2)
    1cd4:	1907883a 	add	r3,r3,r4
    1cd8:	324d883a 	add	r6,r6,r9
    1cdc:	41802a36 	bltu	r8,r6,1d88 <alt_up_pixel_buffer_dma_draw_vline+0x190>
    1ce0:	003ffa06 	br	1ccc <alt_up_pixel_buffer_dma_draw_vline+0xd4>
    1ce4:	21000e17 	ldw	r4,56(r4)
    1ce8:	00800044 	movi	r2,1
    1cec:	20800b1e 	bne	r4,r2,1d1c <alt_up_pixel_buffer_dma_draw_vline+0x124>
    1cf0:	41802536 	bltu	r8,r6,1d88 <alt_up_pixel_buffer_dma_draw_vline+0x190>
    1cf4:	4809883a 	mov	r4,r9
    1cf8:	3245383a 	mul	r2,r6,r9
    1cfc:	1885883a 	add	r2,r3,r2
    1d00:	1145883a 	add	r2,r2,r5
    1d04:	00c00044 	movi	r3,1
    1d08:	11c00025 	stbio	r7,0(r2)
    1d0c:	30cd883a 	add	r6,r6,r3
    1d10:	1105883a 	add	r2,r2,r4
    1d14:	41801c36 	bltu	r8,r6,1d88 <alt_up_pixel_buffer_dma_draw_vline+0x190>
    1d18:	003ffb06 	br	1d08 <alt_up_pixel_buffer_dma_draw_vline+0x110>
    1d1c:	00800084 	movi	r2,2
    1d20:	20800c1e 	bne	r4,r2,1d54 <alt_up_pixel_buffer_dma_draw_vline+0x15c>
    1d24:	41801836 	bltu	r8,r6,1d88 <alt_up_pixel_buffer_dma_draw_vline+0x190>
    1d28:	4a49883a 	add	r4,r9,r9
    1d2c:	3105383a 	mul	r2,r6,r4
    1d30:	1887883a 	add	r3,r3,r2
    1d34:	294b883a 	add	r5,r5,r5
    1d38:	02400044 	movi	r9,1
    1d3c:	28c5883a 	add	r2,r5,r3
    1d40:	11c0002d 	sthio	r7,0(r2)
    1d44:	1907883a 	add	r3,r3,r4
    1d48:	324d883a 	add	r6,r6,r9
    1d4c:	41800e36 	bltu	r8,r6,1d88 <alt_up_pixel_buffer_dma_draw_vline+0x190>
    1d50:	003ffa06 	br	1d3c <alt_up_pixel_buffer_dma_draw_vline+0x144>
    1d54:	41800c36 	bltu	r8,r6,1d88 <alt_up_pixel_buffer_dma_draw_vline+0x190>
    1d58:	4a45883a 	add	r2,r9,r9
    1d5c:	1089883a 	add	r4,r2,r2
    1d60:	3105383a 	mul	r2,r6,r4
    1d64:	1887883a 	add	r3,r3,r2
    1d68:	2945883a 	add	r2,r5,r5
    1d6c:	108b883a 	add	r5,r2,r2
    1d70:	02400044 	movi	r9,1
    1d74:	28c5883a 	add	r2,r5,r3
    1d78:	11c00035 	stwio	r7,0(r2)
    1d7c:	1907883a 	add	r3,r3,r4
    1d80:	324d883a 	add	r6,r6,r9
    1d84:	41bffb2e 	bgeu	r8,r6,1d74 <alt_up_pixel_buffer_dma_draw_vline+0x17c>
    1d88:	f800283a 	ret

00001d8c <alt_up_pixel_buffer_dma_draw_hline>:
    1d8c:	22000f17 	ldw	r8,60(r4)
    1d90:	20801017 	ldw	r2,64(r4)
    1d94:	3013883a 	mov	r9,r6
    1d98:	3140022e 	bgeu	r6,r5,1da4 <alt_up_pixel_buffer_dma_draw_hline+0x18>
    1d9c:	2813883a 	mov	r9,r5
    1da0:	300b883a 	mov	r5,r6
    1da4:	2a00552e 	bgeu	r5,r8,1efc <alt_up_pixel_buffer_dma_draw_hline+0x170>
    1da8:	3880542e 	bgeu	r7,r2,1efc <alt_up_pixel_buffer_dma_draw_hline+0x170>
    1dac:	4a000136 	bltu	r9,r8,1db4 <alt_up_pixel_buffer_dma_draw_hline+0x28>
    1db0:	427fffc4 	addi	r9,r8,-1
    1db4:	d8c00117 	ldw	r3,4(sp)
    1db8:	00800044 	movi	r2,1
    1dbc:	1880021e 	bne	r3,r2,1dc8 <alt_up_pixel_buffer_dma_draw_hline+0x3c>
    1dc0:	21800c17 	ldw	r6,48(r4)
    1dc4:	00000106 	br	1dcc <alt_up_pixel_buffer_dma_draw_hline+0x40>
    1dc8:	21800b17 	ldw	r6,44(r4)
    1dcc:	d8c00017 	ldw	r3,0(sp)
    1dd0:	20800d17 	ldw	r2,52(r4)
    1dd4:	1000231e 	bne	r2,zero,1e64 <alt_up_pixel_buffer_dma_draw_hline+0xd8>
    1dd8:	20801317 	ldw	r2,76(r4)
    1ddc:	3884983a 	sll	r2,r7,r2
    1de0:	308f883a 	add	r7,r6,r2
    1de4:	21000e17 	ldw	r4,56(r4)
    1de8:	00800044 	movi	r2,1
    1dec:	2080081e 	bne	r4,r2,1e10 <alt_up_pixel_buffer_dma_draw_hline+0x84>
    1df0:	49404236 	bltu	r9,r5,1efc <alt_up_pixel_buffer_dma_draw_hline+0x170>
    1df4:	3945883a 	add	r2,r7,r5
    1df8:	01000044 	movi	r4,1
    1dfc:	10c00025 	stbio	r3,0(r2)
    1e00:	290b883a 	add	r5,r5,r4
    1e04:	1105883a 	add	r2,r2,r4
    1e08:	49403c36 	bltu	r9,r5,1efc <alt_up_pixel_buffer_dma_draw_hline+0x170>
    1e0c:	003ffb06 	br	1dfc <alt_up_pixel_buffer_dma_draw_hline+0x70>
    1e10:	00800084 	movi	r2,2
    1e14:	2080021e 	bne	r4,r2,1e20 <alt_up_pixel_buffer_dma_draw_hline+0x94>
    1e18:	4940032e 	bgeu	r9,r5,1e28 <alt_up_pixel_buffer_dma_draw_hline+0x9c>
    1e1c:	f800283a 	ret
    1e20:	4940082e 	bgeu	r9,r5,1e44 <alt_up_pixel_buffer_dma_draw_hline+0xb8>
    1e24:	f800283a 	ret
    1e28:	01000044 	movi	r4,1
    1e2c:	2945883a 	add	r2,r5,r5
    1e30:	11c5883a 	add	r2,r2,r7
    1e34:	10c0002d 	sthio	r3,0(r2)
    1e38:	290b883a 	add	r5,r5,r4
    1e3c:	49402f36 	bltu	r9,r5,1efc <alt_up_pixel_buffer_dma_draw_hline+0x170>
    1e40:	003ffa06 	br	1e2c <alt_up_pixel_buffer_dma_draw_hline+0xa0>
    1e44:	01000044 	movi	r4,1
    1e48:	2945883a 	add	r2,r5,r5
    1e4c:	1085883a 	add	r2,r2,r2
    1e50:	11c5883a 	add	r2,r2,r7
    1e54:	10c00035 	stwio	r3,0(r2)
    1e58:	290b883a 	add	r5,r5,r4
    1e5c:	49402736 	bltu	r9,r5,1efc <alt_up_pixel_buffer_dma_draw_hline+0x170>
    1e60:	003ff906 	br	1e48 <alt_up_pixel_buffer_dma_draw_hline+0xbc>
    1e64:	21000e17 	ldw	r4,56(r4)
    1e68:	00800044 	movi	r2,1
    1e6c:	20800a1e 	bne	r4,r2,1e98 <alt_up_pixel_buffer_dma_draw_hline+0x10c>
    1e70:	41c5383a 	mul	r2,r8,r7
    1e74:	3085883a 	add	r2,r6,r2
    1e78:	49402036 	bltu	r9,r5,1efc <alt_up_pixel_buffer_dma_draw_hline+0x170>
    1e7c:	1145883a 	add	r2,r2,r5
    1e80:	01000044 	movi	r4,1
    1e84:	10c00025 	stbio	r3,0(r2)
    1e88:	290b883a 	add	r5,r5,r4
    1e8c:	1105883a 	add	r2,r2,r4
    1e90:	49401a36 	bltu	r9,r5,1efc <alt_up_pixel_buffer_dma_draw_hline+0x170>
    1e94:	003ffb06 	br	1e84 <alt_up_pixel_buffer_dma_draw_hline+0xf8>
    1e98:	00800084 	movi	r2,2
    1e9c:	20800b1e 	bne	r4,r2,1ecc <alt_up_pixel_buffer_dma_draw_hline+0x140>
    1ea0:	4205883a 	add	r2,r8,r8
    1ea4:	3885383a 	mul	r2,r7,r2
    1ea8:	308f883a 	add	r7,r6,r2
    1eac:	49401336 	bltu	r9,r5,1efc <alt_up_pixel_buffer_dma_draw_hline+0x170>
    1eb0:	01000044 	movi	r4,1
    1eb4:	2945883a 	add	r2,r5,r5
    1eb8:	11c5883a 	add	r2,r2,r7
    1ebc:	10c0002d 	sthio	r3,0(r2)
    1ec0:	290b883a 	add	r5,r5,r4
    1ec4:	49400d36 	bltu	r9,r5,1efc <alt_up_pixel_buffer_dma_draw_hline+0x170>
    1ec8:	003ffa06 	br	1eb4 <alt_up_pixel_buffer_dma_draw_hline+0x128>
    1ecc:	4205883a 	add	r2,r8,r8
    1ed0:	1085883a 	add	r2,r2,r2
    1ed4:	3885383a 	mul	r2,r7,r2
    1ed8:	308f883a 	add	r7,r6,r2
    1edc:	49400736 	bltu	r9,r5,1efc <alt_up_pixel_buffer_dma_draw_hline+0x170>
    1ee0:	01000044 	movi	r4,1
    1ee4:	2945883a 	add	r2,r5,r5
    1ee8:	1085883a 	add	r2,r2,r2
    1eec:	11c5883a 	add	r2,r2,r7
    1ef0:	10c00035 	stwio	r3,0(r2)
    1ef4:	290b883a 	add	r5,r5,r4
    1ef8:	497ffa2e 	bgeu	r9,r5,1ee4 <alt_up_pixel_buffer_dma_draw_hline+0x158>
    1efc:	f800283a 	ret

00001f00 <alt_up_pixel_buffer_dma_draw_rectangle>:
    1f00:	defff604 	addi	sp,sp,-40
    1f04:	dfc00915 	stw	ra,36(sp)
    1f08:	dd800815 	stw	r22,32(sp)
    1f0c:	dd400715 	stw	r21,28(sp)
    1f10:	dd000615 	stw	r20,24(sp)
    1f14:	dcc00515 	stw	r19,20(sp)
    1f18:	dc800415 	stw	r18,16(sp)
    1f1c:	dc400315 	stw	r17,12(sp)
    1f20:	dc000215 	stw	r16,8(sp)
    1f24:	2029883a 	mov	r20,r4
    1f28:	282d883a 	mov	r22,r5
    1f2c:	302b883a 	mov	r21,r6
    1f30:	3825883a 	mov	r18,r7
    1f34:	dcc00a17 	ldw	r19,40(sp)
    1f38:	dc000b17 	ldw	r16,44(sp)
    1f3c:	dc400c17 	ldw	r17,48(sp)
    1f40:	dc000015 	stw	r16,0(sp)
    1f44:	dc400115 	stw	r17,4(sp)
    1f48:	380d883a 	mov	r6,r7
    1f4c:	a80f883a 	mov	r7,r21
    1f50:	0001d8c0 	call	1d8c <alt_up_pixel_buffer_dma_draw_hline>
    1f54:	dc000015 	stw	r16,0(sp)
    1f58:	dc400115 	stw	r17,4(sp)
    1f5c:	a009883a 	mov	r4,r20
    1f60:	b00b883a 	mov	r5,r22
    1f64:	900d883a 	mov	r6,r18
    1f68:	980f883a 	mov	r7,r19
    1f6c:	0001d8c0 	call	1d8c <alt_up_pixel_buffer_dma_draw_hline>
    1f70:	dc000015 	stw	r16,0(sp)
    1f74:	dc400115 	stw	r17,4(sp)
    1f78:	a009883a 	mov	r4,r20
    1f7c:	b00b883a 	mov	r5,r22
    1f80:	a80d883a 	mov	r6,r21
    1f84:	980f883a 	mov	r7,r19
    1f88:	0001bf80 	call	1bf8 <alt_up_pixel_buffer_dma_draw_vline>
    1f8c:	dc000015 	stw	r16,0(sp)
    1f90:	dc400115 	stw	r17,4(sp)
    1f94:	a009883a 	mov	r4,r20
    1f98:	900b883a 	mov	r5,r18
    1f9c:	a80d883a 	mov	r6,r21
    1fa0:	980f883a 	mov	r7,r19
    1fa4:	0001bf80 	call	1bf8 <alt_up_pixel_buffer_dma_draw_vline>
    1fa8:	dfc00917 	ldw	ra,36(sp)
    1fac:	dd800817 	ldw	r22,32(sp)
    1fb0:	dd400717 	ldw	r21,28(sp)
    1fb4:	dd000617 	ldw	r20,24(sp)
    1fb8:	dcc00517 	ldw	r19,20(sp)
    1fbc:	dc800417 	ldw	r18,16(sp)
    1fc0:	dc400317 	ldw	r17,12(sp)
    1fc4:	dc000217 	ldw	r16,8(sp)
    1fc8:	dec00a04 	addi	sp,sp,40
    1fcc:	f800283a 	ret

00001fd0 <alt_up_pixel_buffer_dma_draw_box>:
    1fd0:	22800f17 	ldw	r10,60(r4)
    1fd4:	20c01017 	ldw	r3,64(r4)
    1fd8:	3811883a 	mov	r8,r7
    1fdc:	dac00017 	ldw	r11,0(sp)
    1fe0:	3940022e 	bgeu	r7,r5,1fec <alt_up_pixel_buffer_dma_draw_box+0x1c>
    1fe4:	2811883a 	mov	r8,r5
    1fe8:	380b883a 	mov	r5,r7
    1fec:	5980032e 	bgeu	r11,r6,1ffc <alt_up_pixel_buffer_dma_draw_box+0x2c>
    1ff0:	5805883a 	mov	r2,r11
    1ff4:	3017883a 	mov	r11,r6
    1ff8:	100d883a 	mov	r6,r2
    1ffc:	2a80842e 	bgeu	r5,r10,2210 <alt_up_pixel_buffer_dma_draw_box+0x240>
    2000:	30c0832e 	bgeu	r6,r3,2210 <alt_up_pixel_buffer_dma_draw_box+0x240>
    2004:	42800136 	bltu	r8,r10,200c <alt_up_pixel_buffer_dma_draw_box+0x3c>
    2008:	523fffc4 	addi	r8,r10,-1
    200c:	58c00136 	bltu	r11,r3,2014 <alt_up_pixel_buffer_dma_draw_box+0x44>
    2010:	1affffc4 	addi	r11,r3,-1
    2014:	d8c00217 	ldw	r3,8(sp)
    2018:	00800044 	movi	r2,1
    201c:	1880021e 	bne	r3,r2,2028 <alt_up_pixel_buffer_dma_draw_box+0x58>
    2020:	20c00c17 	ldw	r3,48(r4)
    2024:	00000106 	br	202c <alt_up_pixel_buffer_dma_draw_box+0x5c>
    2028:	20c00b17 	ldw	r3,44(r4)
    202c:	da400117 	ldw	r9,4(sp)
    2030:	20800d17 	ldw	r2,52(r4)
    2034:	1000391e 	bne	r2,zero,211c <alt_up_pixel_buffer_dma_draw_box+0x14c>
    2038:	22801317 	ldw	r10,76(r4)
    203c:	3284983a 	sll	r2,r6,r10
    2040:	188f883a 	add	r7,r3,r2
    2044:	21000e17 	ldw	r4,56(r4)
    2048:	00800044 	movi	r2,1
    204c:	2080101e 	bne	r4,r2,2090 <alt_up_pixel_buffer_dma_draw_box+0xc0>
    2050:	59806f36 	bltu	r11,r6,2210 <alt_up_pixel_buffer_dma_draw_box+0x240>
    2054:	00000a06 	br	2080 <alt_up_pixel_buffer_dma_draw_box+0xb0>
    2058:	22400025 	stbio	r9,0(r4)
    205c:	00800044 	movi	r2,1
    2060:	1887883a 	add	r3,r3,r2
    2064:	2089883a 	add	r4,r4,r2
    2068:	40fffb2e 	bgeu	r8,r3,2058 <alt_up_pixel_buffer_dma_draw_box+0x88>
    206c:	00800044 	movi	r2,1
    2070:	308d883a 	add	r6,r6,r2
    2074:	59806636 	bltu	r11,r6,2210 <alt_up_pixel_buffer_dma_draw_box+0x240>
    2078:	1284983a 	sll	r2,r2,r10
    207c:	388f883a 	add	r7,r7,r2
    2080:	417ffa36 	bltu	r8,r5,206c <alt_up_pixel_buffer_dma_draw_box+0x9c>
    2084:	29c9883a 	add	r4,r5,r7
    2088:	2807883a 	mov	r3,r5
    208c:	003ff206 	br	2058 <alt_up_pixel_buffer_dma_draw_box+0x88>
    2090:	00800084 	movi	r2,2
    2094:	2080021e 	bne	r4,r2,20a0 <alt_up_pixel_buffer_dma_draw_box+0xd0>
    2098:	59805d36 	bltu	r11,r6,2210 <alt_up_pixel_buffer_dma_draw_box+0x240>
    209c:	00000e06 	br	20d8 <alt_up_pixel_buffer_dma_draw_box+0x108>
    20a0:	59805b36 	bltu	r11,r6,2210 <alt_up_pixel_buffer_dma_draw_box+0x240>
    20a4:	00001b06 	br	2114 <alt_up_pixel_buffer_dma_draw_box+0x144>
    20a8:	2807883a 	mov	r3,r5
    20ac:	01000044 	movi	r4,1
    20b0:	18c5883a 	add	r2,r3,r3
    20b4:	11c5883a 	add	r2,r2,r7
    20b8:	1240002d 	sthio	r9,0(r2)
    20bc:	1907883a 	add	r3,r3,r4
    20c0:	40fffb2e 	bgeu	r8,r3,20b0 <alt_up_pixel_buffer_dma_draw_box+0xe0>
    20c4:	00800044 	movi	r2,1
    20c8:	308d883a 	add	r6,r6,r2
    20cc:	59805036 	bltu	r11,r6,2210 <alt_up_pixel_buffer_dma_draw_box+0x240>
    20d0:	1284983a 	sll	r2,r2,r10
    20d4:	388f883a 	add	r7,r7,r2
    20d8:	417ff32e 	bgeu	r8,r5,20a8 <alt_up_pixel_buffer_dma_draw_box+0xd8>
    20dc:	003ff906 	br	20c4 <alt_up_pixel_buffer_dma_draw_box+0xf4>
    20e0:	2807883a 	mov	r3,r5
    20e4:	01000044 	movi	r4,1
    20e8:	18c5883a 	add	r2,r3,r3
    20ec:	1085883a 	add	r2,r2,r2
    20f0:	11c5883a 	add	r2,r2,r7
    20f4:	12400035 	stwio	r9,0(r2)
    20f8:	1907883a 	add	r3,r3,r4
    20fc:	40fffa2e 	bgeu	r8,r3,20e8 <alt_up_pixel_buffer_dma_draw_box+0x118>
    2100:	00800044 	movi	r2,1
    2104:	308d883a 	add	r6,r6,r2
    2108:	59804136 	bltu	r11,r6,2210 <alt_up_pixel_buffer_dma_draw_box+0x240>
    210c:	1284983a 	sll	r2,r2,r10
    2110:	388f883a 	add	r7,r7,r2
    2114:	417ff22e 	bgeu	r8,r5,20e0 <alt_up_pixel_buffer_dma_draw_box+0x110>
    2118:	003ff906 	br	2100 <alt_up_pixel_buffer_dma_draw_box+0x130>
    211c:	21000e17 	ldw	r4,56(r4)
    2120:	00800044 	movi	r2,1
    2124:	2080121e 	bne	r4,r2,2170 <alt_up_pixel_buffer_dma_draw_box+0x1a0>
    2128:	59803936 	bltu	r11,r6,2210 <alt_up_pixel_buffer_dma_draw_box+0x240>
    212c:	5019883a 	mov	r12,r10
    2130:	3285383a 	mul	r2,r6,r10
    2134:	1885883a 	add	r2,r3,r2
    2138:	114f883a 	add	r7,r2,r5
    213c:	00000806 	br	2160 <alt_up_pixel_buffer_dma_draw_box+0x190>
    2140:	22400025 	stbio	r9,0(r4)
    2144:	00800044 	movi	r2,1
    2148:	1887883a 	add	r3,r3,r2
    214c:	2089883a 	add	r4,r4,r2
    2150:	40fffb2e 	bgeu	r8,r3,2140 <alt_up_pixel_buffer_dma_draw_box+0x170>
    2154:	31800044 	addi	r6,r6,1
    2158:	3b0f883a 	add	r7,r7,r12
    215c:	59802c36 	bltu	r11,r6,2210 <alt_up_pixel_buffer_dma_draw_box+0x240>
    2160:	417ffc36 	bltu	r8,r5,2154 <alt_up_pixel_buffer_dma_draw_box+0x184>
    2164:	3809883a 	mov	r4,r7
    2168:	2807883a 	mov	r3,r5
    216c:	003ff406 	br	2140 <alt_up_pixel_buffer_dma_draw_box+0x170>
    2170:	00800084 	movi	r2,2
    2174:	2080121e 	bne	r4,r2,21c0 <alt_up_pixel_buffer_dma_draw_box+0x1f0>
    2178:	59802536 	bltu	r11,r6,2210 <alt_up_pixel_buffer_dma_draw_box+0x240>
    217c:	5295883a 	add	r10,r10,r10
    2180:	3285383a 	mul	r2,r6,r10
    2184:	1889883a 	add	r4,r3,r2
    2188:	03000044 	movi	r12,1
    218c:	00000a06 	br	21b8 <alt_up_pixel_buffer_dma_draw_box+0x1e8>
    2190:	2807883a 	mov	r3,r5
    2194:	01c00044 	movi	r7,1
    2198:	18c5883a 	add	r2,r3,r3
    219c:	1105883a 	add	r2,r2,r4
    21a0:	1240002d 	sthio	r9,0(r2)
    21a4:	19c7883a 	add	r3,r3,r7
    21a8:	40fffb2e 	bgeu	r8,r3,2198 <alt_up_pixel_buffer_dma_draw_box+0x1c8>
    21ac:	330d883a 	add	r6,r6,r12
    21b0:	59801736 	bltu	r11,r6,2210 <alt_up_pixel_buffer_dma_draw_box+0x240>
    21b4:	2289883a 	add	r4,r4,r10
    21b8:	417ff52e 	bgeu	r8,r5,2190 <alt_up_pixel_buffer_dma_draw_box+0x1c0>
    21bc:	003ffb06 	br	21ac <alt_up_pixel_buffer_dma_draw_box+0x1dc>
    21c0:	59801336 	bltu	r11,r6,2210 <alt_up_pixel_buffer_dma_draw_box+0x240>
    21c4:	5285883a 	add	r2,r10,r10
    21c8:	1095883a 	add	r10,r2,r2
    21cc:	3285383a 	mul	r2,r6,r10
    21d0:	1889883a 	add	r4,r3,r2
    21d4:	03000044 	movi	r12,1
    21d8:	00000b06 	br	2208 <alt_up_pixel_buffer_dma_draw_box+0x238>
    21dc:	2807883a 	mov	r3,r5
    21e0:	01c00044 	movi	r7,1
    21e4:	18c5883a 	add	r2,r3,r3
    21e8:	1085883a 	add	r2,r2,r2
    21ec:	1105883a 	add	r2,r2,r4
    21f0:	12400035 	stwio	r9,0(r2)
    21f4:	19c7883a 	add	r3,r3,r7
    21f8:	40fffa2e 	bgeu	r8,r3,21e4 <alt_up_pixel_buffer_dma_draw_box+0x214>
    21fc:	330d883a 	add	r6,r6,r12
    2200:	59800336 	bltu	r11,r6,2210 <alt_up_pixel_buffer_dma_draw_box+0x240>
    2204:	2289883a 	add	r4,r4,r10
    2208:	417ff42e 	bgeu	r8,r5,21dc <alt_up_pixel_buffer_dma_draw_box+0x20c>
    220c:	003ffb06 	br	21fc <alt_up_pixel_buffer_dma_draw_box+0x22c>
    2210:	f800283a 	ret

00002214 <alt_up_pixel_buffer_dma_clear_screen>:
    2214:	00800044 	movi	r2,1
    2218:	2880021e 	bne	r5,r2,2224 <alt_up_pixel_buffer_dma_clear_screen+0x10>
    221c:	21c00c17 	ldw	r7,48(r4)
    2220:	00000106 	br	2228 <alt_up_pixel_buffer_dma_clear_screen+0x14>
    2224:	21c00b17 	ldw	r7,44(r4)
    2228:	21400f17 	ldw	r5,60(r4)
    222c:	20c00e17 	ldw	r3,56(r4)
    2230:	00800084 	movi	r2,2
    2234:	1880021e 	bne	r3,r2,2240 <alt_up_pixel_buffer_dma_clear_screen+0x2c>
    2238:	294d883a 	add	r6,r5,r5
    223c:	00000206 	br	2248 <alt_up_pixel_buffer_dma_clear_screen+0x34>
    2240:	2945883a 	add	r2,r5,r5
    2244:	108d883a 	add	r6,r2,r2
    2248:	22401017 	ldw	r9,64(r4)
    224c:	20800d17 	ldw	r2,52(r4)
    2250:	1000121e 	bne	r2,zero,229c <alt_up_pixel_buffer_dma_clear_screen+0x88>
    2254:	21001317 	ldw	r4,76(r4)
    2258:	48001a26 	beq	r9,zero,22c4 <alt_up_pixel_buffer_dma_clear_screen+0xb0>
    225c:	0011883a 	mov	r8,zero
    2260:	3014c03a 	cmpne	r10,r6,zero
    2264:	00000b06 	br	2294 <alt_up_pixel_buffer_dma_clear_screen+0x80>
    2268:	0007883a 	mov	r3,zero
    226c:	01400104 	movi	r5,4
    2270:	19c5883a 	add	r2,r3,r7
    2274:	10000035 	stwio	zero,0(r2)
    2278:	1947883a 	add	r3,r3,r5
    227c:	19bffc36 	bltu	r3,r6,2270 <alt_up_pixel_buffer_dma_clear_screen+0x5c>
    2280:	00800044 	movi	r2,1
    2284:	4091883a 	add	r8,r8,r2
    2288:	4a000e26 	beq	r9,r8,22c4 <alt_up_pixel_buffer_dma_clear_screen+0xb0>
    228c:	1104983a 	sll	r2,r2,r4
    2290:	388f883a 	add	r7,r7,r2
    2294:	503ff41e 	bne	r10,zero,2268 <alt_up_pixel_buffer_dma_clear_screen+0x54>
    2298:	003ff906 	br	2280 <alt_up_pixel_buffer_dma_clear_screen+0x6c>
    229c:	3249383a 	mul	r4,r6,r9
    22a0:	20000826 	beq	r4,zero,22c4 <alt_up_pixel_buffer_dma_clear_screen+0xb0>
    22a4:	0007883a 	mov	r3,zero
    22a8:	0005883a 	mov	r2,zero
    22ac:	01400104 	movi	r5,4
    22b0:	3885883a 	add	r2,r7,r2
    22b4:	10000035 	stwio	zero,0(r2)
    22b8:	1945883a 	add	r2,r3,r5
    22bc:	1007883a 	mov	r3,r2
    22c0:	113ffb36 	bltu	r2,r4,22b0 <alt_up_pixel_buffer_dma_clear_screen+0x9c>
    22c4:	f800283a 	ret

000022c8 <alt_up_pixel_buffer_dma_swap_buffers>:
    22c8:	21400c17 	ldw	r5,48(r4)
    22cc:	20c00a17 	ldw	r3,40(r4)
    22d0:	00800044 	movi	r2,1
    22d4:	18800035 	stwio	r2,0(r3)
    22d8:	20800b17 	ldw	r2,44(r4)
    22dc:	20800c15 	stw	r2,48(r4)
    22e0:	21400b15 	stw	r5,44(r4)
    22e4:	0005883a 	mov	r2,zero
    22e8:	f800283a 	ret

000022ec <alt_up_pixel_buffer_dma_draw>:
    22ec:	2011883a 	mov	r8,r4
    22f0:	22400f17 	ldw	r9,60(r4)
    22f4:	32402a2e 	bgeu	r6,r9,23a0 <alt_up_pixel_buffer_dma_draw+0xb4>
    22f8:	20801017 	ldw	r2,64(r4)
    22fc:	3880282e 	bgeu	r7,r2,23a0 <alt_up_pixel_buffer_dma_draw+0xb4>
    2300:	20800d17 	ldw	r2,52(r4)
    2304:	10000a1e 	bne	r2,zero,2330 <alt_up_pixel_buffer_dma_draw+0x44>
    2308:	21001217 	ldw	r4,72(r4)
    230c:	3108703a 	and	r4,r6,r4
    2310:	40801117 	ldw	r2,68(r8)
    2314:	2088983a 	sll	r4,r4,r2
    2318:	40801417 	ldw	r2,80(r8)
    231c:	3884703a 	and	r2,r7,r2
    2320:	40c01317 	ldw	r3,76(r8)
    2324:	10c4983a 	sll	r2,r2,r3
    2328:	2086b03a 	or	r3,r4,r2
    232c:	00000806 	br	2350 <alt_up_pixel_buffer_dma_draw+0x64>
    2330:	21001117 	ldw	r4,68(r4)
    2334:	40c01217 	ldw	r3,72(r8)
    2338:	30c6703a 	and	r3,r6,r3
    233c:	40801417 	ldw	r2,80(r8)
    2340:	3884703a 	and	r2,r7,r2
    2344:	4885383a 	mul	r2,r9,r2
    2348:	10c5883a 	add	r2,r2,r3
    234c:	1106983a 	sll	r3,r2,r4
    2350:	42400e17 	ldw	r9,56(r8)
    2354:	00800044 	movi	r2,1
    2358:	4880051e 	bne	r9,r2,2370 <alt_up_pixel_buffer_dma_draw+0x84>
    235c:	40800c17 	ldw	r2,48(r8)
    2360:	1885883a 	add	r2,r3,r2
    2364:	11400025 	stbio	r5,0(r2)
    2368:	0005883a 	mov	r2,zero
    236c:	f800283a 	ret
    2370:	00800084 	movi	r2,2
    2374:	4880051e 	bne	r9,r2,238c <alt_up_pixel_buffer_dma_draw+0xa0>
    2378:	40800c17 	ldw	r2,48(r8)
    237c:	1885883a 	add	r2,r3,r2
    2380:	1140002d 	sthio	r5,0(r2)
    2384:	0005883a 	mov	r2,zero
    2388:	f800283a 	ret
    238c:	40800c17 	ldw	r2,48(r8)
    2390:	1885883a 	add	r2,r3,r2
    2394:	11400035 	stwio	r5,0(r2)
    2398:	0005883a 	mov	r2,zero
    239c:	f800283a 	ret
    23a0:	00bfffc4 	movi	r2,-1
    23a4:	f800283a 	ret

000023a8 <alt_up_pixel_buffer_dma_check_swap_buffers_status>:
    23a8:	20800a17 	ldw	r2,40(r4)
    23ac:	10800337 	ldwio	r2,12(r2)
    23b0:	1080004c 	andi	r2,r2,1
    23b4:	f800283a 	ret

000023b8 <alt_up_pixel_buffer_dma_change_back_buffer_address>:
    23b8:	00c00104 	movi	r3,4
    23bc:	20800a17 	ldw	r2,40(r4)
    23c0:	10c5883a 	add	r2,r2,r3
    23c4:	11400035 	stwio	r5,0(r2)
    23c8:	20800a17 	ldw	r2,40(r4)
    23cc:	10c5883a 	add	r2,r2,r3
    23d0:	10800037 	ldwio	r2,0(r2)
    23d4:	20800c15 	stw	r2,48(r4)
    23d8:	0005883a 	mov	r2,zero
    23dc:	f800283a 	ret

000023e0 <alt_up_pixel_buffer_dma_open_dev>:
    23e0:	deffff04 	addi	sp,sp,-4
    23e4:	dfc00015 	stw	ra,0(sp)
    23e8:	01400034 	movhi	r5,0
    23ec:	295c2a04 	addi	r5,r5,28840
    23f0:	00025ec0 	call	25ec <alt_find_dev>
    23f4:	dfc00017 	ldw	ra,0(sp)
    23f8:	dec00104 	addi	sp,sp,4
    23fc:	f800283a 	ret

00002400 <alt_alarm_start>:
    2400:	00800074 	movhi	r2,1
    2404:	10a37104 	addi	r2,r2,-29244
    2408:	10800017 	ldw	r2,0(r2)
    240c:	1000021e 	bne	r2,zero,2418 <alt_alarm_start+0x18>
    2410:	00bfde84 	movi	r2,-134
    2414:	f800283a 	ret
    2418:	2000021e 	bne	r4,zero,2424 <alt_alarm_start+0x24>
    241c:	00bffa84 	movi	r2,-22
    2420:	f800283a 	ret
    2424:	21800315 	stw	r6,12(r4)
    2428:	21c00515 	stw	r7,20(r4)
    242c:	000f303a 	rdctl	r7,status
    2430:	00bfff84 	movi	r2,-2
    2434:	3884703a 	and	r2,r7,r2
    2438:	1001703a 	wrctl	status,r2
    243c:	00800074 	movhi	r2,1
    2440:	10a37204 	addi	r2,r2,-29240
    2444:	10c00017 	ldw	r3,0(r2)
    2448:	01800044 	movi	r6,1
    244c:	1985883a 	add	r2,r3,r6
    2450:	2885883a 	add	r2,r5,r2
    2454:	20800215 	stw	r2,8(r4)
    2458:	10c0022e 	bgeu	r2,r3,2464 <alt_alarm_start+0x64>
    245c:	21800405 	stb	r6,16(r4)
    2460:	00000106 	br	2468 <alt_alarm_start+0x68>
    2464:	20000405 	stb	zero,16(r4)
    2468:	00800034 	movhi	r2,0
    246c:	109c2f04 	addi	r2,r2,28860
    2470:	20800115 	stw	r2,4(r4)
    2474:	10c00017 	ldw	r3,0(r2)
    2478:	20c00015 	stw	r3,0(r4)
    247c:	10c00017 	ldw	r3,0(r2)
    2480:	19000115 	stw	r4,4(r3)
    2484:	11000015 	stw	r4,0(r2)
    2488:	3801703a 	wrctl	status,r7
    248c:	0005883a 	mov	r2,zero
    2490:	f800283a 	ret

00002494 <close>:
    2494:	defffd04 	addi	sp,sp,-12
    2498:	dfc00215 	stw	ra,8(sp)
    249c:	dc400115 	stw	r17,4(sp)
    24a0:	dc000015 	stw	r16,0(sp)
    24a4:	2021883a 	mov	r16,r4
    24a8:	20001c16 	blt	r4,zero,251c <close+0x88>
    24ac:	20c00324 	muli	r3,r4,12
    24b0:	00800034 	movhi	r2,0
    24b4:	1099c604 	addi	r2,r2,26392
    24b8:	1889883a 	add	r4,r3,r2
    24bc:	20001726 	beq	r4,zero,251c <close+0x88>
    24c0:	20800017 	ldw	r2,0(r4)
    24c4:	10800417 	ldw	r2,16(r2)
    24c8:	10002126 	beq	r2,zero,2550 <close+0xbc>
    24cc:	103ee83a 	callr	r2
    24d0:	1023883a 	mov	r17,r2
    24d4:	8009883a 	mov	r4,r16
    24d8:	00029b00 	call	29b0 <alt_release_fd>
    24dc:	88000216 	blt	r17,zero,24e8 <close+0x54>
    24e0:	0005883a 	mov	r2,zero
    24e4:	00001d06 	br	255c <close+0xc8>
    24e8:	00800034 	movhi	r2,0
    24ec:	109c2d04 	addi	r2,r2,28852
    24f0:	10800017 	ldw	r2,0(r2)
    24f4:	1000031e 	bne	r2,zero,2504 <close+0x70>
    24f8:	00c00074 	movhi	r3,1
    24fc:	18e37304 	addi	r3,r3,-29236
    2500:	00000206 	br	250c <close+0x78>
    2504:	103ee83a 	callr	r2
    2508:	1007883a 	mov	r3,r2
    250c:	0445c83a 	sub	r2,zero,r17
    2510:	18800015 	stw	r2,0(r3)
    2514:	00bfffc4 	movi	r2,-1
    2518:	00001006 	br	255c <close+0xc8>
    251c:	00800034 	movhi	r2,0
    2520:	109c2d04 	addi	r2,r2,28852
    2524:	10800017 	ldw	r2,0(r2)
    2528:	1000031e 	bne	r2,zero,2538 <close+0xa4>
    252c:	00c00074 	movhi	r3,1
    2530:	18e37304 	addi	r3,r3,-29236
    2534:	00000206 	br	2540 <close+0xac>
    2538:	103ee83a 	callr	r2
    253c:	1007883a 	mov	r3,r2
    2540:	00801444 	movi	r2,81
    2544:	18800015 	stw	r2,0(r3)
    2548:	00bfffc4 	movi	r2,-1
    254c:	00000306 	br	255c <close+0xc8>
    2550:	8009883a 	mov	r4,r16
    2554:	00029b00 	call	29b0 <alt_release_fd>
    2558:	0005883a 	mov	r2,zero
    255c:	dfc00217 	ldw	ra,8(sp)
    2560:	dc400117 	ldw	r17,4(sp)
    2564:	dc000017 	ldw	r16,0(sp)
    2568:	dec00304 	addi	sp,sp,12
    256c:	f800283a 	ret

00002570 <alt_dcache_flush_all>:
    2570:	f800283a 	ret

00002574 <alt_dev_null_write>:
    2574:	3005883a 	mov	r2,r6
    2578:	f800283a 	ret

0000257c <alt_dev_llist_insert>:
    257c:	deffff04 	addi	sp,sp,-4
    2580:	dfc00015 	stw	ra,0(sp)
    2584:	20000226 	beq	r4,zero,2590 <alt_dev_llist_insert+0x14>
    2588:	20800217 	ldw	r2,8(r4)
    258c:	10000d1e 	bne	r2,zero,25c4 <alt_dev_llist_insert+0x48>
    2590:	00800034 	movhi	r2,0
    2594:	109c2d04 	addi	r2,r2,28852
    2598:	10800017 	ldw	r2,0(r2)
    259c:	1000031e 	bne	r2,zero,25ac <alt_dev_llist_insert+0x30>
    25a0:	00c00074 	movhi	r3,1
    25a4:	18e37304 	addi	r3,r3,-29236
    25a8:	00000206 	br	25b4 <alt_dev_llist_insert+0x38>
    25ac:	103ee83a 	callr	r2
    25b0:	1007883a 	mov	r3,r2
    25b4:	00800584 	movi	r2,22
    25b8:	18800015 	stw	r2,0(r3)
    25bc:	00bffa84 	movi	r2,-22
    25c0:	00000706 	br	25e0 <alt_dev_llist_insert+0x64>
    25c4:	21400115 	stw	r5,4(r4)
    25c8:	28800017 	ldw	r2,0(r5)
    25cc:	20800015 	stw	r2,0(r4)
    25d0:	28800017 	ldw	r2,0(r5)
    25d4:	11000115 	stw	r4,4(r2)
    25d8:	29000015 	stw	r4,0(r5)
    25dc:	0005883a 	mov	r2,zero
    25e0:	dfc00017 	ldw	ra,0(sp)
    25e4:	dec00104 	addi	sp,sp,4
    25e8:	f800283a 	ret

000025ec <alt_find_dev>:
    25ec:	defffb04 	addi	sp,sp,-20
    25f0:	dfc00415 	stw	ra,16(sp)
    25f4:	dcc00315 	stw	r19,12(sp)
    25f8:	dc800215 	stw	r18,8(sp)
    25fc:	dc400115 	stw	r17,4(sp)
    2600:	dc000015 	stw	r16,0(sp)
    2604:	2027883a 	mov	r19,r4
    2608:	2821883a 	mov	r16,r5
    260c:	2c400017 	ldw	r17,0(r5)
    2610:	0002f740 	call	2f74 <strlen>
    2614:	14800044 	addi	r18,r2,1
    2618:	8c000726 	beq	r17,r16,2638 <alt_find_dev+0x4c>
    261c:	89000217 	ldw	r4,8(r17)
    2620:	980b883a 	mov	r5,r19
    2624:	900d883a 	mov	r6,r18
    2628:	0002c580 	call	2c58 <memcmp>
    262c:	10000326 	beq	r2,zero,263c <alt_find_dev+0x50>
    2630:	8c400017 	ldw	r17,0(r17)
    2634:	847ff91e 	bne	r16,r17,261c <alt_find_dev+0x30>
    2638:	0023883a 	mov	r17,zero
    263c:	8805883a 	mov	r2,r17
    2640:	dfc00417 	ldw	ra,16(sp)
    2644:	dcc00317 	ldw	r19,12(sp)
    2648:	dc800217 	ldw	r18,8(sp)
    264c:	dc400117 	ldw	r17,4(sp)
    2650:	dc000017 	ldw	r16,0(sp)
    2654:	dec00504 	addi	sp,sp,20
    2658:	f800283a 	ret

0000265c <alt_icache_flush_all>:
    265c:	deffff04 	addi	sp,sp,-4
    2660:	dfc00015 	stw	ra,0(sp)
    2664:	0009883a 	mov	r4,zero
    2668:	01408004 	movi	r5,512
    266c:	0002be40 	call	2be4 <alt_icache_flush>
    2670:	dfc00017 	ldw	ra,0(sp)
    2674:	dec00104 	addi	sp,sp,4
    2678:	f800283a 	ret

0000267c <alt_open_fd>:
    267c:	defffe04 	addi	sp,sp,-8
    2680:	dfc00115 	stw	ra,4(sp)
    2684:	dc000015 	stw	r16,0(sp)
    2688:	2021883a 	mov	r16,r4
    268c:	2809883a 	mov	r4,r5
    2690:	300b883a 	mov	r5,r6
    2694:	380d883a 	mov	r6,r7
    2698:	00028340 	call	2834 <open>
    269c:	1009883a 	mov	r4,r2
    26a0:	10000b16 	blt	r2,zero,26d0 <alt_open_fd+0x54>
    26a4:	10c00324 	muli	r3,r2,12
    26a8:	00800034 	movhi	r2,0
    26ac:	1099c604 	addi	r2,r2,26392
    26b0:	1887883a 	add	r3,r3,r2
    26b4:	18800017 	ldw	r2,0(r3)
    26b8:	80800015 	stw	r2,0(r16)
    26bc:	18800117 	ldw	r2,4(r3)
    26c0:	80800115 	stw	r2,4(r16)
    26c4:	18800217 	ldw	r2,8(r3)
    26c8:	80800215 	stw	r2,8(r16)
    26cc:	00029b00 	call	29b0 <alt_release_fd>
    26d0:	dfc00117 	ldw	ra,4(sp)
    26d4:	dc000017 	ldw	r16,0(sp)
    26d8:	dec00204 	addi	sp,sp,8
    26dc:	f800283a 	ret

000026e0 <alt_io_redirect>:
    26e0:	defffa04 	addi	sp,sp,-24
    26e4:	dfc00515 	stw	ra,20(sp)
    26e8:	dd000415 	stw	r20,16(sp)
    26ec:	dcc00315 	stw	r19,12(sp)
    26f0:	dc800215 	stw	r18,8(sp)
    26f4:	dc400115 	stw	r17,4(sp)
    26f8:	dc000015 	stw	r16,0(sp)
    26fc:	2005883a 	mov	r2,r4
    2700:	2827883a 	mov	r19,r5
    2704:	3029883a 	mov	r20,r6
    2708:	04000034 	movhi	r16,0
    270c:	8419c904 	addi	r16,r16,26404
    2710:	04800044 	movi	r18,1
    2714:	04407fc4 	movi	r17,511
    2718:	8009883a 	mov	r4,r16
    271c:	100b883a 	mov	r5,r2
    2720:	900d883a 	mov	r6,r18
    2724:	880f883a 	mov	r7,r17
    2728:	000267c0 	call	267c <alt_open_fd>
    272c:	843ffd04 	addi	r16,r16,-12
    2730:	8009883a 	mov	r4,r16
    2734:	980b883a 	mov	r5,r19
    2738:	000d883a 	mov	r6,zero
    273c:	880f883a 	mov	r7,r17
    2740:	000267c0 	call	267c <alt_open_fd>
    2744:	81000604 	addi	r4,r16,24
    2748:	a00b883a 	mov	r5,r20
    274c:	900d883a 	mov	r6,r18
    2750:	880f883a 	mov	r7,r17
    2754:	000267c0 	call	267c <alt_open_fd>
    2758:	dfc00517 	ldw	ra,20(sp)
    275c:	dd000417 	ldw	r20,16(sp)
    2760:	dcc00317 	ldw	r19,12(sp)
    2764:	dc800217 	ldw	r18,8(sp)
    2768:	dc400117 	ldw	r17,4(sp)
    276c:	dc000017 	ldw	r16,0(sp)
    2770:	dec00604 	addi	sp,sp,24
    2774:	f800283a 	ret

00002778 <alt_irq_register>:
    2778:	200f883a 	mov	r7,r4
    277c:	008007c4 	movi	r2,31
    2780:	1100022e 	bgeu	r2,r4,278c <alt_irq_register+0x14>
    2784:	00bffa84 	movi	r2,-22
    2788:	f800283a 	ret
    278c:	0011303a 	rdctl	r8,status
    2790:	013fff84 	movi	r4,-2
    2794:	4104703a 	and	r2,r8,r4
    2798:	1001703a 	wrctl	status,r2
    279c:	380490fa 	slli	r2,r7,3
    27a0:	00c00074 	movhi	r3,1
    27a4:	18e38104 	addi	r3,r3,-29180
    27a8:	10c5883a 	add	r2,r2,r3
    27ac:	11800015 	stw	r6,0(r2)
    27b0:	11400115 	stw	r5,4(r2)
    27b4:	30000e26 	beq	r6,zero,27f0 <alt_irq_register+0x78>
    27b8:	000b303a 	rdctl	r5,status
    27bc:	2904703a 	and	r2,r5,r4
    27c0:	1001703a 	wrctl	status,r2
    27c4:	00c00074 	movhi	r3,1
    27c8:	18e37004 	addi	r3,r3,-29248
    27cc:	19000017 	ldw	r4,0(r3)
    27d0:	00800044 	movi	r2,1
    27d4:	11c4983a 	sll	r2,r2,r7
    27d8:	1104b03a 	or	r2,r2,r4
    27dc:	18800015 	stw	r2,0(r3)
    27e0:	18800017 	ldw	r2,0(r3)
    27e4:	100170fa 	wrctl	ienable,r2
    27e8:	2801703a 	wrctl	status,r5
    27ec:	00000e06 	br	2828 <alt_irq_register+0xb0>
    27f0:	000b303a 	rdctl	r5,status
    27f4:	00bfff84 	movi	r2,-2
    27f8:	2884703a 	and	r2,r5,r2
    27fc:	1001703a 	wrctl	status,r2
    2800:	00c00074 	movhi	r3,1
    2804:	18e37004 	addi	r3,r3,-29248
    2808:	19000017 	ldw	r4,0(r3)
    280c:	00bfff84 	movi	r2,-2
    2810:	11c4183a 	rol	r2,r2,r7
    2814:	1104703a 	and	r2,r2,r4
    2818:	18800015 	stw	r2,0(r3)
    281c:	18800017 	ldw	r2,0(r3)
    2820:	100170fa 	wrctl	ienable,r2
    2824:	2801703a 	wrctl	status,r5
    2828:	4001703a 	wrctl	status,r8
    282c:	0005883a 	mov	r2,zero
    2830:	f800283a 	ret

00002834 <open>:
    2834:	defff904 	addi	sp,sp,-28
    2838:	dfc00615 	stw	ra,24(sp)
    283c:	dd400515 	stw	r21,20(sp)
    2840:	dd000415 	stw	r20,16(sp)
    2844:	dcc00315 	stw	r19,12(sp)
    2848:	dc800215 	stw	r18,8(sp)
    284c:	dc400115 	stw	r17,4(sp)
    2850:	dc000015 	stw	r16,0(sp)
    2854:	2029883a 	mov	r20,r4
    2858:	2827883a 	mov	r19,r5
    285c:	302b883a 	mov	r21,r6
    2860:	01400034 	movhi	r5,0
    2864:	295c2a04 	addi	r5,r5,28840
    2868:	00025ec0 	call	25ec <alt_find_dev>
    286c:	1021883a 	mov	r16,r2
    2870:	10000226 	beq	r2,zero,287c <open+0x48>
    2874:	0025883a 	mov	r18,zero
    2878:	00000a06 	br	28a4 <open+0x70>
    287c:	a009883a 	mov	r4,r20
    2880:	0002abc0 	call	2abc <alt_find_file>
    2884:	1021883a 	mov	r16,r2
    2888:	1000051e 	bne	r2,zero,28a0 <open+0x6c>
    288c:	047fffc4 	movi	r17,-1
    2890:	043ffb44 	movi	r16,-19
    2894:	00002b06 	br	2944 <open+0x110>
    2898:	043ffcc4 	movi	r16,-13
    289c:	00002906 	br	2944 <open+0x110>
    28a0:	04800044 	movi	r18,1
    28a4:	8009883a 	mov	r4,r16
    28a8:	0002b780 	call	2b78 <alt_get_fd>
    28ac:	1023883a 	mov	r17,r2
    28b0:	10003316 	blt	r2,zero,2980 <open+0x14c>
    28b4:	10800324 	muli	r2,r2,12
    28b8:	02000034 	movhi	r8,0
    28bc:	4219c604 	addi	r8,r8,26392
    28c0:	1209883a 	add	r4,r2,r8
    28c4:	00900034 	movhi	r2,16384
    28c8:	10bfffc4 	addi	r2,r2,-1
    28cc:	9886703a 	and	r3,r19,r2
    28d0:	20c00215 	stw	r3,8(r4)
    28d4:	9004c03a 	cmpne	r2,r18,zero
    28d8:	1000121e 	bne	r2,zero,2924 <open+0xf0>
    28dc:	18900034 	orhi	r2,r3,16384
    28e0:	20800215 	stw	r2,8(r4)
    28e4:	00800034 	movhi	r2,0
    28e8:	109c2c04 	addi	r2,r2,28848
    28ec:	11c00017 	ldw	r7,0(r2)
    28f0:	21800017 	ldw	r6,0(r4)
    28f4:	000b883a 	mov	r5,zero
    28f8:	4007883a 	mov	r3,r8
    28fc:	02400044 	movi	r9,1
    2900:	02000304 	movi	r8,12
    2904:	18800017 	ldw	r2,0(r3)
    2908:	1180031e 	bne	r2,r6,2918 <open+0xe4>
    290c:	18800217 	ldw	r2,8(r3)
    2910:	1000010e 	bge	r2,zero,2918 <open+0xe4>
    2914:	193fe01e 	bne	r3,r4,2898 <open+0x64>
    2918:	2a4b883a 	add	r5,r5,r9
    291c:	1a07883a 	add	r3,r3,r8
    2920:	397ff82e 	bgeu	r7,r5,2904 <open+0xd0>
    2924:	80800317 	ldw	r2,12(r16)
    2928:	10001726 	beq	r2,zero,2988 <open+0x154>
    292c:	a00b883a 	mov	r5,r20
    2930:	980d883a 	mov	r6,r19
    2934:	a80f883a 	mov	r7,r21
    2938:	103ee83a 	callr	r2
    293c:	1021883a 	mov	r16,r2
    2940:	1000110e 	bge	r2,zero,2988 <open+0x154>
    2944:	8809883a 	mov	r4,r17
    2948:	00029b00 	call	29b0 <alt_release_fd>
    294c:	00800034 	movhi	r2,0
    2950:	109c2d04 	addi	r2,r2,28852
    2954:	10800017 	ldw	r2,0(r2)
    2958:	1000031e 	bne	r2,zero,2968 <open+0x134>
    295c:	00c00074 	movhi	r3,1
    2960:	18e37304 	addi	r3,r3,-29236
    2964:	00000206 	br	2970 <open+0x13c>
    2968:	103ee83a 	callr	r2
    296c:	1007883a 	mov	r3,r2
    2970:	0405c83a 	sub	r2,zero,r16
    2974:	18800015 	stw	r2,0(r3)
    2978:	047fffc4 	movi	r17,-1
    297c:	00000206 	br	2988 <open+0x154>
    2980:	1021883a 	mov	r16,r2
    2984:	003fef06 	br	2944 <open+0x110>
    2988:	8805883a 	mov	r2,r17
    298c:	dfc00617 	ldw	ra,24(sp)
    2990:	dd400517 	ldw	r21,20(sp)
    2994:	dd000417 	ldw	r20,16(sp)
    2998:	dcc00317 	ldw	r19,12(sp)
    299c:	dc800217 	ldw	r18,8(sp)
    29a0:	dc400117 	ldw	r17,4(sp)
    29a4:	dc000017 	ldw	r16,0(sp)
    29a8:	dec00704 	addi	sp,sp,28
    29ac:	f800283a 	ret

000029b0 <alt_release_fd>:
    29b0:	00800084 	movi	r2,2
    29b4:	1100060e 	bge	r2,r4,29d0 <alt_release_fd+0x20>
    29b8:	20800324 	muli	r2,r4,12
    29bc:	00c00034 	movhi	r3,0
    29c0:	18d9c604 	addi	r3,r3,26392
    29c4:	10c5883a 	add	r2,r2,r3
    29c8:	10000215 	stw	zero,8(r2)
    29cc:	10000015 	stw	zero,0(r2)
    29d0:	f800283a 	ret

000029d4 <alt_alarm_stop>:
    29d4:	000b303a 	rdctl	r5,status
    29d8:	00bfff84 	movi	r2,-2
    29dc:	2884703a 	and	r2,r5,r2
    29e0:	1001703a 	wrctl	status,r2
    29e4:	20c00017 	ldw	r3,0(r4)
    29e8:	20800117 	ldw	r2,4(r4)
    29ec:	18800115 	stw	r2,4(r3)
    29f0:	20800117 	ldw	r2,4(r4)
    29f4:	10c00015 	stw	r3,0(r2)
    29f8:	21000115 	stw	r4,4(r4)
    29fc:	21000015 	stw	r4,0(r4)
    2a00:	2801703a 	wrctl	status,r5
    2a04:	f800283a 	ret

00002a08 <alt_tick>:
    2a08:	defffd04 	addi	sp,sp,-12
    2a0c:	dfc00215 	stw	ra,8(sp)
    2a10:	dc400115 	stw	r17,4(sp)
    2a14:	dc000015 	stw	r16,0(sp)
    2a18:	d4200717 	ldw	r16,-32740(gp)
    2a1c:	d0a74a17 	ldw	r2,-25304(gp)
    2a20:	10800044 	addi	r2,r2,1
    2a24:	d0a74a15 	stw	r2,-25304(gp)
    2a28:	00001b06 	br	2a98 <alt_tick+0x90>
    2a2c:	84400017 	ldw	r17,0(r16)
    2a30:	80800403 	ldbu	r2,16(r16)
    2a34:	10000326 	beq	r2,zero,2a44 <alt_tick+0x3c>
    2a38:	d0a74a17 	ldw	r2,-25304(gp)
    2a3c:	1000011e 	bne	r2,zero,2a44 <alt_tick+0x3c>
    2a40:	80000405 	stb	zero,16(r16)
    2a44:	d0e74a17 	ldw	r3,-25304(gp)
    2a48:	80800217 	ldw	r2,8(r16)
    2a4c:	18801136 	bltu	r3,r2,2a94 <alt_tick+0x8c>
    2a50:	80800403 	ldbu	r2,16(r16)
    2a54:	10000f1e 	bne	r2,zero,2a94 <alt_tick+0x8c>
    2a58:	80800317 	ldw	r2,12(r16)
    2a5c:	81000517 	ldw	r4,20(r16)
    2a60:	103ee83a 	callr	r2
    2a64:	1007883a 	mov	r3,r2
    2a68:	1000031e 	bne	r2,zero,2a78 <alt_tick+0x70>
    2a6c:	8009883a 	mov	r4,r16
    2a70:	00029d40 	call	29d4 <alt_alarm_stop>
    2a74:	00000706 	br	2a94 <alt_tick+0x8c>
    2a78:	80800217 	ldw	r2,8(r16)
    2a7c:	1885883a 	add	r2,r3,r2
    2a80:	80800215 	stw	r2,8(r16)
    2a84:	d0e74a17 	ldw	r3,-25304(gp)
    2a88:	10c0022e 	bgeu	r2,r3,2a94 <alt_tick+0x8c>
    2a8c:	00800044 	movi	r2,1
    2a90:	80800405 	stb	r2,16(r16)
    2a94:	8821883a 	mov	r16,r17
    2a98:	d0a00704 	addi	r2,gp,-32740
    2a9c:	80bfe31e 	bne	r16,r2,2a2c <alt_tick+0x24>
    2aa0:	dfc00217 	ldw	ra,8(sp)
    2aa4:	dc400117 	ldw	r17,4(sp)
    2aa8:	dc000017 	ldw	r16,0(sp)
    2aac:	dec00304 	addi	sp,sp,12
    2ab0:	f800283a 	ret

00002ab4 <altera_nios2_qsys_irq_init>:
    2ab4:	000170fa 	wrctl	ienable,zero
    2ab8:	f800283a 	ret

00002abc <alt_find_file>:
    2abc:	defff904 	addi	sp,sp,-28
    2ac0:	dfc00615 	stw	ra,24(sp)
    2ac4:	dd400515 	stw	r21,20(sp)
    2ac8:	dd000415 	stw	r20,16(sp)
    2acc:	dcc00315 	stw	r19,12(sp)
    2ad0:	dc800215 	stw	r18,8(sp)
    2ad4:	dc400115 	stw	r17,4(sp)
    2ad8:	dc000015 	stw	r16,0(sp)
    2adc:	2025883a 	mov	r18,r4
    2ae0:	00800034 	movhi	r2,0
    2ae4:	109c2804 	addi	r2,r2,28832
    2ae8:	14400017 	ldw	r17,0(r2)
    2aec:	102b883a 	mov	r21,r2
    2af0:	88801626 	beq	r17,r2,2b4c <alt_find_file+0x90>
    2af4:	053fffc4 	movi	r20,-1
    2af8:	04c00bc4 	movi	r19,47
    2afc:	8c000217 	ldw	r16,8(r17)
    2b00:	8009883a 	mov	r4,r16
    2b04:	0002f740 	call	2f74 <strlen>
    2b08:	1007883a 	mov	r3,r2
    2b0c:	8085883a 	add	r2,r16,r2
    2b10:	1505883a 	add	r2,r2,r20
    2b14:	10800007 	ldb	r2,0(r2)
    2b18:	14c0011e 	bne	r2,r19,2b20 <alt_find_file+0x64>
    2b1c:	1d07883a 	add	r3,r3,r20
    2b20:	1c85883a 	add	r2,r3,r18
    2b24:	10800007 	ldb	r2,0(r2)
    2b28:	14c00126 	beq	r2,r19,2b30 <alt_find_file+0x74>
    2b2c:	1000051e 	bne	r2,zero,2b44 <alt_find_file+0x88>
    2b30:	8009883a 	mov	r4,r16
    2b34:	900b883a 	mov	r5,r18
    2b38:	180d883a 	mov	r6,r3
    2b3c:	0002c580 	call	2c58 <memcmp>
    2b40:	10000326 	beq	r2,zero,2b50 <alt_find_file+0x94>
    2b44:	8c400017 	ldw	r17,0(r17)
    2b48:	8d7fec1e 	bne	r17,r21,2afc <alt_find_file+0x40>
    2b4c:	0023883a 	mov	r17,zero
    2b50:	8805883a 	mov	r2,r17
    2b54:	dfc00617 	ldw	ra,24(sp)
    2b58:	dd400517 	ldw	r21,20(sp)
    2b5c:	dd000417 	ldw	r20,16(sp)
    2b60:	dcc00317 	ldw	r19,12(sp)
    2b64:	dc800217 	ldw	r18,8(sp)
    2b68:	dc400117 	ldw	r17,4(sp)
    2b6c:	dc000017 	ldw	r16,0(sp)
    2b70:	dec00704 	addi	sp,sp,28
    2b74:	f800283a 	ret

00002b78 <alt_get_fd>:
    2b78:	000b883a 	mov	r5,zero
    2b7c:	00c00034 	movhi	r3,0
    2b80:	18d9c604 	addi	r3,r3,26392
    2b84:	02000304 	movi	r8,12
    2b88:	02400034 	movhi	r9,0
    2b8c:	4a5c2c04 	addi	r9,r9,28848
    2b90:	01c00044 	movi	r7,1
    2b94:	01800804 	movi	r6,32
    2b98:	18800017 	ldw	r2,0(r3)
    2b9c:	10000c1e 	bne	r2,zero,2bd0 <alt_get_fd+0x58>
    2ba0:	2a05383a 	mul	r2,r5,r8
    2ba4:	00c00034 	movhi	r3,0
    2ba8:	18d9c604 	addi	r3,r3,26392
    2bac:	10c5883a 	add	r2,r2,r3
    2bb0:	11000015 	stw	r4,0(r2)
    2bb4:	48800017 	ldw	r2,0(r9)
    2bb8:	11400216 	blt	r2,r5,2bc4 <alt_get_fd+0x4c>
    2bbc:	2805883a 	mov	r2,r5
    2bc0:	f800283a 	ret
    2bc4:	49400015 	stw	r5,0(r9)
    2bc8:	2805883a 	mov	r2,r5
    2bcc:	f800283a 	ret
    2bd0:	29cb883a 	add	r5,r5,r7
    2bd4:	1a07883a 	add	r3,r3,r8
    2bd8:	29bfef1e 	bne	r5,r6,2b98 <alt_get_fd+0x20>
    2bdc:	00bffa04 	movi	r2,-24
    2be0:	f800283a 	ret

00002be4 <alt_icache_flush>:
    2be4:	2007883a 	mov	r3,r4
    2be8:	00808004 	movi	r2,512
    2bec:	1140012e 	bgeu	r2,r5,2bf4 <alt_icache_flush+0x10>
    2bf0:	100b883a 	mov	r5,r2
    2bf4:	194b883a 	add	r5,r3,r5
    2bf8:	1940042e 	bgeu	r3,r5,2c0c <alt_icache_flush+0x28>
    2bfc:	00800804 	movi	r2,32
    2c00:	1800603a 	flushi	r3
    2c04:	1887883a 	add	r3,r3,r2
    2c08:	197ffd36 	bltu	r3,r5,2c00 <alt_icache_flush+0x1c>
    2c0c:	208007cc 	andi	r2,r4,31
    2c10:	10000126 	beq	r2,zero,2c18 <alt_icache_flush+0x34>
    2c14:	1800603a 	flushi	r3
    2c18:	0000203a 	flushp
    2c1c:	f800283a 	ret

00002c20 <exit>:
    2c20:	defffe04 	addi	sp,sp,-8
    2c24:	000b883a 	mov	r5,zero
    2c28:	dc000015 	stw	r16,0(sp)
    2c2c:	dfc00115 	stw	ra,4(sp)
    2c30:	2021883a 	mov	r16,r4
    2c34:	00032740 	call	3274 <__call_exitprocs>
    2c38:	00800034 	movhi	r2,0
    2c3c:	109c3204 	addi	r2,r2,28872
    2c40:	11000017 	ldw	r4,0(r2)
    2c44:	20800f17 	ldw	r2,60(r4)
    2c48:	10000126 	beq	r2,zero,2c50 <exit+0x30>
    2c4c:	103ee83a 	callr	r2
    2c50:	8009883a 	mov	r4,r16
    2c54:	0004ddc0 	call	4ddc <_exit>

00002c58 <memcmp>:
    2c58:	00c000c4 	movi	r3,3
    2c5c:	1980032e 	bgeu	r3,r6,2c6c <memcmp+0x14>
    2c60:	2144b03a 	or	r2,r4,r5
    2c64:	10c4703a 	and	r2,r2,r3
    2c68:	10000f26 	beq	r2,zero,2ca8 <memcmp+0x50>
    2c6c:	31ffffc4 	addi	r7,r6,-1
    2c70:	3000061e 	bne	r6,zero,2c8c <memcmp+0x34>
    2c74:	00000a06 	br	2ca0 <memcmp+0x48>
    2c78:	39ffffc4 	addi	r7,r7,-1
    2c7c:	00bfffc4 	movi	r2,-1
    2c80:	21000044 	addi	r4,r4,1
    2c84:	29400044 	addi	r5,r5,1
    2c88:	38800526 	beq	r7,r2,2ca0 <memcmp+0x48>
    2c8c:	20c00003 	ldbu	r3,0(r4)
    2c90:	28800003 	ldbu	r2,0(r5)
    2c94:	18bff826 	beq	r3,r2,2c78 <memcmp+0x20>
    2c98:	1885c83a 	sub	r2,r3,r2
    2c9c:	f800283a 	ret
    2ca0:	0005883a 	mov	r2,zero
    2ca4:	f800283a 	ret
    2ca8:	180f883a 	mov	r7,r3
    2cac:	20c00017 	ldw	r3,0(r4)
    2cb0:	28800017 	ldw	r2,0(r5)
    2cb4:	18bfed1e 	bne	r3,r2,2c6c <memcmp+0x14>
    2cb8:	31bfff04 	addi	r6,r6,-4
    2cbc:	21000104 	addi	r4,r4,4
    2cc0:	29400104 	addi	r5,r5,4
    2cc4:	39bff936 	bltu	r7,r6,2cac <memcmp+0x54>
    2cc8:	003fe806 	br	2c6c <memcmp+0x14>

00002ccc <putc>:
    2ccc:	defffc04 	addi	sp,sp,-16
    2cd0:	dc800215 	stw	r18,8(sp)
    2cd4:	04800034 	movhi	r18,0
    2cd8:	949c3104 	addi	r18,r18,28868
    2cdc:	90c00017 	ldw	r3,0(r18)
    2ce0:	dc400115 	stw	r17,4(sp)
    2ce4:	dc000015 	stw	r16,0(sp)
    2ce8:	dfc00315 	stw	ra,12(sp)
    2cec:	2023883a 	mov	r17,r4
    2cf0:	2821883a 	mov	r16,r5
    2cf4:	18000226 	beq	r3,zero,2d00 <putc+0x34>
    2cf8:	18800e17 	ldw	r2,56(r3)
    2cfc:	10001126 	beq	r2,zero,2d44 <putc+0x78>
    2d00:	80800217 	ldw	r2,8(r16)
    2d04:	10ffffc4 	addi	r3,r2,-1
    2d08:	80c00215 	stw	r3,8(r16)
    2d0c:	18001316 	blt	r3,zero,2d5c <putc+0x90>
    2d10:	80800017 	ldw	r2,0(r16)
    2d14:	14400005 	stb	r17,0(r2)
    2d18:	80c00017 	ldw	r3,0(r16)
    2d1c:	18800044 	addi	r2,r3,1
    2d20:	18c00003 	ldbu	r3,0(r3)
    2d24:	80800015 	stw	r2,0(r16)
    2d28:	1805883a 	mov	r2,r3
    2d2c:	dfc00317 	ldw	ra,12(sp)
    2d30:	dc800217 	ldw	r18,8(sp)
    2d34:	dc400117 	ldw	r17,4(sp)
    2d38:	dc000017 	ldw	r16,0(sp)
    2d3c:	dec00404 	addi	sp,sp,16
    2d40:	f800283a 	ret
    2d44:	1809883a 	mov	r4,r3
    2d48:	00036bc0 	call	36bc <__sinit>
    2d4c:	80800217 	ldw	r2,8(r16)
    2d50:	10ffffc4 	addi	r3,r2,-1
    2d54:	80c00215 	stw	r3,8(r16)
    2d58:	183fed0e 	bge	r3,zero,2d10 <putc+0x44>
    2d5c:	80800617 	ldw	r2,24(r16)
    2d60:	18800f16 	blt	r3,r2,2da0 <putc+0xd4>
    2d64:	80800017 	ldw	r2,0(r16)
    2d68:	14400005 	stb	r17,0(r2)
    2d6c:	81000017 	ldw	r4,0(r16)
    2d70:	00800284 	movi	r2,10
    2d74:	20c00003 	ldbu	r3,0(r4)
    2d78:	18801226 	beq	r3,r2,2dc4 <putc+0xf8>
    2d7c:	20800044 	addi	r2,r4,1
    2d80:	80800015 	stw	r2,0(r16)
    2d84:	1805883a 	mov	r2,r3
    2d88:	dfc00317 	ldw	ra,12(sp)
    2d8c:	dc800217 	ldw	r18,8(sp)
    2d90:	dc400117 	ldw	r17,4(sp)
    2d94:	dc000017 	ldw	r16,0(sp)
    2d98:	dec00404 	addi	sp,sp,16
    2d9c:	f800283a 	ret
    2da0:	91000017 	ldw	r4,0(r18)
    2da4:	880b883a 	mov	r5,r17
    2da8:	800d883a 	mov	r6,r16
    2dac:	dfc00317 	ldw	ra,12(sp)
    2db0:	dc800217 	ldw	r18,8(sp)
    2db4:	dc400117 	ldw	r17,4(sp)
    2db8:	dc000017 	ldw	r16,0(sp)
    2dbc:	dec00404 	addi	sp,sp,16
    2dc0:	0002fe81 	jmpi	2fe8 <__swbuf_r>
    2dc4:	91000017 	ldw	r4,0(r18)
    2dc8:	180b883a 	mov	r5,r3
    2dcc:	003ff606 	br	2da8 <putc+0xdc>

00002dd0 <_putc_r>:
    2dd0:	defffc04 	addi	sp,sp,-16
    2dd4:	dc400215 	stw	r17,8(sp)
    2dd8:	dc000115 	stw	r16,4(sp)
    2ddc:	dfc00315 	stw	ra,12(sp)
    2de0:	2021883a 	mov	r16,r4
    2de4:	2823883a 	mov	r17,r5
    2de8:	20000226 	beq	r4,zero,2df4 <_putc_r+0x24>
    2dec:	20800e17 	ldw	r2,56(r4)
    2df0:	10001026 	beq	r2,zero,2e34 <_putc_r+0x64>
    2df4:	30800217 	ldw	r2,8(r6)
    2df8:	10ffffc4 	addi	r3,r2,-1
    2dfc:	30c00215 	stw	r3,8(r6)
    2e00:	18001316 	blt	r3,zero,2e50 <_putc_r+0x80>
    2e04:	30800017 	ldw	r2,0(r6)
    2e08:	14400005 	stb	r17,0(r2)
    2e0c:	30c00017 	ldw	r3,0(r6)
    2e10:	18800044 	addi	r2,r3,1
    2e14:	18c00003 	ldbu	r3,0(r3)
    2e18:	30800015 	stw	r2,0(r6)
    2e1c:	1805883a 	mov	r2,r3
    2e20:	dfc00317 	ldw	ra,12(sp)
    2e24:	dc400217 	ldw	r17,8(sp)
    2e28:	dc000117 	ldw	r16,4(sp)
    2e2c:	dec00404 	addi	sp,sp,16
    2e30:	f800283a 	ret
    2e34:	d9800015 	stw	r6,0(sp)
    2e38:	00036bc0 	call	36bc <__sinit>
    2e3c:	d9800017 	ldw	r6,0(sp)
    2e40:	30800217 	ldw	r2,8(r6)
    2e44:	10ffffc4 	addi	r3,r2,-1
    2e48:	30c00215 	stw	r3,8(r6)
    2e4c:	183fed0e 	bge	r3,zero,2e04 <_putc_r+0x34>
    2e50:	30800617 	ldw	r2,24(r6)
    2e54:	18800e16 	blt	r3,r2,2e90 <_putc_r+0xc0>
    2e58:	30800017 	ldw	r2,0(r6)
    2e5c:	14400005 	stb	r17,0(r2)
    2e60:	31000017 	ldw	r4,0(r6)
    2e64:	00800284 	movi	r2,10
    2e68:	20c00003 	ldbu	r3,0(r4)
    2e6c:	18800f26 	beq	r3,r2,2eac <_putc_r+0xdc>
    2e70:	20800044 	addi	r2,r4,1
    2e74:	30800015 	stw	r2,0(r6)
    2e78:	1805883a 	mov	r2,r3
    2e7c:	dfc00317 	ldw	ra,12(sp)
    2e80:	dc400217 	ldw	r17,8(sp)
    2e84:	dc000117 	ldw	r16,4(sp)
    2e88:	dec00404 	addi	sp,sp,16
    2e8c:	f800283a 	ret
    2e90:	8009883a 	mov	r4,r16
    2e94:	880b883a 	mov	r5,r17
    2e98:	dfc00317 	ldw	ra,12(sp)
    2e9c:	dc400217 	ldw	r17,8(sp)
    2ea0:	dc000117 	ldw	r16,4(sp)
    2ea4:	dec00404 	addi	sp,sp,16
    2ea8:	0002fe81 	jmpi	2fe8 <__swbuf_r>
    2eac:	8009883a 	mov	r4,r16
    2eb0:	180b883a 	mov	r5,r3
    2eb4:	003ff806 	br	2e98 <_putc_r+0xc8>

00002eb8 <strcmp>:
    2eb8:	2144b03a 	or	r2,r4,r5
    2ebc:	108000cc 	andi	r2,r2,3
    2ec0:	10001d1e 	bne	r2,zero,2f38 <strcmp+0x80>
    2ec4:	200f883a 	mov	r7,r4
    2ec8:	28800017 	ldw	r2,0(r5)
    2ecc:	21000017 	ldw	r4,0(r4)
    2ed0:	280d883a 	mov	r6,r5
    2ed4:	2080161e 	bne	r4,r2,2f30 <strcmp+0x78>
    2ed8:	023fbff4 	movhi	r8,65279
    2edc:	423fbfc4 	addi	r8,r8,-257
    2ee0:	2207883a 	add	r3,r4,r8
    2ee4:	01602074 	movhi	r5,32897
    2ee8:	29602004 	addi	r5,r5,-32640
    2eec:	1946703a 	and	r3,r3,r5
    2ef0:	0104303a 	nor	r2,zero,r4
    2ef4:	10c4703a 	and	r2,r2,r3
    2ef8:	10001c1e 	bne	r2,zero,2f6c <strcmp+0xb4>
    2efc:	4013883a 	mov	r9,r8
    2f00:	2811883a 	mov	r8,r5
    2f04:	00000106 	br	2f0c <strcmp+0x54>
    2f08:	1800181e 	bne	r3,zero,2f6c <strcmp+0xb4>
    2f0c:	39c00104 	addi	r7,r7,4
    2f10:	39000017 	ldw	r4,0(r7)
    2f14:	31800104 	addi	r6,r6,4
    2f18:	31400017 	ldw	r5,0(r6)
    2f1c:	2245883a 	add	r2,r4,r9
    2f20:	1204703a 	and	r2,r2,r8
    2f24:	0106303a 	nor	r3,zero,r4
    2f28:	1886703a 	and	r3,r3,r2
    2f2c:	217ff626 	beq	r4,r5,2f08 <strcmp+0x50>
    2f30:	3809883a 	mov	r4,r7
    2f34:	300b883a 	mov	r5,r6
    2f38:	20c00007 	ldb	r3,0(r4)
    2f3c:	1800051e 	bne	r3,zero,2f54 <strcmp+0x9c>
    2f40:	00000606 	br	2f5c <strcmp+0xa4>
    2f44:	21000044 	addi	r4,r4,1
    2f48:	20c00007 	ldb	r3,0(r4)
    2f4c:	29400044 	addi	r5,r5,1
    2f50:	18000226 	beq	r3,zero,2f5c <strcmp+0xa4>
    2f54:	28800007 	ldb	r2,0(r5)
    2f58:	18bffa26 	beq	r3,r2,2f44 <strcmp+0x8c>
    2f5c:	20c00003 	ldbu	r3,0(r4)
    2f60:	28800003 	ldbu	r2,0(r5)
    2f64:	1885c83a 	sub	r2,r3,r2
    2f68:	f800283a 	ret
    2f6c:	0005883a 	mov	r2,zero
    2f70:	f800283a 	ret

00002f74 <strlen>:
    2f74:	208000cc 	andi	r2,r4,3
    2f78:	2011883a 	mov	r8,r4
    2f7c:	1000161e 	bne	r2,zero,2fd8 <strlen+0x64>
    2f80:	20c00017 	ldw	r3,0(r4)
    2f84:	017fbff4 	movhi	r5,65279
    2f88:	297fbfc4 	addi	r5,r5,-257
    2f8c:	01e02074 	movhi	r7,32897
    2f90:	39e02004 	addi	r7,r7,-32640
    2f94:	1945883a 	add	r2,r3,r5
    2f98:	11c4703a 	and	r2,r2,r7
    2f9c:	00c6303a 	nor	r3,zero,r3
    2fa0:	1886703a 	and	r3,r3,r2
    2fa4:	18000c1e 	bne	r3,zero,2fd8 <strlen+0x64>
    2fa8:	280d883a 	mov	r6,r5
    2fac:	380b883a 	mov	r5,r7
    2fb0:	21000104 	addi	r4,r4,4
    2fb4:	20800017 	ldw	r2,0(r4)
    2fb8:	1187883a 	add	r3,r2,r6
    2fbc:	1946703a 	and	r3,r3,r5
    2fc0:	0084303a 	nor	r2,zero,r2
    2fc4:	10c4703a 	and	r2,r2,r3
    2fc8:	103ff926 	beq	r2,zero,2fb0 <strlen+0x3c>
    2fcc:	20800007 	ldb	r2,0(r4)
    2fd0:	10000326 	beq	r2,zero,2fe0 <strlen+0x6c>
    2fd4:	21000044 	addi	r4,r4,1
    2fd8:	20800007 	ldb	r2,0(r4)
    2fdc:	103ffd1e 	bne	r2,zero,2fd4 <strlen+0x60>
    2fe0:	2205c83a 	sub	r2,r4,r8
    2fe4:	f800283a 	ret

00002fe8 <__swbuf_r>:
    2fe8:	defffc04 	addi	sp,sp,-16
    2fec:	dc400215 	stw	r17,8(sp)
    2ff0:	dc000115 	stw	r16,4(sp)
    2ff4:	dfc00315 	stw	ra,12(sp)
    2ff8:	2023883a 	mov	r17,r4
    2ffc:	2821883a 	mov	r16,r5
    3000:	20000226 	beq	r4,zero,300c <__swbuf_r+0x24>
    3004:	20800e17 	ldw	r2,56(r4)
    3008:	10002f26 	beq	r2,zero,30c8 <__swbuf_r+0xe0>
    300c:	3080030b 	ldhu	r2,12(r6)
    3010:	30c00617 	ldw	r3,24(r6)
    3014:	1080020c 	andi	r2,r2,8
    3018:	30c00215 	stw	r3,8(r6)
    301c:	10002226 	beq	r2,zero,30a8 <__swbuf_r+0xc0>
    3020:	30c00417 	ldw	r3,16(r6)
    3024:	18002026 	beq	r3,zero,30a8 <__swbuf_r+0xc0>
    3028:	31000017 	ldw	r4,0(r6)
    302c:	30800517 	ldw	r2,20(r6)
    3030:	20c7c83a 	sub	r3,r4,r3
    3034:	18802f0e 	bge	r3,r2,30f4 <__swbuf_r+0x10c>
    3038:	19400044 	addi	r5,r3,1
    303c:	30800217 	ldw	r2,8(r6)
    3040:	84003fcc 	andi	r16,r16,255
    3044:	20c00044 	addi	r3,r4,1
    3048:	10bfffc4 	addi	r2,r2,-1
    304c:	30800215 	stw	r2,8(r6)
    3050:	24000005 	stb	r16,0(r4)
    3054:	30800517 	ldw	r2,20(r6)
    3058:	30c00015 	stw	r3,0(r6)
    305c:	11400c26 	beq	r2,r5,3090 <__swbuf_r+0xa8>
    3060:	3080030b 	ldhu	r2,12(r6)
    3064:	1080004c 	andi	r2,r2,1
    3068:	1005003a 	cmpeq	r2,r2,zero
    306c:	10000626 	beq	r2,zero,3088 <__swbuf_r+0xa0>
    3070:	8005883a 	mov	r2,r16
    3074:	dfc00317 	ldw	ra,12(sp)
    3078:	dc400217 	ldw	r17,8(sp)
    307c:	dc000117 	ldw	r16,4(sp)
    3080:	dec00404 	addi	sp,sp,16
    3084:	f800283a 	ret
    3088:	00800284 	movi	r2,10
    308c:	80bff81e 	bne	r16,r2,3070 <__swbuf_r+0x88>
    3090:	8809883a 	mov	r4,r17
    3094:	300b883a 	mov	r5,r6
    3098:	00034240 	call	3424 <_fflush_r>
    309c:	103ff426 	beq	r2,zero,3070 <__swbuf_r+0x88>
    30a0:	043fffc4 	movi	r16,-1
    30a4:	003ff206 	br	3070 <__swbuf_r+0x88>
    30a8:	300b883a 	mov	r5,r6
    30ac:	8809883a 	mov	r4,r17
    30b0:	d9800015 	stw	r6,0(sp)
    30b4:	00031340 	call	3134 <__swsetup_r>
    30b8:	d9800017 	ldw	r6,0(sp)
    30bc:	1000061e 	bne	r2,zero,30d8 <__swbuf_r+0xf0>
    30c0:	30c00417 	ldw	r3,16(r6)
    30c4:	003fd806 	br	3028 <__swbuf_r+0x40>
    30c8:	d9800015 	stw	r6,0(sp)
    30cc:	00036bc0 	call	36bc <__sinit>
    30d0:	d9800017 	ldw	r6,0(sp)
    30d4:	003fcd06 	br	300c <__swbuf_r+0x24>
    30d8:	3080030b 	ldhu	r2,12(r6)
    30dc:	00c00244 	movi	r3,9
    30e0:	043fffc4 	movi	r16,-1
    30e4:	10801014 	ori	r2,r2,64
    30e8:	3080030d 	sth	r2,12(r6)
    30ec:	88c00015 	stw	r3,0(r17)
    30f0:	003fdf06 	br	3070 <__swbuf_r+0x88>
    30f4:	300b883a 	mov	r5,r6
    30f8:	8809883a 	mov	r4,r17
    30fc:	d9800015 	stw	r6,0(sp)
    3100:	00034240 	call	3424 <_fflush_r>
    3104:	d9800017 	ldw	r6,0(sp)
    3108:	103fe51e 	bne	r2,zero,30a0 <__swbuf_r+0xb8>
    310c:	31000017 	ldw	r4,0(r6)
    3110:	01400044 	movi	r5,1
    3114:	003fc906 	br	303c <__swbuf_r+0x54>

00003118 <__swbuf>:
    3118:	01800034 	movhi	r6,0
    311c:	319c3104 	addi	r6,r6,28868
    3120:	2007883a 	mov	r3,r4
    3124:	31000017 	ldw	r4,0(r6)
    3128:	280d883a 	mov	r6,r5
    312c:	180b883a 	mov	r5,r3
    3130:	0002fe81 	jmpi	2fe8 <__swbuf_r>

00003134 <__swsetup_r>:
    3134:	00800034 	movhi	r2,0
    3138:	109c3104 	addi	r2,r2,28868
    313c:	10c00017 	ldw	r3,0(r2)
    3140:	defffd04 	addi	sp,sp,-12
    3144:	dc400115 	stw	r17,4(sp)
    3148:	dc000015 	stw	r16,0(sp)
    314c:	dfc00215 	stw	ra,8(sp)
    3150:	2023883a 	mov	r17,r4
    3154:	2821883a 	mov	r16,r5
    3158:	18000226 	beq	r3,zero,3164 <__swsetup_r+0x30>
    315c:	18800e17 	ldw	r2,56(r3)
    3160:	10001f26 	beq	r2,zero,31e0 <__swsetup_r+0xac>
    3164:	8100030b 	ldhu	r4,12(r16)
    3168:	2080020c 	andi	r2,r4,8
    316c:	10002826 	beq	r2,zero,3210 <__swsetup_r+0xdc>
    3170:	81400417 	ldw	r5,16(r16)
    3174:	28001d26 	beq	r5,zero,31ec <__swsetup_r+0xb8>
    3178:	2080004c 	andi	r2,r4,1
    317c:	1005003a 	cmpeq	r2,r2,zero
    3180:	10000b26 	beq	r2,zero,31b0 <__swsetup_r+0x7c>
    3184:	2080008c 	andi	r2,r4,2
    3188:	10001226 	beq	r2,zero,31d4 <__swsetup_r+0xa0>
    318c:	0005883a 	mov	r2,zero
    3190:	80800215 	stw	r2,8(r16)
    3194:	28000b26 	beq	r5,zero,31c4 <__swsetup_r+0x90>
    3198:	0005883a 	mov	r2,zero
    319c:	dfc00217 	ldw	ra,8(sp)
    31a0:	dc400117 	ldw	r17,4(sp)
    31a4:	dc000017 	ldw	r16,0(sp)
    31a8:	dec00304 	addi	sp,sp,12
    31ac:	f800283a 	ret
    31b0:	80800517 	ldw	r2,20(r16)
    31b4:	80000215 	stw	zero,8(r16)
    31b8:	0085c83a 	sub	r2,zero,r2
    31bc:	80800615 	stw	r2,24(r16)
    31c0:	283ff51e 	bne	r5,zero,3198 <__swsetup_r+0x64>
    31c4:	2080200c 	andi	r2,r4,128
    31c8:	103ff326 	beq	r2,zero,3198 <__swsetup_r+0x64>
    31cc:	00bfffc4 	movi	r2,-1
    31d0:	003ff206 	br	319c <__swsetup_r+0x68>
    31d4:	80800517 	ldw	r2,20(r16)
    31d8:	80800215 	stw	r2,8(r16)
    31dc:	003fed06 	br	3194 <__swsetup_r+0x60>
    31e0:	1809883a 	mov	r4,r3
    31e4:	00036bc0 	call	36bc <__sinit>
    31e8:	003fde06 	br	3164 <__swsetup_r+0x30>
    31ec:	20c0a00c 	andi	r3,r4,640
    31f0:	00808004 	movi	r2,512
    31f4:	18bfe026 	beq	r3,r2,3178 <__swsetup_r+0x44>
    31f8:	8809883a 	mov	r4,r17
    31fc:	800b883a 	mov	r5,r16
    3200:	0003ed40 	call	3ed4 <__smakebuf_r>
    3204:	8100030b 	ldhu	r4,12(r16)
    3208:	81400417 	ldw	r5,16(r16)
    320c:	003fda06 	br	3178 <__swsetup_r+0x44>
    3210:	2080040c 	andi	r2,r4,16
    3214:	103fed26 	beq	r2,zero,31cc <__swsetup_r+0x98>
    3218:	2080010c 	andi	r2,r4,4
    321c:	10001226 	beq	r2,zero,3268 <__swsetup_r+0x134>
    3220:	81400c17 	ldw	r5,48(r16)
    3224:	28000526 	beq	r5,zero,323c <__swsetup_r+0x108>
    3228:	80801004 	addi	r2,r16,64
    322c:	28800226 	beq	r5,r2,3238 <__swsetup_r+0x104>
    3230:	8809883a 	mov	r4,r17
    3234:	0003a400 	call	3a40 <_free_r>
    3238:	80000c15 	stw	zero,48(r16)
    323c:	8080030b 	ldhu	r2,12(r16)
    3240:	81400417 	ldw	r5,16(r16)
    3244:	80000115 	stw	zero,4(r16)
    3248:	10bff6cc 	andi	r2,r2,65499
    324c:	8080030d 	sth	r2,12(r16)
    3250:	81400015 	stw	r5,0(r16)
    3254:	8080030b 	ldhu	r2,12(r16)
    3258:	10800214 	ori	r2,r2,8
    325c:	113fffcc 	andi	r4,r2,65535
    3260:	8080030d 	sth	r2,12(r16)
    3264:	003fc306 	br	3174 <__swsetup_r+0x40>
    3268:	81400417 	ldw	r5,16(r16)
    326c:	003ff906 	br	3254 <__swsetup_r+0x120>

00003270 <register_fini>:
    3270:	f800283a 	ret

00003274 <__call_exitprocs>:
    3274:	00800034 	movhi	r2,0
    3278:	109c3204 	addi	r2,r2,28872
    327c:	10800017 	ldw	r2,0(r2)
    3280:	defff304 	addi	sp,sp,-52
    3284:	df000b15 	stw	fp,44(sp)
    3288:	d8800115 	stw	r2,4(sp)
    328c:	00800034 	movhi	r2,0
    3290:	10800004 	addi	r2,r2,0
    3294:	1005003a 	cmpeq	r2,r2,zero
    3298:	d8800215 	stw	r2,8(sp)
    329c:	d8800117 	ldw	r2,4(sp)
    32a0:	dd400815 	stw	r21,32(sp)
    32a4:	dd000715 	stw	r20,28(sp)
    32a8:	10805204 	addi	r2,r2,328
    32ac:	dfc00c15 	stw	ra,48(sp)
    32b0:	ddc00a15 	stw	r23,40(sp)
    32b4:	dd800915 	stw	r22,36(sp)
    32b8:	dcc00615 	stw	r19,24(sp)
    32bc:	dc800515 	stw	r18,20(sp)
    32c0:	dc400415 	stw	r17,16(sp)
    32c4:	dc000315 	stw	r16,12(sp)
    32c8:	282b883a 	mov	r21,r5
    32cc:	2039883a 	mov	fp,r4
    32d0:	d8800015 	stw	r2,0(sp)
    32d4:	2829003a 	cmpeq	r20,r5,zero
    32d8:	d8800117 	ldw	r2,4(sp)
    32dc:	14405217 	ldw	r17,328(r2)
    32e0:	88001026 	beq	r17,zero,3324 <__call_exitprocs+0xb0>
    32e4:	ddc00017 	ldw	r23,0(sp)
    32e8:	88800117 	ldw	r2,4(r17)
    32ec:	8c802204 	addi	r18,r17,136
    32f0:	143fffc4 	addi	r16,r2,-1
    32f4:	80000916 	blt	r16,zero,331c <__call_exitprocs+0xa8>
    32f8:	05bfffc4 	movi	r22,-1
    32fc:	a000151e 	bne	r20,zero,3354 <__call_exitprocs+0xe0>
    3300:	8409883a 	add	r4,r16,r16
    3304:	2105883a 	add	r2,r4,r4
    3308:	1485883a 	add	r2,r2,r18
    330c:	10c02017 	ldw	r3,128(r2)
    3310:	a8c01126 	beq	r21,r3,3358 <__call_exitprocs+0xe4>
    3314:	843fffc4 	addi	r16,r16,-1
    3318:	85bff81e 	bne	r16,r22,32fc <__call_exitprocs+0x88>
    331c:	d8800217 	ldw	r2,8(sp)
    3320:	10003126 	beq	r2,zero,33e8 <__call_exitprocs+0x174>
    3324:	dfc00c17 	ldw	ra,48(sp)
    3328:	df000b17 	ldw	fp,44(sp)
    332c:	ddc00a17 	ldw	r23,40(sp)
    3330:	dd800917 	ldw	r22,36(sp)
    3334:	dd400817 	ldw	r21,32(sp)
    3338:	dd000717 	ldw	r20,28(sp)
    333c:	dcc00617 	ldw	r19,24(sp)
    3340:	dc800517 	ldw	r18,20(sp)
    3344:	dc400417 	ldw	r17,16(sp)
    3348:	dc000317 	ldw	r16,12(sp)
    334c:	dec00d04 	addi	sp,sp,52
    3350:	f800283a 	ret
    3354:	8409883a 	add	r4,r16,r16
    3358:	88c00117 	ldw	r3,4(r17)
    335c:	2105883a 	add	r2,r4,r4
    3360:	1445883a 	add	r2,r2,r17
    3364:	18ffffc4 	addi	r3,r3,-1
    3368:	11800217 	ldw	r6,8(r2)
    336c:	1c001526 	beq	r3,r16,33c4 <__call_exitprocs+0x150>
    3370:	10000215 	stw	zero,8(r2)
    3374:	303fe726 	beq	r6,zero,3314 <__call_exitprocs+0xa0>
    3378:	00c00044 	movi	r3,1
    337c:	1c06983a 	sll	r3,r3,r16
    3380:	90804017 	ldw	r2,256(r18)
    3384:	8cc00117 	ldw	r19,4(r17)
    3388:	1884703a 	and	r2,r3,r2
    338c:	10001426 	beq	r2,zero,33e0 <__call_exitprocs+0x16c>
    3390:	90804117 	ldw	r2,260(r18)
    3394:	1884703a 	and	r2,r3,r2
    3398:	10000c1e 	bne	r2,zero,33cc <__call_exitprocs+0x158>
    339c:	2105883a 	add	r2,r4,r4
    33a0:	1485883a 	add	r2,r2,r18
    33a4:	11400017 	ldw	r5,0(r2)
    33a8:	e009883a 	mov	r4,fp
    33ac:	303ee83a 	callr	r6
    33b0:	88800117 	ldw	r2,4(r17)
    33b4:	98bfc81e 	bne	r19,r2,32d8 <__call_exitprocs+0x64>
    33b8:	b8800017 	ldw	r2,0(r23)
    33bc:	147fd526 	beq	r2,r17,3314 <__call_exitprocs+0xa0>
    33c0:	003fc506 	br	32d8 <__call_exitprocs+0x64>
    33c4:	8c000115 	stw	r16,4(r17)
    33c8:	003fea06 	br	3374 <__call_exitprocs+0x100>
    33cc:	2105883a 	add	r2,r4,r4
    33d0:	1485883a 	add	r2,r2,r18
    33d4:	11000017 	ldw	r4,0(r2)
    33d8:	303ee83a 	callr	r6
    33dc:	003ff406 	br	33b0 <__call_exitprocs+0x13c>
    33e0:	303ee83a 	callr	r6
    33e4:	003ff206 	br	33b0 <__call_exitprocs+0x13c>
    33e8:	88800117 	ldw	r2,4(r17)
    33ec:	1000081e 	bne	r2,zero,3410 <__call_exitprocs+0x19c>
    33f0:	89000017 	ldw	r4,0(r17)
    33f4:	20000726 	beq	r4,zero,3414 <__call_exitprocs+0x1a0>
    33f8:	b9000015 	stw	r4,0(r23)
    33fc:	8809883a 	mov	r4,r17
    3400:	00000000 	call	0 <__alt_mem_SDRAM>
    3404:	bc400017 	ldw	r17,0(r23)
    3408:	883fb71e 	bne	r17,zero,32e8 <__call_exitprocs+0x74>
    340c:	003fc506 	br	3324 <__call_exitprocs+0xb0>
    3410:	89000017 	ldw	r4,0(r17)
    3414:	882f883a 	mov	r23,r17
    3418:	2023883a 	mov	r17,r4
    341c:	883fb21e 	bne	r17,zero,32e8 <__call_exitprocs+0x74>
    3420:	003fc006 	br	3324 <__call_exitprocs+0xb0>

00003424 <_fflush_r>:
    3424:	defffb04 	addi	sp,sp,-20
    3428:	dcc00315 	stw	r19,12(sp)
    342c:	dc800215 	stw	r18,8(sp)
    3430:	dfc00415 	stw	ra,16(sp)
    3434:	dc400115 	stw	r17,4(sp)
    3438:	dc000015 	stw	r16,0(sp)
    343c:	2027883a 	mov	r19,r4
    3440:	2825883a 	mov	r18,r5
    3444:	20000226 	beq	r4,zero,3450 <_fflush_r+0x2c>
    3448:	20800e17 	ldw	r2,56(r4)
    344c:	10005626 	beq	r2,zero,35a8 <_fflush_r+0x184>
    3450:	9100030b 	ldhu	r4,12(r18)
    3454:	20ffffcc 	andi	r3,r4,65535
    3458:	18e0001c 	xori	r3,r3,32768
    345c:	18e00004 	addi	r3,r3,-32768
    3460:	1880020c 	andi	r2,r3,8
    3464:	1000261e 	bne	r2,zero,3500 <_fflush_r+0xdc>
    3468:	90c00117 	ldw	r3,4(r18)
    346c:	20820014 	ori	r2,r4,2048
    3470:	9080030d 	sth	r2,12(r18)
    3474:	1009883a 	mov	r4,r2
    3478:	00c0400e 	bge	zero,r3,357c <_fflush_r+0x158>
    347c:	92000a17 	ldw	r8,40(r18)
    3480:	40004026 	beq	r8,zero,3584 <_fflush_r+0x160>
    3484:	2084000c 	andi	r2,r4,4096
    3488:	10005326 	beq	r2,zero,35d8 <_fflush_r+0x1b4>
    348c:	94001417 	ldw	r16,80(r18)
    3490:	9080030b 	ldhu	r2,12(r18)
    3494:	1080010c 	andi	r2,r2,4
    3498:	1000481e 	bne	r2,zero,35bc <_fflush_r+0x198>
    349c:	91400717 	ldw	r5,28(r18)
    34a0:	9809883a 	mov	r4,r19
    34a4:	800d883a 	mov	r6,r16
    34a8:	000f883a 	mov	r7,zero
    34ac:	403ee83a 	callr	r8
    34b0:	8080261e 	bne	r16,r2,354c <_fflush_r+0x128>
    34b4:	9080030b 	ldhu	r2,12(r18)
    34b8:	91000417 	ldw	r4,16(r18)
    34bc:	90000115 	stw	zero,4(r18)
    34c0:	10bdffcc 	andi	r2,r2,63487
    34c4:	10ffffcc 	andi	r3,r2,65535
    34c8:	18c4000c 	andi	r3,r3,4096
    34cc:	9080030d 	sth	r2,12(r18)
    34d0:	91000015 	stw	r4,0(r18)
    34d4:	18002b26 	beq	r3,zero,3584 <_fflush_r+0x160>
    34d8:	0007883a 	mov	r3,zero
    34dc:	1805883a 	mov	r2,r3
    34e0:	94001415 	stw	r16,80(r18)
    34e4:	dfc00417 	ldw	ra,16(sp)
    34e8:	dcc00317 	ldw	r19,12(sp)
    34ec:	dc800217 	ldw	r18,8(sp)
    34f0:	dc400117 	ldw	r17,4(sp)
    34f4:	dc000017 	ldw	r16,0(sp)
    34f8:	dec00504 	addi	sp,sp,20
    34fc:	f800283a 	ret
    3500:	94400417 	ldw	r17,16(r18)
    3504:	88001f26 	beq	r17,zero,3584 <_fflush_r+0x160>
    3508:	90800017 	ldw	r2,0(r18)
    350c:	18c000cc 	andi	r3,r3,3
    3510:	94400015 	stw	r17,0(r18)
    3514:	1461c83a 	sub	r16,r2,r17
    3518:	18002526 	beq	r3,zero,35b0 <_fflush_r+0x18c>
    351c:	0005883a 	mov	r2,zero
    3520:	90800215 	stw	r2,8(r18)
    3524:	0400170e 	bge	zero,r16,3584 <_fflush_r+0x160>
    3528:	90c00917 	ldw	r3,36(r18)
    352c:	91400717 	ldw	r5,28(r18)
    3530:	880d883a 	mov	r6,r17
    3534:	800f883a 	mov	r7,r16
    3538:	9809883a 	mov	r4,r19
    353c:	183ee83a 	callr	r3
    3540:	88a3883a 	add	r17,r17,r2
    3544:	80a1c83a 	sub	r16,r16,r2
    3548:	00bff616 	blt	zero,r2,3524 <_fflush_r+0x100>
    354c:	9080030b 	ldhu	r2,12(r18)
    3550:	00ffffc4 	movi	r3,-1
    3554:	10801014 	ori	r2,r2,64
    3558:	9080030d 	sth	r2,12(r18)
    355c:	1805883a 	mov	r2,r3
    3560:	dfc00417 	ldw	ra,16(sp)
    3564:	dcc00317 	ldw	r19,12(sp)
    3568:	dc800217 	ldw	r18,8(sp)
    356c:	dc400117 	ldw	r17,4(sp)
    3570:	dc000017 	ldw	r16,0(sp)
    3574:	dec00504 	addi	sp,sp,20
    3578:	f800283a 	ret
    357c:	90800f17 	ldw	r2,60(r18)
    3580:	00bfbe16 	blt	zero,r2,347c <_fflush_r+0x58>
    3584:	0007883a 	mov	r3,zero
    3588:	1805883a 	mov	r2,r3
    358c:	dfc00417 	ldw	ra,16(sp)
    3590:	dcc00317 	ldw	r19,12(sp)
    3594:	dc800217 	ldw	r18,8(sp)
    3598:	dc400117 	ldw	r17,4(sp)
    359c:	dc000017 	ldw	r16,0(sp)
    35a0:	dec00504 	addi	sp,sp,20
    35a4:	f800283a 	ret
    35a8:	00036bc0 	call	36bc <__sinit>
    35ac:	003fa806 	br	3450 <_fflush_r+0x2c>
    35b0:	90800517 	ldw	r2,20(r18)
    35b4:	90800215 	stw	r2,8(r18)
    35b8:	003fda06 	br	3524 <_fflush_r+0x100>
    35bc:	90800117 	ldw	r2,4(r18)
    35c0:	90c00c17 	ldw	r3,48(r18)
    35c4:	80a1c83a 	sub	r16,r16,r2
    35c8:	183fb426 	beq	r3,zero,349c <_fflush_r+0x78>
    35cc:	90800f17 	ldw	r2,60(r18)
    35d0:	80a1c83a 	sub	r16,r16,r2
    35d4:	003fb106 	br	349c <_fflush_r+0x78>
    35d8:	91400717 	ldw	r5,28(r18)
    35dc:	9809883a 	mov	r4,r19
    35e0:	000d883a 	mov	r6,zero
    35e4:	01c00044 	movi	r7,1
    35e8:	403ee83a 	callr	r8
    35ec:	1021883a 	mov	r16,r2
    35f0:	00bfffc4 	movi	r2,-1
    35f4:	80800226 	beq	r16,r2,3600 <_fflush_r+0x1dc>
    35f8:	92000a17 	ldw	r8,40(r18)
    35fc:	003fa406 	br	3490 <_fflush_r+0x6c>
    3600:	98c00017 	ldw	r3,0(r19)
    3604:	00800744 	movi	r2,29
    3608:	18bfde26 	beq	r3,r2,3584 <_fflush_r+0x160>
    360c:	9080030b 	ldhu	r2,12(r18)
    3610:	8007883a 	mov	r3,r16
    3614:	10801014 	ori	r2,r2,64
    3618:	9080030d 	sth	r2,12(r18)
    361c:	003fcf06 	br	355c <_fflush_r+0x138>

00003620 <fflush>:
    3620:	01400034 	movhi	r5,0
    3624:	294d0904 	addi	r5,r5,13348
    3628:	2007883a 	mov	r3,r4
    362c:	20000526 	beq	r4,zero,3644 <fflush+0x24>
    3630:	00800034 	movhi	r2,0
    3634:	109c3104 	addi	r2,r2,28868
    3638:	11000017 	ldw	r4,0(r2)
    363c:	180b883a 	mov	r5,r3
    3640:	00034241 	jmpi	3424 <_fflush_r>
    3644:	00800034 	movhi	r2,0
    3648:	109c3204 	addi	r2,r2,28872
    364c:	11000017 	ldw	r4,0(r2)
    3650:	0003d541 	jmpi	3d54 <_fwalk_reent>

00003654 <std>:
    3654:	00800034 	movhi	r2,0
    3658:	10922c04 	addi	r2,r2,18608
    365c:	20800b15 	stw	r2,44(r4)
    3660:	00800034 	movhi	r2,0
    3664:	10926704 	addi	r2,r2,18844
    3668:	20800815 	stw	r2,32(r4)
    366c:	00c00034 	movhi	r3,0
    3670:	18d24804 	addi	r3,r3,18720
    3674:	00800034 	movhi	r2,0
    3678:	10922e04 	addi	r2,r2,18616
    367c:	2140030d 	sth	r5,12(r4)
    3680:	2180038d 	sth	r6,14(r4)
    3684:	20c00915 	stw	r3,36(r4)
    3688:	20800a15 	stw	r2,40(r4)
    368c:	20000015 	stw	zero,0(r4)
    3690:	20000115 	stw	zero,4(r4)
    3694:	20000215 	stw	zero,8(r4)
    3698:	20000415 	stw	zero,16(r4)
    369c:	20000515 	stw	zero,20(r4)
    36a0:	20000615 	stw	zero,24(r4)
    36a4:	21000715 	stw	r4,28(r4)
    36a8:	f800283a 	ret

000036ac <__sfp_lock_acquire>:
    36ac:	f800283a 	ret

000036b0 <__sfp_lock_release>:
    36b0:	f800283a 	ret

000036b4 <__sinit_lock_acquire>:
    36b4:	f800283a 	ret

000036b8 <__sinit_lock_release>:
    36b8:	f800283a 	ret

000036bc <__sinit>:
    36bc:	20800e17 	ldw	r2,56(r4)
    36c0:	defffd04 	addi	sp,sp,-12
    36c4:	dc400115 	stw	r17,4(sp)
    36c8:	dc000015 	stw	r16,0(sp)
    36cc:	dfc00215 	stw	ra,8(sp)
    36d0:	04400044 	movi	r17,1
    36d4:	01400104 	movi	r5,4
    36d8:	000d883a 	mov	r6,zero
    36dc:	2021883a 	mov	r16,r4
    36e0:	2200bb04 	addi	r8,r4,748
    36e4:	200f883a 	mov	r7,r4
    36e8:	10000526 	beq	r2,zero,3700 <__sinit+0x44>
    36ec:	dfc00217 	ldw	ra,8(sp)
    36f0:	dc400117 	ldw	r17,4(sp)
    36f4:	dc000017 	ldw	r16,0(sp)
    36f8:	dec00304 	addi	sp,sp,12
    36fc:	f800283a 	ret
    3700:	21000117 	ldw	r4,4(r4)
    3704:	00800034 	movhi	r2,0
    3708:	108de804 	addi	r2,r2,14240
    370c:	00c000c4 	movi	r3,3
    3710:	80800f15 	stw	r2,60(r16)
    3714:	80c0b915 	stw	r3,740(r16)
    3718:	8200ba15 	stw	r8,744(r16)
    371c:	84400e15 	stw	r17,56(r16)
    3720:	8000b815 	stw	zero,736(r16)
    3724:	00036540 	call	3654 <std>
    3728:	81000217 	ldw	r4,8(r16)
    372c:	880d883a 	mov	r6,r17
    3730:	800f883a 	mov	r7,r16
    3734:	01400284 	movi	r5,10
    3738:	00036540 	call	3654 <std>
    373c:	81000317 	ldw	r4,12(r16)
    3740:	800f883a 	mov	r7,r16
    3744:	01400484 	movi	r5,18
    3748:	01800084 	movi	r6,2
    374c:	dfc00217 	ldw	ra,8(sp)
    3750:	dc400117 	ldw	r17,4(sp)
    3754:	dc000017 	ldw	r16,0(sp)
    3758:	dec00304 	addi	sp,sp,12
    375c:	00036541 	jmpi	3654 <std>

00003760 <__fp_lock>:
    3760:	0005883a 	mov	r2,zero
    3764:	f800283a 	ret

00003768 <__fp_unlock>:
    3768:	0005883a 	mov	r2,zero
    376c:	f800283a 	ret

00003770 <__fp_unlock_all>:
    3770:	00800034 	movhi	r2,0
    3774:	109c3104 	addi	r2,r2,28868
    3778:	11000017 	ldw	r4,0(r2)
    377c:	01400034 	movhi	r5,0
    3780:	294dda04 	addi	r5,r5,14184
    3784:	0003e1c1 	jmpi	3e1c <_fwalk>

00003788 <__fp_lock_all>:
    3788:	00800034 	movhi	r2,0
    378c:	109c3104 	addi	r2,r2,28868
    3790:	11000017 	ldw	r4,0(r2)
    3794:	01400034 	movhi	r5,0
    3798:	294dd804 	addi	r5,r5,14176
    379c:	0003e1c1 	jmpi	3e1c <_fwalk>

000037a0 <_cleanup_r>:
    37a0:	01400034 	movhi	r5,0
    37a4:	2952fd04 	addi	r5,r5,19444
    37a8:	0003e1c1 	jmpi	3e1c <_fwalk>

000037ac <_cleanup>:
    37ac:	00800034 	movhi	r2,0
    37b0:	109c3204 	addi	r2,r2,28872
    37b4:	11000017 	ldw	r4,0(r2)
    37b8:	00037a01 	jmpi	37a0 <_cleanup_r>

000037bc <__sfmoreglue>:
    37bc:	defffc04 	addi	sp,sp,-16
    37c0:	dc400115 	stw	r17,4(sp)
    37c4:	2c401724 	muli	r17,r5,92
    37c8:	dc800215 	stw	r18,8(sp)
    37cc:	2825883a 	mov	r18,r5
    37d0:	89400304 	addi	r5,r17,12
    37d4:	dc000015 	stw	r16,0(sp)
    37d8:	dfc00315 	stw	ra,12(sp)
    37dc:	00040680 	call	4068 <_malloc_r>
    37e0:	0021883a 	mov	r16,zero
    37e4:	880d883a 	mov	r6,r17
    37e8:	000b883a 	mov	r5,zero
    37ec:	10000626 	beq	r2,zero,3808 <__sfmoreglue+0x4c>
    37f0:	11000304 	addi	r4,r2,12
    37f4:	14800115 	stw	r18,4(r2)
    37f8:	10000015 	stw	zero,0(r2)
    37fc:	11000215 	stw	r4,8(r2)
    3800:	1021883a 	mov	r16,r2
    3804:	00047a80 	call	47a8 <memset>
    3808:	8005883a 	mov	r2,r16
    380c:	dfc00317 	ldw	ra,12(sp)
    3810:	dc800217 	ldw	r18,8(sp)
    3814:	dc400117 	ldw	r17,4(sp)
    3818:	dc000017 	ldw	r16,0(sp)
    381c:	dec00404 	addi	sp,sp,16
    3820:	f800283a 	ret

00003824 <__sfp>:
    3824:	defffd04 	addi	sp,sp,-12
    3828:	00800034 	movhi	r2,0
    382c:	109c3204 	addi	r2,r2,28872
    3830:	dc000015 	stw	r16,0(sp)
    3834:	14000017 	ldw	r16,0(r2)
    3838:	dc400115 	stw	r17,4(sp)
    383c:	dfc00215 	stw	ra,8(sp)
    3840:	80800e17 	ldw	r2,56(r16)
    3844:	2023883a 	mov	r17,r4
    3848:	10002626 	beq	r2,zero,38e4 <__sfp+0xc0>
    384c:	8400b804 	addi	r16,r16,736
    3850:	80800117 	ldw	r2,4(r16)
    3854:	81000217 	ldw	r4,8(r16)
    3858:	10ffffc4 	addi	r3,r2,-1
    385c:	18000916 	blt	r3,zero,3884 <__sfp+0x60>
    3860:	2080030f 	ldh	r2,12(r4)
    3864:	10000b26 	beq	r2,zero,3894 <__sfp+0x70>
    3868:	017fffc4 	movi	r5,-1
    386c:	00000206 	br	3878 <__sfp+0x54>
    3870:	2080030f 	ldh	r2,12(r4)
    3874:	10000726 	beq	r2,zero,3894 <__sfp+0x70>
    3878:	18ffffc4 	addi	r3,r3,-1
    387c:	21001704 	addi	r4,r4,92
    3880:	197ffb1e 	bne	r3,r5,3870 <__sfp+0x4c>
    3884:	80800017 	ldw	r2,0(r16)
    3888:	10001926 	beq	r2,zero,38f0 <__sfp+0xcc>
    388c:	1021883a 	mov	r16,r2
    3890:	003fef06 	br	3850 <__sfp+0x2c>
    3894:	00bfffc4 	movi	r2,-1
    3898:	00c00044 	movi	r3,1
    389c:	2080038d 	sth	r2,14(r4)
    38a0:	20c0030d 	sth	r3,12(r4)
    38a4:	20000015 	stw	zero,0(r4)
    38a8:	20000215 	stw	zero,8(r4)
    38ac:	20000115 	stw	zero,4(r4)
    38b0:	20000415 	stw	zero,16(r4)
    38b4:	20000515 	stw	zero,20(r4)
    38b8:	20000615 	stw	zero,24(r4)
    38bc:	20000c15 	stw	zero,48(r4)
    38c0:	20000d15 	stw	zero,52(r4)
    38c4:	20001115 	stw	zero,68(r4)
    38c8:	20001215 	stw	zero,72(r4)
    38cc:	2005883a 	mov	r2,r4
    38d0:	dfc00217 	ldw	ra,8(sp)
    38d4:	dc400117 	ldw	r17,4(sp)
    38d8:	dc000017 	ldw	r16,0(sp)
    38dc:	dec00304 	addi	sp,sp,12
    38e0:	f800283a 	ret
    38e4:	8009883a 	mov	r4,r16
    38e8:	00036bc0 	call	36bc <__sinit>
    38ec:	003fd706 	br	384c <__sfp+0x28>
    38f0:	8809883a 	mov	r4,r17
    38f4:	01400104 	movi	r5,4
    38f8:	00037bc0 	call	37bc <__sfmoreglue>
    38fc:	80800015 	stw	r2,0(r16)
    3900:	103fe21e 	bne	r2,zero,388c <__sfp+0x68>
    3904:	00800304 	movi	r2,12
    3908:	0009883a 	mov	r4,zero
    390c:	88800015 	stw	r2,0(r17)
    3910:	003fee06 	br	38cc <__sfp+0xa8>

00003914 <_malloc_trim_r>:
    3914:	defffb04 	addi	sp,sp,-20
    3918:	dcc00315 	stw	r19,12(sp)
    391c:	04c00034 	movhi	r19,0
    3920:	9cdb2604 	addi	r19,r19,27800
    3924:	dc800215 	stw	r18,8(sp)
    3928:	dc400115 	stw	r17,4(sp)
    392c:	dc000015 	stw	r16,0(sp)
    3930:	2823883a 	mov	r17,r5
    3934:	2025883a 	mov	r18,r4
    3938:	dfc00415 	stw	ra,16(sp)
    393c:	0004f8c0 	call	4f8c <__malloc_lock>
    3940:	98800217 	ldw	r2,8(r19)
    3944:	9009883a 	mov	r4,r18
    3948:	000b883a 	mov	r5,zero
    394c:	10c00117 	ldw	r3,4(r2)
    3950:	00bfff04 	movi	r2,-4
    3954:	18a0703a 	and	r16,r3,r2
    3958:	8463c83a 	sub	r17,r16,r17
    395c:	8c43fbc4 	addi	r17,r17,4079
    3960:	8822d33a 	srli	r17,r17,12
    3964:	0083ffc4 	movi	r2,4095
    3968:	8c7fffc4 	addi	r17,r17,-1
    396c:	8822933a 	slli	r17,r17,12
    3970:	1440060e 	bge	r2,r17,398c <_malloc_trim_r+0x78>
    3974:	00048400 	call	4840 <_sbrk_r>
    3978:	98c00217 	ldw	r3,8(r19)
    397c:	9009883a 	mov	r4,r18
    3980:	044bc83a 	sub	r5,zero,r17
    3984:	80c7883a 	add	r3,r16,r3
    3988:	10c00926 	beq	r2,r3,39b0 <_malloc_trim_r+0x9c>
    398c:	0004f900 	call	4f90 <__malloc_unlock>
    3990:	0005883a 	mov	r2,zero
    3994:	dfc00417 	ldw	ra,16(sp)
    3998:	dcc00317 	ldw	r19,12(sp)
    399c:	dc800217 	ldw	r18,8(sp)
    39a0:	dc400117 	ldw	r17,4(sp)
    39a4:	dc000017 	ldw	r16,0(sp)
    39a8:	dec00504 	addi	sp,sp,20
    39ac:	f800283a 	ret
    39b0:	9009883a 	mov	r4,r18
    39b4:	00048400 	call	4840 <_sbrk_r>
    39b8:	844dc83a 	sub	r6,r16,r17
    39bc:	00ffffc4 	movi	r3,-1
    39c0:	9009883a 	mov	r4,r18
    39c4:	000b883a 	mov	r5,zero
    39c8:	01c00074 	movhi	r7,1
    39cc:	39e37704 	addi	r7,r7,-29220
    39d0:	31800054 	ori	r6,r6,1
    39d4:	10c00926 	beq	r2,r3,39fc <_malloc_trim_r+0xe8>
    39d8:	38800017 	ldw	r2,0(r7)
    39dc:	98c00217 	ldw	r3,8(r19)
    39e0:	9009883a 	mov	r4,r18
    39e4:	1445c83a 	sub	r2,r2,r17
    39e8:	38800015 	stw	r2,0(r7)
    39ec:	19800115 	stw	r6,4(r3)
    39f0:	0004f900 	call	4f90 <__malloc_unlock>
    39f4:	00800044 	movi	r2,1
    39f8:	003fe606 	br	3994 <_malloc_trim_r+0x80>
    39fc:	00048400 	call	4840 <_sbrk_r>
    3a00:	99800217 	ldw	r6,8(r19)
    3a04:	100f883a 	mov	r7,r2
    3a08:	9009883a 	mov	r4,r18
    3a0c:	1187c83a 	sub	r3,r2,r6
    3a10:	008003c4 	movi	r2,15
    3a14:	19400054 	ori	r5,r3,1
    3a18:	10ffdc0e 	bge	r2,r3,398c <_malloc_trim_r+0x78>
    3a1c:	00800034 	movhi	r2,0
    3a20:	109c3404 	addi	r2,r2,28880
    3a24:	10c00017 	ldw	r3,0(r2)
    3a28:	00800074 	movhi	r2,1
    3a2c:	10a37704 	addi	r2,r2,-29220
    3a30:	31400115 	stw	r5,4(r6)
    3a34:	38c7c83a 	sub	r3,r7,r3
    3a38:	10c00015 	stw	r3,0(r2)
    3a3c:	003fd306 	br	398c <_malloc_trim_r+0x78>

00003a40 <_free_r>:
    3a40:	defffd04 	addi	sp,sp,-12
    3a44:	dc400115 	stw	r17,4(sp)
    3a48:	dc000015 	stw	r16,0(sp)
    3a4c:	dfc00215 	stw	ra,8(sp)
    3a50:	2821883a 	mov	r16,r5
    3a54:	2023883a 	mov	r17,r4
    3a58:	28005a26 	beq	r5,zero,3bc4 <_free_r+0x184>
    3a5c:	0004f8c0 	call	4f8c <__malloc_lock>
    3a60:	823ffe04 	addi	r8,r16,-8
    3a64:	41400117 	ldw	r5,4(r8)
    3a68:	00bfff84 	movi	r2,-2
    3a6c:	02800034 	movhi	r10,0
    3a70:	529b2604 	addi	r10,r10,27800
    3a74:	288e703a 	and	r7,r5,r2
    3a78:	41cd883a 	add	r6,r8,r7
    3a7c:	30c00117 	ldw	r3,4(r6)
    3a80:	51000217 	ldw	r4,8(r10)
    3a84:	00bfff04 	movi	r2,-4
    3a88:	1892703a 	and	r9,r3,r2
    3a8c:	5017883a 	mov	r11,r10
    3a90:	31006726 	beq	r6,r4,3c30 <_free_r+0x1f0>
    3a94:	2880004c 	andi	r2,r5,1
    3a98:	1005003a 	cmpeq	r2,r2,zero
    3a9c:	32400115 	stw	r9,4(r6)
    3aa0:	10001a1e 	bne	r2,zero,3b0c <_free_r+0xcc>
    3aa4:	000b883a 	mov	r5,zero
    3aa8:	3247883a 	add	r3,r6,r9
    3aac:	18800117 	ldw	r2,4(r3)
    3ab0:	1080004c 	andi	r2,r2,1
    3ab4:	1000231e 	bne	r2,zero,3b44 <_free_r+0x104>
    3ab8:	280ac03a 	cmpne	r5,r5,zero
    3abc:	3a4f883a 	add	r7,r7,r9
    3ac0:	2800451e 	bne	r5,zero,3bd8 <_free_r+0x198>
    3ac4:	31000217 	ldw	r4,8(r6)
    3ac8:	00800034 	movhi	r2,0
    3acc:	109b2804 	addi	r2,r2,27808
    3ad0:	20807b26 	beq	r4,r2,3cc0 <_free_r+0x280>
    3ad4:	30800317 	ldw	r2,12(r6)
    3ad8:	3a07883a 	add	r3,r7,r8
    3adc:	19c00015 	stw	r7,0(r3)
    3ae0:	11000215 	stw	r4,8(r2)
    3ae4:	20800315 	stw	r2,12(r4)
    3ae8:	38800054 	ori	r2,r7,1
    3aec:	40800115 	stw	r2,4(r8)
    3af0:	28001a26 	beq	r5,zero,3b5c <_free_r+0x11c>
    3af4:	8809883a 	mov	r4,r17
    3af8:	dfc00217 	ldw	ra,8(sp)
    3afc:	dc400117 	ldw	r17,4(sp)
    3b00:	dc000017 	ldw	r16,0(sp)
    3b04:	dec00304 	addi	sp,sp,12
    3b08:	0004f901 	jmpi	4f90 <__malloc_unlock>
    3b0c:	80bffe17 	ldw	r2,-8(r16)
    3b10:	50c00204 	addi	r3,r10,8
    3b14:	4091c83a 	sub	r8,r8,r2
    3b18:	41000217 	ldw	r4,8(r8)
    3b1c:	388f883a 	add	r7,r7,r2
    3b20:	20c06126 	beq	r4,r3,3ca8 <_free_r+0x268>
    3b24:	40800317 	ldw	r2,12(r8)
    3b28:	3247883a 	add	r3,r6,r9
    3b2c:	000b883a 	mov	r5,zero
    3b30:	11000215 	stw	r4,8(r2)
    3b34:	20800315 	stw	r2,12(r4)
    3b38:	18800117 	ldw	r2,4(r3)
    3b3c:	1080004c 	andi	r2,r2,1
    3b40:	103fdd26 	beq	r2,zero,3ab8 <_free_r+0x78>
    3b44:	38800054 	ori	r2,r7,1
    3b48:	3a07883a 	add	r3,r7,r8
    3b4c:	280ac03a 	cmpne	r5,r5,zero
    3b50:	40800115 	stw	r2,4(r8)
    3b54:	19c00015 	stw	r7,0(r3)
    3b58:	283fe61e 	bne	r5,zero,3af4 <_free_r+0xb4>
    3b5c:	00807fc4 	movi	r2,511
    3b60:	11c01f2e 	bgeu	r2,r7,3be0 <_free_r+0x1a0>
    3b64:	3806d27a 	srli	r3,r7,9
    3b68:	1800481e 	bne	r3,zero,3c8c <_free_r+0x24c>
    3b6c:	3804d0fa 	srli	r2,r7,3
    3b70:	100690fa 	slli	r3,r2,3
    3b74:	1acd883a 	add	r6,r3,r11
    3b78:	31400217 	ldw	r5,8(r6)
    3b7c:	31405926 	beq	r6,r5,3ce4 <_free_r+0x2a4>
    3b80:	28800117 	ldw	r2,4(r5)
    3b84:	00ffff04 	movi	r3,-4
    3b88:	10c4703a 	and	r2,r2,r3
    3b8c:	3880022e 	bgeu	r7,r2,3b98 <_free_r+0x158>
    3b90:	29400217 	ldw	r5,8(r5)
    3b94:	317ffa1e 	bne	r6,r5,3b80 <_free_r+0x140>
    3b98:	29800317 	ldw	r6,12(r5)
    3b9c:	41800315 	stw	r6,12(r8)
    3ba0:	41400215 	stw	r5,8(r8)
    3ba4:	8809883a 	mov	r4,r17
    3ba8:	2a000315 	stw	r8,12(r5)
    3bac:	32000215 	stw	r8,8(r6)
    3bb0:	dfc00217 	ldw	ra,8(sp)
    3bb4:	dc400117 	ldw	r17,4(sp)
    3bb8:	dc000017 	ldw	r16,0(sp)
    3bbc:	dec00304 	addi	sp,sp,12
    3bc0:	0004f901 	jmpi	4f90 <__malloc_unlock>
    3bc4:	dfc00217 	ldw	ra,8(sp)
    3bc8:	dc400117 	ldw	r17,4(sp)
    3bcc:	dc000017 	ldw	r16,0(sp)
    3bd0:	dec00304 	addi	sp,sp,12
    3bd4:	f800283a 	ret
    3bd8:	31000217 	ldw	r4,8(r6)
    3bdc:	003fbd06 	br	3ad4 <_free_r+0x94>
    3be0:	3806d0fa 	srli	r3,r7,3
    3be4:	00800044 	movi	r2,1
    3be8:	51400117 	ldw	r5,4(r10)
    3bec:	180890fa 	slli	r4,r3,3
    3bf0:	1807d0ba 	srai	r3,r3,2
    3bf4:	22c9883a 	add	r4,r4,r11
    3bf8:	21800217 	ldw	r6,8(r4)
    3bfc:	10c4983a 	sll	r2,r2,r3
    3c00:	41000315 	stw	r4,12(r8)
    3c04:	41800215 	stw	r6,8(r8)
    3c08:	288ab03a 	or	r5,r5,r2
    3c0c:	22000215 	stw	r8,8(r4)
    3c10:	8809883a 	mov	r4,r17
    3c14:	51400115 	stw	r5,4(r10)
    3c18:	32000315 	stw	r8,12(r6)
    3c1c:	dfc00217 	ldw	ra,8(sp)
    3c20:	dc400117 	ldw	r17,4(sp)
    3c24:	dc000017 	ldw	r16,0(sp)
    3c28:	dec00304 	addi	sp,sp,12
    3c2c:	0004f901 	jmpi	4f90 <__malloc_unlock>
    3c30:	2880004c 	andi	r2,r5,1
    3c34:	3a4d883a 	add	r6,r7,r9
    3c38:	1000071e 	bne	r2,zero,3c58 <_free_r+0x218>
    3c3c:	80bffe17 	ldw	r2,-8(r16)
    3c40:	4091c83a 	sub	r8,r8,r2
    3c44:	41000317 	ldw	r4,12(r8)
    3c48:	40c00217 	ldw	r3,8(r8)
    3c4c:	308d883a 	add	r6,r6,r2
    3c50:	20c00215 	stw	r3,8(r4)
    3c54:	19000315 	stw	r4,12(r3)
    3c58:	00800034 	movhi	r2,0
    3c5c:	109c3304 	addi	r2,r2,28876
    3c60:	11000017 	ldw	r4,0(r2)
    3c64:	30c00054 	ori	r3,r6,1
    3c68:	52000215 	stw	r8,8(r10)
    3c6c:	40c00115 	stw	r3,4(r8)
    3c70:	313fa036 	bltu	r6,r4,3af4 <_free_r+0xb4>
    3c74:	00800074 	movhi	r2,1
    3c78:	10a37404 	addi	r2,r2,-29232
    3c7c:	11400017 	ldw	r5,0(r2)
    3c80:	8809883a 	mov	r4,r17
    3c84:	00039140 	call	3914 <_malloc_trim_r>
    3c88:	003f9a06 	br	3af4 <_free_r+0xb4>
    3c8c:	00800104 	movi	r2,4
    3c90:	10c0072e 	bgeu	r2,r3,3cb0 <_free_r+0x270>
    3c94:	00800504 	movi	r2,20
    3c98:	10c01936 	bltu	r2,r3,3d00 <_free_r+0x2c0>
    3c9c:	188016c4 	addi	r2,r3,91
    3ca0:	100690fa 	slli	r3,r2,3
    3ca4:	003fb306 	br	3b74 <_free_r+0x134>
    3ca8:	01400044 	movi	r5,1
    3cac:	003f7e06 	br	3aa8 <_free_r+0x68>
    3cb0:	3804d1ba 	srli	r2,r7,6
    3cb4:	10800e04 	addi	r2,r2,56
    3cb8:	100690fa 	slli	r3,r2,3
    3cbc:	003fad06 	br	3b74 <_free_r+0x134>
    3cc0:	22000315 	stw	r8,12(r4)
    3cc4:	22000215 	stw	r8,8(r4)
    3cc8:	3a05883a 	add	r2,r7,r8
    3ccc:	38c00054 	ori	r3,r7,1
    3cd0:	11c00015 	stw	r7,0(r2)
    3cd4:	41000215 	stw	r4,8(r8)
    3cd8:	40c00115 	stw	r3,4(r8)
    3cdc:	41000315 	stw	r4,12(r8)
    3ce0:	003f8406 	br	3af4 <_free_r+0xb4>
    3ce4:	1005d0ba 	srai	r2,r2,2
    3ce8:	00c00044 	movi	r3,1
    3cec:	51000117 	ldw	r4,4(r10)
    3cf0:	1886983a 	sll	r3,r3,r2
    3cf4:	20c8b03a 	or	r4,r4,r3
    3cf8:	51000115 	stw	r4,4(r10)
    3cfc:	003fa706 	br	3b9c <_free_r+0x15c>
    3d00:	00801504 	movi	r2,84
    3d04:	10c00436 	bltu	r2,r3,3d18 <_free_r+0x2d8>
    3d08:	3804d33a 	srli	r2,r7,12
    3d0c:	10801b84 	addi	r2,r2,110
    3d10:	100690fa 	slli	r3,r2,3
    3d14:	003f9706 	br	3b74 <_free_r+0x134>
    3d18:	00805504 	movi	r2,340
    3d1c:	10c00436 	bltu	r2,r3,3d30 <_free_r+0x2f0>
    3d20:	3804d3fa 	srli	r2,r7,15
    3d24:	10801dc4 	addi	r2,r2,119
    3d28:	100690fa 	slli	r3,r2,3
    3d2c:	003f9106 	br	3b74 <_free_r+0x134>
    3d30:	00815504 	movi	r2,1364
    3d34:	10c0032e 	bgeu	r2,r3,3d44 <_free_r+0x304>
    3d38:	00801f84 	movi	r2,126
    3d3c:	00c0fc04 	movi	r3,1008
    3d40:	003f8c06 	br	3b74 <_free_r+0x134>
    3d44:	3804d4ba 	srli	r2,r7,18
    3d48:	10801f04 	addi	r2,r2,124
    3d4c:	100690fa 	slli	r3,r2,3
    3d50:	003f8806 	br	3b74 <_free_r+0x134>

00003d54 <_fwalk_reent>:
    3d54:	defff704 	addi	sp,sp,-36
    3d58:	dcc00315 	stw	r19,12(sp)
    3d5c:	24c0b804 	addi	r19,r4,736
    3d60:	dd800615 	stw	r22,24(sp)
    3d64:	dd400515 	stw	r21,20(sp)
    3d68:	dfc00815 	stw	ra,32(sp)
    3d6c:	ddc00715 	stw	r23,28(sp)
    3d70:	dd000415 	stw	r20,16(sp)
    3d74:	dc800215 	stw	r18,8(sp)
    3d78:	dc400115 	stw	r17,4(sp)
    3d7c:	dc000015 	stw	r16,0(sp)
    3d80:	202b883a 	mov	r21,r4
    3d84:	282d883a 	mov	r22,r5
    3d88:	00036ac0 	call	36ac <__sfp_lock_acquire>
    3d8c:	98002126 	beq	r19,zero,3e14 <_fwalk_reent+0xc0>
    3d90:	002f883a 	mov	r23,zero
    3d94:	9c800117 	ldw	r18,4(r19)
    3d98:	9c000217 	ldw	r16,8(r19)
    3d9c:	90bfffc4 	addi	r2,r18,-1
    3da0:	10000d16 	blt	r2,zero,3dd8 <_fwalk_reent+0x84>
    3da4:	0023883a 	mov	r17,zero
    3da8:	053fffc4 	movi	r20,-1
    3dac:	8080030f 	ldh	r2,12(r16)
    3db0:	8c400044 	addi	r17,r17,1
    3db4:	10000626 	beq	r2,zero,3dd0 <_fwalk_reent+0x7c>
    3db8:	8080038f 	ldh	r2,14(r16)
    3dbc:	800b883a 	mov	r5,r16
    3dc0:	a809883a 	mov	r4,r21
    3dc4:	15000226 	beq	r2,r20,3dd0 <_fwalk_reent+0x7c>
    3dc8:	b03ee83a 	callr	r22
    3dcc:	b8aeb03a 	or	r23,r23,r2
    3dd0:	84001704 	addi	r16,r16,92
    3dd4:	947ff51e 	bne	r18,r17,3dac <_fwalk_reent+0x58>
    3dd8:	9cc00017 	ldw	r19,0(r19)
    3ddc:	983fed1e 	bne	r19,zero,3d94 <_fwalk_reent+0x40>
    3de0:	00036b00 	call	36b0 <__sfp_lock_release>
    3de4:	b805883a 	mov	r2,r23
    3de8:	dfc00817 	ldw	ra,32(sp)
    3dec:	ddc00717 	ldw	r23,28(sp)
    3df0:	dd800617 	ldw	r22,24(sp)
    3df4:	dd400517 	ldw	r21,20(sp)
    3df8:	dd000417 	ldw	r20,16(sp)
    3dfc:	dcc00317 	ldw	r19,12(sp)
    3e00:	dc800217 	ldw	r18,8(sp)
    3e04:	dc400117 	ldw	r17,4(sp)
    3e08:	dc000017 	ldw	r16,0(sp)
    3e0c:	dec00904 	addi	sp,sp,36
    3e10:	f800283a 	ret
    3e14:	002f883a 	mov	r23,zero
    3e18:	003ff106 	br	3de0 <_fwalk_reent+0x8c>

00003e1c <_fwalk>:
    3e1c:	defff804 	addi	sp,sp,-32
    3e20:	dcc00315 	stw	r19,12(sp)
    3e24:	24c0b804 	addi	r19,r4,736
    3e28:	dd400515 	stw	r21,20(sp)
    3e2c:	dfc00715 	stw	ra,28(sp)
    3e30:	dd800615 	stw	r22,24(sp)
    3e34:	dd000415 	stw	r20,16(sp)
    3e38:	dc800215 	stw	r18,8(sp)
    3e3c:	dc400115 	stw	r17,4(sp)
    3e40:	dc000015 	stw	r16,0(sp)
    3e44:	282b883a 	mov	r21,r5
    3e48:	00036ac0 	call	36ac <__sfp_lock_acquire>
    3e4c:	98001f26 	beq	r19,zero,3ecc <_fwalk+0xb0>
    3e50:	002d883a 	mov	r22,zero
    3e54:	9c800117 	ldw	r18,4(r19)
    3e58:	9c000217 	ldw	r16,8(r19)
    3e5c:	90bfffc4 	addi	r2,r18,-1
    3e60:	10000c16 	blt	r2,zero,3e94 <_fwalk+0x78>
    3e64:	0023883a 	mov	r17,zero
    3e68:	053fffc4 	movi	r20,-1
    3e6c:	8080030f 	ldh	r2,12(r16)
    3e70:	8c400044 	addi	r17,r17,1
    3e74:	10000526 	beq	r2,zero,3e8c <_fwalk+0x70>
    3e78:	8080038f 	ldh	r2,14(r16)
    3e7c:	8009883a 	mov	r4,r16
    3e80:	15000226 	beq	r2,r20,3e8c <_fwalk+0x70>
    3e84:	a83ee83a 	callr	r21
    3e88:	b0acb03a 	or	r22,r22,r2
    3e8c:	84001704 	addi	r16,r16,92
    3e90:	947ff61e 	bne	r18,r17,3e6c <_fwalk+0x50>
    3e94:	9cc00017 	ldw	r19,0(r19)
    3e98:	983fee1e 	bne	r19,zero,3e54 <_fwalk+0x38>
    3e9c:	00036b00 	call	36b0 <__sfp_lock_release>
    3ea0:	b005883a 	mov	r2,r22
    3ea4:	dfc00717 	ldw	ra,28(sp)
    3ea8:	dd800617 	ldw	r22,24(sp)
    3eac:	dd400517 	ldw	r21,20(sp)
    3eb0:	dd000417 	ldw	r20,16(sp)
    3eb4:	dcc00317 	ldw	r19,12(sp)
    3eb8:	dc800217 	ldw	r18,8(sp)
    3ebc:	dc400117 	ldw	r17,4(sp)
    3ec0:	dc000017 	ldw	r16,0(sp)
    3ec4:	dec00804 	addi	sp,sp,32
    3ec8:	f800283a 	ret
    3ecc:	002d883a 	mov	r22,zero
    3ed0:	003ff206 	br	3e9c <_fwalk+0x80>

00003ed4 <__smakebuf_r>:
    3ed4:	2880030b 	ldhu	r2,12(r5)
    3ed8:	deffed04 	addi	sp,sp,-76
    3edc:	dc401015 	stw	r17,64(sp)
    3ee0:	1080008c 	andi	r2,r2,2
    3ee4:	dc000f15 	stw	r16,60(sp)
    3ee8:	dfc01215 	stw	ra,72(sp)
    3eec:	dc801115 	stw	r18,68(sp)
    3ef0:	2821883a 	mov	r16,r5
    3ef4:	2023883a 	mov	r17,r4
    3ef8:	10000b26 	beq	r2,zero,3f28 <__smakebuf_r+0x54>
    3efc:	28c010c4 	addi	r3,r5,67
    3f00:	00800044 	movi	r2,1
    3f04:	28800515 	stw	r2,20(r5)
    3f08:	28c00415 	stw	r3,16(r5)
    3f0c:	28c00015 	stw	r3,0(r5)
    3f10:	dfc01217 	ldw	ra,72(sp)
    3f14:	dc801117 	ldw	r18,68(sp)
    3f18:	dc401017 	ldw	r17,64(sp)
    3f1c:	dc000f17 	ldw	r16,60(sp)
    3f20:	dec01304 	addi	sp,sp,76
    3f24:	f800283a 	ret
    3f28:	2940038f 	ldh	r5,14(r5)
    3f2c:	28002116 	blt	r5,zero,3fb4 <__smakebuf_r+0xe0>
    3f30:	d80d883a 	mov	r6,sp
    3f34:	0004c080 	call	4c08 <_fstat_r>
    3f38:	10001e16 	blt	r2,zero,3fb4 <__smakebuf_r+0xe0>
    3f3c:	d8800117 	ldw	r2,4(sp)
    3f40:	00e00014 	movui	r3,32768
    3f44:	113c000c 	andi	r4,r2,61440
    3f48:	20c03126 	beq	r4,r3,4010 <__smakebuf_r+0x13c>
    3f4c:	8080030b 	ldhu	r2,12(r16)
    3f50:	00c80004 	movi	r3,8192
    3f54:	10820014 	ori	r2,r2,2048
    3f58:	8080030d 	sth	r2,12(r16)
    3f5c:	20c01e26 	beq	r4,r3,3fd8 <__smakebuf_r+0x104>
    3f60:	04810004 	movi	r18,1024
    3f64:	8809883a 	mov	r4,r17
    3f68:	900b883a 	mov	r5,r18
    3f6c:	00040680 	call	4068 <_malloc_r>
    3f70:	1009883a 	mov	r4,r2
    3f74:	10003126 	beq	r2,zero,403c <__smakebuf_r+0x168>
    3f78:	80c0030b 	ldhu	r3,12(r16)
    3f7c:	00800034 	movhi	r2,0
    3f80:	108de804 	addi	r2,r2,14240
    3f84:	88800f15 	stw	r2,60(r17)
    3f88:	18c02014 	ori	r3,r3,128
    3f8c:	84800515 	stw	r18,20(r16)
    3f90:	80c0030d 	sth	r3,12(r16)
    3f94:	81000415 	stw	r4,16(r16)
    3f98:	81000015 	stw	r4,0(r16)
    3f9c:	dfc01217 	ldw	ra,72(sp)
    3fa0:	dc801117 	ldw	r18,68(sp)
    3fa4:	dc401017 	ldw	r17,64(sp)
    3fa8:	dc000f17 	ldw	r16,60(sp)
    3fac:	dec01304 	addi	sp,sp,76
    3fb0:	f800283a 	ret
    3fb4:	80c0030b 	ldhu	r3,12(r16)
    3fb8:	1880200c 	andi	r2,r3,128
    3fbc:	10000426 	beq	r2,zero,3fd0 <__smakebuf_r+0xfc>
    3fc0:	04801004 	movi	r18,64
    3fc4:	18820014 	ori	r2,r3,2048
    3fc8:	8080030d 	sth	r2,12(r16)
    3fcc:	003fe506 	br	3f64 <__smakebuf_r+0x90>
    3fd0:	04810004 	movi	r18,1024
    3fd4:	003ffb06 	br	3fc4 <__smakebuf_r+0xf0>
    3fd8:	8140038f 	ldh	r5,14(r16)
    3fdc:	8809883a 	mov	r4,r17
    3fe0:	0004c7c0 	call	4c7c <_isatty_r>
    3fe4:	103fde26 	beq	r2,zero,3f60 <__smakebuf_r+0x8c>
    3fe8:	8080030b 	ldhu	r2,12(r16)
    3fec:	80c010c4 	addi	r3,r16,67
    3ff0:	04810004 	movi	r18,1024
    3ff4:	10800054 	ori	r2,r2,1
    3ff8:	8080030d 	sth	r2,12(r16)
    3ffc:	00800044 	movi	r2,1
    4000:	80c00415 	stw	r3,16(r16)
    4004:	80800515 	stw	r2,20(r16)
    4008:	80c00015 	stw	r3,0(r16)
    400c:	003fd506 	br	3f64 <__smakebuf_r+0x90>
    4010:	80c00a17 	ldw	r3,40(r16)
    4014:	00800034 	movhi	r2,0
    4018:	10922e04 	addi	r2,r2,18616
    401c:	18bfcb1e 	bne	r3,r2,3f4c <__smakebuf_r+0x78>
    4020:	8080030b 	ldhu	r2,12(r16)
    4024:	00c10004 	movi	r3,1024
    4028:	1825883a 	mov	r18,r3
    402c:	10c4b03a 	or	r2,r2,r3
    4030:	8080030d 	sth	r2,12(r16)
    4034:	80c01315 	stw	r3,76(r16)
    4038:	003fca06 	br	3f64 <__smakebuf_r+0x90>
    403c:	8100030b 	ldhu	r4,12(r16)
    4040:	2080800c 	andi	r2,r4,512
    4044:	103fb21e 	bne	r2,zero,3f10 <__smakebuf_r+0x3c>
    4048:	80c010c4 	addi	r3,r16,67
    404c:	21000094 	ori	r4,r4,2
    4050:	00800044 	movi	r2,1
    4054:	80800515 	stw	r2,20(r16)
    4058:	8100030d 	sth	r4,12(r16)
    405c:	80c00415 	stw	r3,16(r16)
    4060:	80c00015 	stw	r3,0(r16)
    4064:	003faa06 	br	3f10 <__smakebuf_r+0x3c>

00004068 <_malloc_r>:
    4068:	defff604 	addi	sp,sp,-40
    406c:	28c002c4 	addi	r3,r5,11
    4070:	00800584 	movi	r2,22
    4074:	dc800215 	stw	r18,8(sp)
    4078:	dfc00915 	stw	ra,36(sp)
    407c:	df000815 	stw	fp,32(sp)
    4080:	ddc00715 	stw	r23,28(sp)
    4084:	dd800615 	stw	r22,24(sp)
    4088:	dd400515 	stw	r21,20(sp)
    408c:	dd000415 	stw	r20,16(sp)
    4090:	dcc00315 	stw	r19,12(sp)
    4094:	dc400115 	stw	r17,4(sp)
    4098:	dc000015 	stw	r16,0(sp)
    409c:	2025883a 	mov	r18,r4
    40a0:	10c01236 	bltu	r2,r3,40ec <_malloc_r+0x84>
    40a4:	04400404 	movi	r17,16
    40a8:	8940142e 	bgeu	r17,r5,40fc <_malloc_r+0x94>
    40ac:	00800304 	movi	r2,12
    40b0:	0007883a 	mov	r3,zero
    40b4:	90800015 	stw	r2,0(r18)
    40b8:	1805883a 	mov	r2,r3
    40bc:	dfc00917 	ldw	ra,36(sp)
    40c0:	df000817 	ldw	fp,32(sp)
    40c4:	ddc00717 	ldw	r23,28(sp)
    40c8:	dd800617 	ldw	r22,24(sp)
    40cc:	dd400517 	ldw	r21,20(sp)
    40d0:	dd000417 	ldw	r20,16(sp)
    40d4:	dcc00317 	ldw	r19,12(sp)
    40d8:	dc800217 	ldw	r18,8(sp)
    40dc:	dc400117 	ldw	r17,4(sp)
    40e0:	dc000017 	ldw	r16,0(sp)
    40e4:	dec00a04 	addi	sp,sp,40
    40e8:	f800283a 	ret
    40ec:	00bffe04 	movi	r2,-8
    40f0:	18a2703a 	and	r17,r3,r2
    40f4:	883fed16 	blt	r17,zero,40ac <_malloc_r+0x44>
    40f8:	897fec36 	bltu	r17,r5,40ac <_malloc_r+0x44>
    40fc:	9009883a 	mov	r4,r18
    4100:	0004f8c0 	call	4f8c <__malloc_lock>
    4104:	00807dc4 	movi	r2,503
    4108:	14402b2e 	bgeu	r2,r17,41b8 <_malloc_r+0x150>
    410c:	8806d27a 	srli	r3,r17,9
    4110:	18003f1e 	bne	r3,zero,4210 <_malloc_r+0x1a8>
    4114:	880cd0fa 	srli	r6,r17,3
    4118:	300490fa 	slli	r2,r6,3
    411c:	02c00034 	movhi	r11,0
    4120:	5adb2604 	addi	r11,r11,27800
    4124:	12cb883a 	add	r5,r2,r11
    4128:	2c000317 	ldw	r16,12(r5)
    412c:	580f883a 	mov	r7,r11
    4130:	2c00041e 	bne	r5,r16,4144 <_malloc_r+0xdc>
    4134:	00000a06 	br	4160 <_malloc_r+0xf8>
    4138:	1800860e 	bge	r3,zero,4354 <_malloc_r+0x2ec>
    413c:	84000317 	ldw	r16,12(r16)
    4140:	2c000726 	beq	r5,r16,4160 <_malloc_r+0xf8>
    4144:	80800117 	ldw	r2,4(r16)
    4148:	00ffff04 	movi	r3,-4
    414c:	10c8703a 	and	r4,r2,r3
    4150:	2447c83a 	sub	r3,r4,r17
    4154:	008003c4 	movi	r2,15
    4158:	10fff70e 	bge	r2,r3,4138 <_malloc_r+0xd0>
    415c:	31bfffc4 	addi	r6,r6,-1
    4160:	32400044 	addi	r9,r6,1
    4164:	02800034 	movhi	r10,0
    4168:	529b2804 	addi	r10,r10,27808
    416c:	54000217 	ldw	r16,8(r10)
    4170:	8280a026 	beq	r16,r10,43f4 <_malloc_r+0x38c>
    4174:	80800117 	ldw	r2,4(r16)
    4178:	00ffff04 	movi	r3,-4
    417c:	10ca703a 	and	r5,r2,r3
    4180:	2c4dc83a 	sub	r6,r5,r17
    4184:	008003c4 	movi	r2,15
    4188:	11808316 	blt	r2,r6,4398 <_malloc_r+0x330>
    418c:	52800315 	stw	r10,12(r10)
    4190:	52800215 	stw	r10,8(r10)
    4194:	30002916 	blt	r6,zero,423c <_malloc_r+0x1d4>
    4198:	8147883a 	add	r3,r16,r5
    419c:	18800117 	ldw	r2,4(r3)
    41a0:	9009883a 	mov	r4,r18
    41a4:	10800054 	ori	r2,r2,1
    41a8:	18800115 	stw	r2,4(r3)
    41ac:	0004f900 	call	4f90 <__malloc_unlock>
    41b0:	80c00204 	addi	r3,r16,8
    41b4:	003fc006 	br	40b8 <_malloc_r+0x50>
    41b8:	02c00034 	movhi	r11,0
    41bc:	5adb2604 	addi	r11,r11,27800
    41c0:	8ac5883a 	add	r2,r17,r11
    41c4:	14000317 	ldw	r16,12(r2)
    41c8:	580f883a 	mov	r7,r11
    41cc:	8806d0fa 	srli	r3,r17,3
    41d0:	14006c26 	beq	r2,r16,4384 <_malloc_r+0x31c>
    41d4:	80c00117 	ldw	r3,4(r16)
    41d8:	00bfff04 	movi	r2,-4
    41dc:	81800317 	ldw	r6,12(r16)
    41e0:	1886703a 	and	r3,r3,r2
    41e4:	80c7883a 	add	r3,r16,r3
    41e8:	18800117 	ldw	r2,4(r3)
    41ec:	81400217 	ldw	r5,8(r16)
    41f0:	9009883a 	mov	r4,r18
    41f4:	10800054 	ori	r2,r2,1
    41f8:	18800115 	stw	r2,4(r3)
    41fc:	31400215 	stw	r5,8(r6)
    4200:	29800315 	stw	r6,12(r5)
    4204:	0004f900 	call	4f90 <__malloc_unlock>
    4208:	80c00204 	addi	r3,r16,8
    420c:	003faa06 	br	40b8 <_malloc_r+0x50>
    4210:	00800104 	movi	r2,4
    4214:	10c0052e 	bgeu	r2,r3,422c <_malloc_r+0x1c4>
    4218:	00800504 	movi	r2,20
    421c:	10c07836 	bltu	r2,r3,4400 <_malloc_r+0x398>
    4220:	198016c4 	addi	r6,r3,91
    4224:	300490fa 	slli	r2,r6,3
    4228:	003fbc06 	br	411c <_malloc_r+0xb4>
    422c:	8804d1ba 	srli	r2,r17,6
    4230:	11800e04 	addi	r6,r2,56
    4234:	300490fa 	slli	r2,r6,3
    4238:	003fb806 	br	411c <_malloc_r+0xb4>
    423c:	00807fc4 	movi	r2,511
    4240:	1140bb36 	bltu	r2,r5,4530 <_malloc_r+0x4c8>
    4244:	2806d0fa 	srli	r3,r5,3
    4248:	573ffe04 	addi	fp,r10,-8
    424c:	00800044 	movi	r2,1
    4250:	180890fa 	slli	r4,r3,3
    4254:	1807d0ba 	srai	r3,r3,2
    4258:	e1c00117 	ldw	r7,4(fp)
    425c:	5909883a 	add	r4,r11,r4
    4260:	21400217 	ldw	r5,8(r4)
    4264:	10c4983a 	sll	r2,r2,r3
    4268:	81000315 	stw	r4,12(r16)
    426c:	81400215 	stw	r5,8(r16)
    4270:	388eb03a 	or	r7,r7,r2
    4274:	2c000315 	stw	r16,12(r5)
    4278:	24000215 	stw	r16,8(r4)
    427c:	e1c00115 	stw	r7,4(fp)
    4280:	4807883a 	mov	r3,r9
    4284:	4800cd16 	blt	r9,zero,45bc <_malloc_r+0x554>
    4288:	1807d0ba 	srai	r3,r3,2
    428c:	00800044 	movi	r2,1
    4290:	10c8983a 	sll	r4,r2,r3
    4294:	39004436 	bltu	r7,r4,43a8 <_malloc_r+0x340>
    4298:	21c4703a 	and	r2,r4,r7
    429c:	10000a1e 	bne	r2,zero,42c8 <_malloc_r+0x260>
    42a0:	2109883a 	add	r4,r4,r4
    42a4:	00bfff04 	movi	r2,-4
    42a8:	4884703a 	and	r2,r9,r2
    42ac:	3906703a 	and	r3,r7,r4
    42b0:	12400104 	addi	r9,r2,4
    42b4:	1800041e 	bne	r3,zero,42c8 <_malloc_r+0x260>
    42b8:	2109883a 	add	r4,r4,r4
    42bc:	3904703a 	and	r2,r7,r4
    42c0:	4a400104 	addi	r9,r9,4
    42c4:	103ffc26 	beq	r2,zero,42b8 <_malloc_r+0x250>
    42c8:	480490fa 	slli	r2,r9,3
    42cc:	4819883a 	mov	r12,r9
    42d0:	023fff04 	movi	r8,-4
    42d4:	589b883a 	add	r13,r11,r2
    42d8:	6807883a 	mov	r3,r13
    42dc:	014003c4 	movi	r5,15
    42e0:	1c000317 	ldw	r16,12(r3)
    42e4:	1c00041e 	bne	r3,r16,42f8 <_malloc_r+0x290>
    42e8:	0000a706 	br	4588 <_malloc_r+0x520>
    42ec:	3000ab0e 	bge	r6,zero,459c <_malloc_r+0x534>
    42f0:	84000317 	ldw	r16,12(r16)
    42f4:	1c00a426 	beq	r3,r16,4588 <_malloc_r+0x520>
    42f8:	80800117 	ldw	r2,4(r16)
    42fc:	1204703a 	and	r2,r2,r8
    4300:	144dc83a 	sub	r6,r2,r17
    4304:	29bff90e 	bge	r5,r6,42ec <_malloc_r+0x284>
    4308:	81000317 	ldw	r4,12(r16)
    430c:	80c00217 	ldw	r3,8(r16)
    4310:	89400054 	ori	r5,r17,1
    4314:	8445883a 	add	r2,r16,r17
    4318:	20c00215 	stw	r3,8(r4)
    431c:	19000315 	stw	r4,12(r3)
    4320:	81400115 	stw	r5,4(r16)
    4324:	1187883a 	add	r3,r2,r6
    4328:	31000054 	ori	r4,r6,1
    432c:	50800315 	stw	r2,12(r10)
    4330:	50800215 	stw	r2,8(r10)
    4334:	19800015 	stw	r6,0(r3)
    4338:	11000115 	stw	r4,4(r2)
    433c:	12800215 	stw	r10,8(r2)
    4340:	12800315 	stw	r10,12(r2)
    4344:	9009883a 	mov	r4,r18
    4348:	0004f900 	call	4f90 <__malloc_unlock>
    434c:	80c00204 	addi	r3,r16,8
    4350:	003f5906 	br	40b8 <_malloc_r+0x50>
    4354:	8109883a 	add	r4,r16,r4
    4358:	20800117 	ldw	r2,4(r4)
    435c:	80c00217 	ldw	r3,8(r16)
    4360:	81400317 	ldw	r5,12(r16)
    4364:	10800054 	ori	r2,r2,1
    4368:	20800115 	stw	r2,4(r4)
    436c:	28c00215 	stw	r3,8(r5)
    4370:	19400315 	stw	r5,12(r3)
    4374:	9009883a 	mov	r4,r18
    4378:	0004f900 	call	4f90 <__malloc_unlock>
    437c:	80c00204 	addi	r3,r16,8
    4380:	003f4d06 	br	40b8 <_malloc_r+0x50>
    4384:	80800204 	addi	r2,r16,8
    4388:	14000317 	ldw	r16,12(r2)
    438c:	143f911e 	bne	r2,r16,41d4 <_malloc_r+0x16c>
    4390:	1a400084 	addi	r9,r3,2
    4394:	003f7306 	br	4164 <_malloc_r+0xfc>
    4398:	88c00054 	ori	r3,r17,1
    439c:	8445883a 	add	r2,r16,r17
    43a0:	80c00115 	stw	r3,4(r16)
    43a4:	003fdf06 	br	4324 <_malloc_r+0x2bc>
    43a8:	e4000217 	ldw	r16,8(fp)
    43ac:	00bfff04 	movi	r2,-4
    43b0:	80c00117 	ldw	r3,4(r16)
    43b4:	802d883a 	mov	r22,r16
    43b8:	18aa703a 	and	r21,r3,r2
    43bc:	ac401636 	bltu	r21,r17,4418 <_malloc_r+0x3b0>
    43c0:	ac49c83a 	sub	r4,r21,r17
    43c4:	008003c4 	movi	r2,15
    43c8:	1100130e 	bge	r2,r4,4418 <_malloc_r+0x3b0>
    43cc:	88800054 	ori	r2,r17,1
    43d0:	8447883a 	add	r3,r16,r17
    43d4:	80800115 	stw	r2,4(r16)
    43d8:	20800054 	ori	r2,r4,1
    43dc:	18800115 	stw	r2,4(r3)
    43e0:	e0c00215 	stw	r3,8(fp)
    43e4:	9009883a 	mov	r4,r18
    43e8:	0004f900 	call	4f90 <__malloc_unlock>
    43ec:	80c00204 	addi	r3,r16,8
    43f0:	003f3106 	br	40b8 <_malloc_r+0x50>
    43f4:	39c00117 	ldw	r7,4(r7)
    43f8:	573ffe04 	addi	fp,r10,-8
    43fc:	003fa006 	br	4280 <_malloc_r+0x218>
    4400:	00801504 	movi	r2,84
    4404:	10c06736 	bltu	r2,r3,45a4 <_malloc_r+0x53c>
    4408:	8804d33a 	srli	r2,r17,12
    440c:	11801b84 	addi	r6,r2,110
    4410:	300490fa 	slli	r2,r6,3
    4414:	003f4106 	br	411c <_malloc_r+0xb4>
    4418:	d0a74c17 	ldw	r2,-25296(gp)
    441c:	d0e00c17 	ldw	r3,-32720(gp)
    4420:	053fffc4 	movi	r20,-1
    4424:	10800404 	addi	r2,r2,16
    4428:	88a7883a 	add	r19,r17,r2
    442c:	1d000326 	beq	r3,r20,443c <_malloc_r+0x3d4>
    4430:	98c3ffc4 	addi	r3,r19,4095
    4434:	00bc0004 	movi	r2,-4096
    4438:	18a6703a 	and	r19,r3,r2
    443c:	9009883a 	mov	r4,r18
    4440:	980b883a 	mov	r5,r19
    4444:	00048400 	call	4840 <_sbrk_r>
    4448:	1009883a 	mov	r4,r2
    444c:	15000426 	beq	r2,r20,4460 <_malloc_r+0x3f8>
    4450:	854b883a 	add	r5,r16,r21
    4454:	1029883a 	mov	r20,r2
    4458:	11405a2e 	bgeu	r2,r5,45c4 <_malloc_r+0x55c>
    445c:	87000c26 	beq	r16,fp,4490 <_malloc_r+0x428>
    4460:	e4000217 	ldw	r16,8(fp)
    4464:	80c00117 	ldw	r3,4(r16)
    4468:	00bfff04 	movi	r2,-4
    446c:	1884703a 	and	r2,r3,r2
    4470:	14400336 	bltu	r2,r17,4480 <_malloc_r+0x418>
    4474:	1449c83a 	sub	r4,r2,r17
    4478:	008003c4 	movi	r2,15
    447c:	113fd316 	blt	r2,r4,43cc <_malloc_r+0x364>
    4480:	9009883a 	mov	r4,r18
    4484:	0004f900 	call	4f90 <__malloc_unlock>
    4488:	0007883a 	mov	r3,zero
    448c:	003f0a06 	br	40b8 <_malloc_r+0x50>
    4490:	05c00074 	movhi	r23,1
    4494:	bde37704 	addi	r23,r23,-29220
    4498:	b8800017 	ldw	r2,0(r23)
    449c:	988d883a 	add	r6,r19,r2
    44a0:	b9800015 	stw	r6,0(r23)
    44a4:	d0e00c17 	ldw	r3,-32720(gp)
    44a8:	00bfffc4 	movi	r2,-1
    44ac:	18808e26 	beq	r3,r2,46e8 <_malloc_r+0x680>
    44b0:	2145c83a 	sub	r2,r4,r5
    44b4:	3085883a 	add	r2,r6,r2
    44b8:	b8800015 	stw	r2,0(r23)
    44bc:	20c001cc 	andi	r3,r4,7
    44c0:	18005f1e 	bne	r3,zero,4640 <_malloc_r+0x5d8>
    44c4:	000b883a 	mov	r5,zero
    44c8:	a4c5883a 	add	r2,r20,r19
    44cc:	1083ffcc 	andi	r2,r2,4095
    44d0:	00c40004 	movi	r3,4096
    44d4:	1887c83a 	sub	r3,r3,r2
    44d8:	28e7883a 	add	r19,r5,r3
    44dc:	9009883a 	mov	r4,r18
    44e0:	980b883a 	mov	r5,r19
    44e4:	00048400 	call	4840 <_sbrk_r>
    44e8:	1007883a 	mov	r3,r2
    44ec:	00bfffc4 	movi	r2,-1
    44f0:	18807a26 	beq	r3,r2,46dc <_malloc_r+0x674>
    44f4:	1d05c83a 	sub	r2,r3,r20
    44f8:	9885883a 	add	r2,r19,r2
    44fc:	10c00054 	ori	r3,r2,1
    4500:	b8800017 	ldw	r2,0(r23)
    4504:	a021883a 	mov	r16,r20
    4508:	a0c00115 	stw	r3,4(r20)
    450c:	9885883a 	add	r2,r19,r2
    4510:	b8800015 	stw	r2,0(r23)
    4514:	e5000215 	stw	r20,8(fp)
    4518:	b7003626 	beq	r22,fp,45f4 <_malloc_r+0x58c>
    451c:	018003c4 	movi	r6,15
    4520:	35404b36 	bltu	r6,r21,4650 <_malloc_r+0x5e8>
    4524:	00800044 	movi	r2,1
    4528:	a0800115 	stw	r2,4(r20)
    452c:	003fcd06 	br	4464 <_malloc_r+0x3fc>
    4530:	2808d27a 	srli	r4,r5,9
    4534:	2000371e 	bne	r4,zero,4614 <_malloc_r+0x5ac>
    4538:	2808d0fa 	srli	r4,r5,3
    453c:	200690fa 	slli	r3,r4,3
    4540:	1ad1883a 	add	r8,r3,r11
    4544:	41800217 	ldw	r6,8(r8)
    4548:	41805b26 	beq	r8,r6,46b8 <_malloc_r+0x650>
    454c:	30800117 	ldw	r2,4(r6)
    4550:	00ffff04 	movi	r3,-4
    4554:	10c4703a 	and	r2,r2,r3
    4558:	2880022e 	bgeu	r5,r2,4564 <_malloc_r+0x4fc>
    455c:	31800217 	ldw	r6,8(r6)
    4560:	41bffa1e 	bne	r8,r6,454c <_malloc_r+0x4e4>
    4564:	32000317 	ldw	r8,12(r6)
    4568:	39c00117 	ldw	r7,4(r7)
    456c:	82000315 	stw	r8,12(r16)
    4570:	81800215 	stw	r6,8(r16)
    4574:	07000034 	movhi	fp,0
    4578:	e71b2604 	addi	fp,fp,27800
    457c:	34000315 	stw	r16,12(r6)
    4580:	44000215 	stw	r16,8(r8)
    4584:	003f3e06 	br	4280 <_malloc_r+0x218>
    4588:	63000044 	addi	r12,r12,1
    458c:	608000cc 	andi	r2,r12,3
    4590:	10005d26 	beq	r2,zero,4708 <_malloc_r+0x6a0>
    4594:	18c00204 	addi	r3,r3,8
    4598:	003f5106 	br	42e0 <_malloc_r+0x278>
    459c:	8089883a 	add	r4,r16,r2
    45a0:	003f6d06 	br	4358 <_malloc_r+0x2f0>
    45a4:	00805504 	movi	r2,340
    45a8:	10c02036 	bltu	r2,r3,462c <_malloc_r+0x5c4>
    45ac:	8804d3fa 	srli	r2,r17,15
    45b0:	11801dc4 	addi	r6,r2,119
    45b4:	300490fa 	slli	r2,r6,3
    45b8:	003ed806 	br	411c <_malloc_r+0xb4>
    45bc:	48c000c4 	addi	r3,r9,3
    45c0:	003f3106 	br	4288 <_malloc_r+0x220>
    45c4:	05c00074 	movhi	r23,1
    45c8:	bde37704 	addi	r23,r23,-29220
    45cc:	b8800017 	ldw	r2,0(r23)
    45d0:	988d883a 	add	r6,r19,r2
    45d4:	b9800015 	stw	r6,0(r23)
    45d8:	293fb21e 	bne	r5,r4,44a4 <_malloc_r+0x43c>
    45dc:	2083ffcc 	andi	r2,r4,4095
    45e0:	103fb01e 	bne	r2,zero,44a4 <_malloc_r+0x43c>
    45e4:	e4000217 	ldw	r16,8(fp)
    45e8:	9d45883a 	add	r2,r19,r21
    45ec:	10800054 	ori	r2,r2,1
    45f0:	80800115 	stw	r2,4(r16)
    45f4:	b8c00017 	ldw	r3,0(r23)
    45f8:	d0a74d17 	ldw	r2,-25292(gp)
    45fc:	10c0012e 	bgeu	r2,r3,4604 <_malloc_r+0x59c>
    4600:	d0e74d15 	stw	r3,-25292(gp)
    4604:	d0a74e17 	ldw	r2,-25288(gp)
    4608:	10ff962e 	bgeu	r2,r3,4464 <_malloc_r+0x3fc>
    460c:	d0e74e15 	stw	r3,-25288(gp)
    4610:	003f9406 	br	4464 <_malloc_r+0x3fc>
    4614:	00800104 	movi	r2,4
    4618:	11001e36 	bltu	r2,r4,4694 <_malloc_r+0x62c>
    461c:	2804d1ba 	srli	r2,r5,6
    4620:	11000e04 	addi	r4,r2,56
    4624:	200690fa 	slli	r3,r4,3
    4628:	003fc506 	br	4540 <_malloc_r+0x4d8>
    462c:	00815504 	movi	r2,1364
    4630:	10c01d2e 	bgeu	r2,r3,46a8 <_malloc_r+0x640>
    4634:	01801f84 	movi	r6,126
    4638:	0080fc04 	movi	r2,1008
    463c:	003eb706 	br	411c <_malloc_r+0xb4>
    4640:	00800204 	movi	r2,8
    4644:	10cbc83a 	sub	r5,r2,r3
    4648:	2169883a 	add	r20,r4,r5
    464c:	003f9e06 	br	44c8 <_malloc_r+0x460>
    4650:	00bffe04 	movi	r2,-8
    4654:	a93ffd04 	addi	r4,r21,-12
    4658:	2088703a 	and	r4,r4,r2
    465c:	b10b883a 	add	r5,r22,r4
    4660:	00c00144 	movi	r3,5
    4664:	28c00215 	stw	r3,8(r5)
    4668:	28c00115 	stw	r3,4(r5)
    466c:	b0800117 	ldw	r2,4(r22)
    4670:	1080004c 	andi	r2,r2,1
    4674:	2084b03a 	or	r2,r4,r2
    4678:	b0800115 	stw	r2,4(r22)
    467c:	313fdd2e 	bgeu	r6,r4,45f4 <_malloc_r+0x58c>
    4680:	b1400204 	addi	r5,r22,8
    4684:	9009883a 	mov	r4,r18
    4688:	0003a400 	call	3a40 <_free_r>
    468c:	e4000217 	ldw	r16,8(fp)
    4690:	003fd806 	br	45f4 <_malloc_r+0x58c>
    4694:	00800504 	movi	r2,20
    4698:	11001536 	bltu	r2,r4,46f0 <_malloc_r+0x688>
    469c:	210016c4 	addi	r4,r4,91
    46a0:	200690fa 	slli	r3,r4,3
    46a4:	003fa606 	br	4540 <_malloc_r+0x4d8>
    46a8:	8804d4ba 	srli	r2,r17,18
    46ac:	11801f04 	addi	r6,r2,124
    46b0:	300490fa 	slli	r2,r6,3
    46b4:	003e9906 	br	411c <_malloc_r+0xb4>
    46b8:	2009d0ba 	srai	r4,r4,2
    46bc:	01400034 	movhi	r5,0
    46c0:	295b2604 	addi	r5,r5,27800
    46c4:	00c00044 	movi	r3,1
    46c8:	28800117 	ldw	r2,4(r5)
    46cc:	1906983a 	sll	r3,r3,r4
    46d0:	10c4b03a 	or	r2,r2,r3
    46d4:	28800115 	stw	r2,4(r5)
    46d8:	003fa306 	br	4568 <_malloc_r+0x500>
    46dc:	0027883a 	mov	r19,zero
    46e0:	00c00044 	movi	r3,1
    46e4:	003f8606 	br	4500 <_malloc_r+0x498>
    46e8:	d1200c15 	stw	r4,-32720(gp)
    46ec:	003f7306 	br	44bc <_malloc_r+0x454>
    46f0:	00801504 	movi	r2,84
    46f4:	11001936 	bltu	r2,r4,475c <_malloc_r+0x6f4>
    46f8:	2804d33a 	srli	r2,r5,12
    46fc:	11001b84 	addi	r4,r2,110
    4700:	200690fa 	slli	r3,r4,3
    4704:	003f8e06 	br	4540 <_malloc_r+0x4d8>
    4708:	480b883a 	mov	r5,r9
    470c:	6807883a 	mov	r3,r13
    4710:	288000cc 	andi	r2,r5,3
    4714:	18fffe04 	addi	r3,r3,-8
    4718:	297fffc4 	addi	r5,r5,-1
    471c:	10001526 	beq	r2,zero,4774 <_malloc_r+0x70c>
    4720:	18800217 	ldw	r2,8(r3)
    4724:	10fffa26 	beq	r2,r3,4710 <_malloc_r+0x6a8>
    4728:	2109883a 	add	r4,r4,r4
    472c:	393f1e36 	bltu	r7,r4,43a8 <_malloc_r+0x340>
    4730:	203f1d26 	beq	r4,zero,43a8 <_malloc_r+0x340>
    4734:	21c4703a 	and	r2,r4,r7
    4738:	10000226 	beq	r2,zero,4744 <_malloc_r+0x6dc>
    473c:	6013883a 	mov	r9,r12
    4740:	003ee106 	br	42c8 <_malloc_r+0x260>
    4744:	2109883a 	add	r4,r4,r4
    4748:	3904703a 	and	r2,r7,r4
    474c:	63000104 	addi	r12,r12,4
    4750:	103ffc26 	beq	r2,zero,4744 <_malloc_r+0x6dc>
    4754:	6013883a 	mov	r9,r12
    4758:	003edb06 	br	42c8 <_malloc_r+0x260>
    475c:	00805504 	movi	r2,340
    4760:	11000836 	bltu	r2,r4,4784 <_malloc_r+0x71c>
    4764:	2804d3fa 	srli	r2,r5,15
    4768:	11001dc4 	addi	r4,r2,119
    476c:	200690fa 	slli	r3,r4,3
    4770:	003f7306 	br	4540 <_malloc_r+0x4d8>
    4774:	0104303a 	nor	r2,zero,r4
    4778:	388e703a 	and	r7,r7,r2
    477c:	e1c00115 	stw	r7,4(fp)
    4780:	003fe906 	br	4728 <_malloc_r+0x6c0>
    4784:	00815504 	movi	r2,1364
    4788:	1100032e 	bgeu	r2,r4,4798 <_malloc_r+0x730>
    478c:	01001f84 	movi	r4,126
    4790:	00c0fc04 	movi	r3,1008
    4794:	003f6a06 	br	4540 <_malloc_r+0x4d8>
    4798:	2804d4ba 	srli	r2,r5,18
    479c:	11001f04 	addi	r4,r2,124
    47a0:	200690fa 	slli	r3,r4,3
    47a4:	003f6606 	br	4540 <_malloc_r+0x4d8>

000047a8 <memset>:
    47a8:	008000c4 	movi	r2,3
    47ac:	29403fcc 	andi	r5,r5,255
    47b0:	2007883a 	mov	r3,r4
    47b4:	1180022e 	bgeu	r2,r6,47c0 <memset+0x18>
    47b8:	2084703a 	and	r2,r4,r2
    47bc:	10000826 	beq	r2,zero,47e0 <memset+0x38>
    47c0:	30000526 	beq	r6,zero,47d8 <memset+0x30>
    47c4:	2805883a 	mov	r2,r5
    47c8:	30cd883a 	add	r6,r6,r3
    47cc:	18800005 	stb	r2,0(r3)
    47d0:	18c00044 	addi	r3,r3,1
    47d4:	19bffd1e 	bne	r3,r6,47cc <memset+0x24>
    47d8:	2005883a 	mov	r2,r4
    47dc:	f800283a 	ret
    47e0:	2804923a 	slli	r2,r5,8
    47e4:	020003c4 	movi	r8,15
    47e8:	200f883a 	mov	r7,r4
    47ec:	2884b03a 	or	r2,r5,r2
    47f0:	1006943a 	slli	r3,r2,16
    47f4:	10c6b03a 	or	r3,r2,r3
    47f8:	41800a2e 	bgeu	r8,r6,4824 <memset+0x7c>
    47fc:	4005883a 	mov	r2,r8
    4800:	31bffc04 	addi	r6,r6,-16
    4804:	38c00015 	stw	r3,0(r7)
    4808:	38c00115 	stw	r3,4(r7)
    480c:	38c00215 	stw	r3,8(r7)
    4810:	38c00315 	stw	r3,12(r7)
    4814:	39c00404 	addi	r7,r7,16
    4818:	11bff936 	bltu	r2,r6,4800 <memset+0x58>
    481c:	008000c4 	movi	r2,3
    4820:	1180052e 	bgeu	r2,r6,4838 <memset+0x90>
    4824:	31bfff04 	addi	r6,r6,-4
    4828:	008000c4 	movi	r2,3
    482c:	38c00015 	stw	r3,0(r7)
    4830:	39c00104 	addi	r7,r7,4
    4834:	11bffb36 	bltu	r2,r6,4824 <memset+0x7c>
    4838:	3807883a 	mov	r3,r7
    483c:	003fe006 	br	47c0 <memset+0x18>

00004840 <_sbrk_r>:
    4840:	defffd04 	addi	sp,sp,-12
    4844:	dc000015 	stw	r16,0(sp)
    4848:	04000074 	movhi	r16,1
    484c:	84237304 	addi	r16,r16,-29236
    4850:	dc400115 	stw	r17,4(sp)
    4854:	80000015 	stw	zero,0(r16)
    4858:	2023883a 	mov	r17,r4
    485c:	2809883a 	mov	r4,r5
    4860:	dfc00215 	stw	ra,8(sp)
    4864:	000508c0 	call	508c <sbrk>
    4868:	1007883a 	mov	r3,r2
    486c:	00bfffc4 	movi	r2,-1
    4870:	18800626 	beq	r3,r2,488c <_sbrk_r+0x4c>
    4874:	1805883a 	mov	r2,r3
    4878:	dfc00217 	ldw	ra,8(sp)
    487c:	dc400117 	ldw	r17,4(sp)
    4880:	dc000017 	ldw	r16,0(sp)
    4884:	dec00304 	addi	sp,sp,12
    4888:	f800283a 	ret
    488c:	80800017 	ldw	r2,0(r16)
    4890:	103ff826 	beq	r2,zero,4874 <_sbrk_r+0x34>
    4894:	88800015 	stw	r2,0(r17)
    4898:	1805883a 	mov	r2,r3
    489c:	dfc00217 	ldw	ra,8(sp)
    48a0:	dc400117 	ldw	r17,4(sp)
    48a4:	dc000017 	ldw	r16,0(sp)
    48a8:	dec00304 	addi	sp,sp,12
    48ac:	f800283a 	ret

000048b0 <__sclose>:
    48b0:	2940038f 	ldh	r5,14(r5)
    48b4:	0004a741 	jmpi	4a74 <_close_r>

000048b8 <__sseek>:
    48b8:	defffe04 	addi	sp,sp,-8
    48bc:	dc000015 	stw	r16,0(sp)
    48c0:	2821883a 	mov	r16,r5
    48c4:	2940038f 	ldh	r5,14(r5)
    48c8:	dfc00115 	stw	ra,4(sp)
    48cc:	0004cec0 	call	4cec <_lseek_r>
    48d0:	1007883a 	mov	r3,r2
    48d4:	00bfffc4 	movi	r2,-1
    48d8:	18800926 	beq	r3,r2,4900 <__sseek+0x48>
    48dc:	8080030b 	ldhu	r2,12(r16)
    48e0:	80c01415 	stw	r3,80(r16)
    48e4:	10840014 	ori	r2,r2,4096
    48e8:	8080030d 	sth	r2,12(r16)
    48ec:	1805883a 	mov	r2,r3
    48f0:	dfc00117 	ldw	ra,4(sp)
    48f4:	dc000017 	ldw	r16,0(sp)
    48f8:	dec00204 	addi	sp,sp,8
    48fc:	f800283a 	ret
    4900:	8080030b 	ldhu	r2,12(r16)
    4904:	10bbffcc 	andi	r2,r2,61439
    4908:	8080030d 	sth	r2,12(r16)
    490c:	1805883a 	mov	r2,r3
    4910:	dfc00117 	ldw	ra,4(sp)
    4914:	dc000017 	ldw	r16,0(sp)
    4918:	dec00204 	addi	sp,sp,8
    491c:	f800283a 	ret

00004920 <__swrite>:
    4920:	2880030b 	ldhu	r2,12(r5)
    4924:	defffb04 	addi	sp,sp,-20
    4928:	dcc00315 	stw	r19,12(sp)
    492c:	1080400c 	andi	r2,r2,256
    4930:	dc800215 	stw	r18,8(sp)
    4934:	dc400115 	stw	r17,4(sp)
    4938:	dc000015 	stw	r16,0(sp)
    493c:	3027883a 	mov	r19,r6
    4940:	3825883a 	mov	r18,r7
    4944:	dfc00415 	stw	ra,16(sp)
    4948:	2821883a 	mov	r16,r5
    494c:	000d883a 	mov	r6,zero
    4950:	01c00084 	movi	r7,2
    4954:	2023883a 	mov	r17,r4
    4958:	10000226 	beq	r2,zero,4964 <__swrite+0x44>
    495c:	2940038f 	ldh	r5,14(r5)
    4960:	0004cec0 	call	4cec <_lseek_r>
    4964:	8080030b 	ldhu	r2,12(r16)
    4968:	8140038f 	ldh	r5,14(r16)
    496c:	8809883a 	mov	r4,r17
    4970:	10bbffcc 	andi	r2,r2,61439
    4974:	980d883a 	mov	r6,r19
    4978:	900f883a 	mov	r7,r18
    497c:	8080030d 	sth	r2,12(r16)
    4980:	dfc00417 	ldw	ra,16(sp)
    4984:	dcc00317 	ldw	r19,12(sp)
    4988:	dc800217 	ldw	r18,8(sp)
    498c:	dc400117 	ldw	r17,4(sp)
    4990:	dc000017 	ldw	r16,0(sp)
    4994:	dec00504 	addi	sp,sp,20
    4998:	00049fc1 	jmpi	49fc <_write_r>

0000499c <__sread>:
    499c:	defffe04 	addi	sp,sp,-8
    49a0:	dc000015 	stw	r16,0(sp)
    49a4:	2821883a 	mov	r16,r5
    49a8:	2940038f 	ldh	r5,14(r5)
    49ac:	dfc00115 	stw	ra,4(sp)
    49b0:	0004d640 	call	4d64 <_read_r>
    49b4:	1007883a 	mov	r3,r2
    49b8:	10000816 	blt	r2,zero,49dc <__sread+0x40>
    49bc:	80801417 	ldw	r2,80(r16)
    49c0:	10c5883a 	add	r2,r2,r3
    49c4:	80801415 	stw	r2,80(r16)
    49c8:	1805883a 	mov	r2,r3
    49cc:	dfc00117 	ldw	ra,4(sp)
    49d0:	dc000017 	ldw	r16,0(sp)
    49d4:	dec00204 	addi	sp,sp,8
    49d8:	f800283a 	ret
    49dc:	8080030b 	ldhu	r2,12(r16)
    49e0:	10bbffcc 	andi	r2,r2,61439
    49e4:	8080030d 	sth	r2,12(r16)
    49e8:	1805883a 	mov	r2,r3
    49ec:	dfc00117 	ldw	ra,4(sp)
    49f0:	dc000017 	ldw	r16,0(sp)
    49f4:	dec00204 	addi	sp,sp,8
    49f8:	f800283a 	ret

000049fc <_write_r>:
    49fc:	defffd04 	addi	sp,sp,-12
    4a00:	dc000015 	stw	r16,0(sp)
    4a04:	04000074 	movhi	r16,1
    4a08:	84237304 	addi	r16,r16,-29236
    4a0c:	dc400115 	stw	r17,4(sp)
    4a10:	80000015 	stw	zero,0(r16)
    4a14:	2023883a 	mov	r17,r4
    4a18:	2809883a 	mov	r4,r5
    4a1c:	300b883a 	mov	r5,r6
    4a20:	380d883a 	mov	r6,r7
    4a24:	dfc00215 	stw	ra,8(sp)
    4a28:	00050dc0 	call	50dc <write>
    4a2c:	1007883a 	mov	r3,r2
    4a30:	00bfffc4 	movi	r2,-1
    4a34:	18800626 	beq	r3,r2,4a50 <_write_r+0x54>
    4a38:	1805883a 	mov	r2,r3
    4a3c:	dfc00217 	ldw	ra,8(sp)
    4a40:	dc400117 	ldw	r17,4(sp)
    4a44:	dc000017 	ldw	r16,0(sp)
    4a48:	dec00304 	addi	sp,sp,12
    4a4c:	f800283a 	ret
    4a50:	80800017 	ldw	r2,0(r16)
    4a54:	103ff826 	beq	r2,zero,4a38 <_write_r+0x3c>
    4a58:	88800015 	stw	r2,0(r17)
    4a5c:	1805883a 	mov	r2,r3
    4a60:	dfc00217 	ldw	ra,8(sp)
    4a64:	dc400117 	ldw	r17,4(sp)
    4a68:	dc000017 	ldw	r16,0(sp)
    4a6c:	dec00304 	addi	sp,sp,12
    4a70:	f800283a 	ret

00004a74 <_close_r>:
    4a74:	defffd04 	addi	sp,sp,-12
    4a78:	dc000015 	stw	r16,0(sp)
    4a7c:	04000074 	movhi	r16,1
    4a80:	84237304 	addi	r16,r16,-29236
    4a84:	dc400115 	stw	r17,4(sp)
    4a88:	80000015 	stw	zero,0(r16)
    4a8c:	2023883a 	mov	r17,r4
    4a90:	2809883a 	mov	r4,r5
    4a94:	dfc00215 	stw	ra,8(sp)
    4a98:	00024940 	call	2494 <close>
    4a9c:	1007883a 	mov	r3,r2
    4aa0:	00bfffc4 	movi	r2,-1
    4aa4:	18800626 	beq	r3,r2,4ac0 <_close_r+0x4c>
    4aa8:	1805883a 	mov	r2,r3
    4aac:	dfc00217 	ldw	ra,8(sp)
    4ab0:	dc400117 	ldw	r17,4(sp)
    4ab4:	dc000017 	ldw	r16,0(sp)
    4ab8:	dec00304 	addi	sp,sp,12
    4abc:	f800283a 	ret
    4ac0:	80800017 	ldw	r2,0(r16)
    4ac4:	103ff826 	beq	r2,zero,4aa8 <_close_r+0x34>
    4ac8:	88800015 	stw	r2,0(r17)
    4acc:	1805883a 	mov	r2,r3
    4ad0:	dfc00217 	ldw	ra,8(sp)
    4ad4:	dc400117 	ldw	r17,4(sp)
    4ad8:	dc000017 	ldw	r16,0(sp)
    4adc:	dec00304 	addi	sp,sp,12
    4ae0:	f800283a 	ret

00004ae4 <_fclose_r>:
    4ae4:	defffc04 	addi	sp,sp,-16
    4ae8:	dc400115 	stw	r17,4(sp)
    4aec:	dc000015 	stw	r16,0(sp)
    4af0:	dfc00315 	stw	ra,12(sp)
    4af4:	dc800215 	stw	r18,8(sp)
    4af8:	2821883a 	mov	r16,r5
    4afc:	2023883a 	mov	r17,r4
    4b00:	28002926 	beq	r5,zero,4ba8 <_fclose_r+0xc4>
    4b04:	00036ac0 	call	36ac <__sfp_lock_acquire>
    4b08:	88000226 	beq	r17,zero,4b14 <_fclose_r+0x30>
    4b0c:	88800e17 	ldw	r2,56(r17)
    4b10:	10002d26 	beq	r2,zero,4bc8 <_fclose_r+0xe4>
    4b14:	8080030f 	ldh	r2,12(r16)
    4b18:	10002226 	beq	r2,zero,4ba4 <_fclose_r+0xc0>
    4b1c:	8809883a 	mov	r4,r17
    4b20:	800b883a 	mov	r5,r16
    4b24:	00034240 	call	3424 <_fflush_r>
    4b28:	1025883a 	mov	r18,r2
    4b2c:	80800b17 	ldw	r2,44(r16)
    4b30:	10000426 	beq	r2,zero,4b44 <_fclose_r+0x60>
    4b34:	81400717 	ldw	r5,28(r16)
    4b38:	8809883a 	mov	r4,r17
    4b3c:	103ee83a 	callr	r2
    4b40:	10002a16 	blt	r2,zero,4bec <_fclose_r+0x108>
    4b44:	8080030b 	ldhu	r2,12(r16)
    4b48:	1080200c 	andi	r2,r2,128
    4b4c:	1000231e 	bne	r2,zero,4bdc <_fclose_r+0xf8>
    4b50:	81400c17 	ldw	r5,48(r16)
    4b54:	28000526 	beq	r5,zero,4b6c <_fclose_r+0x88>
    4b58:	80801004 	addi	r2,r16,64
    4b5c:	28800226 	beq	r5,r2,4b68 <_fclose_r+0x84>
    4b60:	8809883a 	mov	r4,r17
    4b64:	0003a400 	call	3a40 <_free_r>
    4b68:	80000c15 	stw	zero,48(r16)
    4b6c:	81401117 	ldw	r5,68(r16)
    4b70:	28000326 	beq	r5,zero,4b80 <_fclose_r+0x9c>
    4b74:	8809883a 	mov	r4,r17
    4b78:	0003a400 	call	3a40 <_free_r>
    4b7c:	80001115 	stw	zero,68(r16)
    4b80:	8000030d 	sth	zero,12(r16)
    4b84:	00036b00 	call	36b0 <__sfp_lock_release>
    4b88:	9005883a 	mov	r2,r18
    4b8c:	dfc00317 	ldw	ra,12(sp)
    4b90:	dc800217 	ldw	r18,8(sp)
    4b94:	dc400117 	ldw	r17,4(sp)
    4b98:	dc000017 	ldw	r16,0(sp)
    4b9c:	dec00404 	addi	sp,sp,16
    4ba0:	f800283a 	ret
    4ba4:	00036b00 	call	36b0 <__sfp_lock_release>
    4ba8:	0025883a 	mov	r18,zero
    4bac:	9005883a 	mov	r2,r18
    4bb0:	dfc00317 	ldw	ra,12(sp)
    4bb4:	dc800217 	ldw	r18,8(sp)
    4bb8:	dc400117 	ldw	r17,4(sp)
    4bbc:	dc000017 	ldw	r16,0(sp)
    4bc0:	dec00404 	addi	sp,sp,16
    4bc4:	f800283a 	ret
    4bc8:	8809883a 	mov	r4,r17
    4bcc:	00036bc0 	call	36bc <__sinit>
    4bd0:	8080030f 	ldh	r2,12(r16)
    4bd4:	103fd11e 	bne	r2,zero,4b1c <_fclose_r+0x38>
    4bd8:	003ff206 	br	4ba4 <_fclose_r+0xc0>
    4bdc:	81400417 	ldw	r5,16(r16)
    4be0:	8809883a 	mov	r4,r17
    4be4:	0003a400 	call	3a40 <_free_r>
    4be8:	003fd906 	br	4b50 <_fclose_r+0x6c>
    4bec:	04bfffc4 	movi	r18,-1
    4bf0:	003fd406 	br	4b44 <_fclose_r+0x60>

00004bf4 <fclose>:
    4bf4:	00800034 	movhi	r2,0
    4bf8:	109c3104 	addi	r2,r2,28868
    4bfc:	200b883a 	mov	r5,r4
    4c00:	11000017 	ldw	r4,0(r2)
    4c04:	0004ae41 	jmpi	4ae4 <_fclose_r>

00004c08 <_fstat_r>:
    4c08:	defffd04 	addi	sp,sp,-12
    4c0c:	dc000015 	stw	r16,0(sp)
    4c10:	04000074 	movhi	r16,1
    4c14:	84237304 	addi	r16,r16,-29236
    4c18:	dc400115 	stw	r17,4(sp)
    4c1c:	80000015 	stw	zero,0(r16)
    4c20:	2023883a 	mov	r17,r4
    4c24:	2809883a 	mov	r4,r5
    4c28:	300b883a 	mov	r5,r6
    4c2c:	dfc00215 	stw	ra,8(sp)
    4c30:	0004df00 	call	4df0 <fstat>
    4c34:	1007883a 	mov	r3,r2
    4c38:	00bfffc4 	movi	r2,-1
    4c3c:	18800626 	beq	r3,r2,4c58 <_fstat_r+0x50>
    4c40:	1805883a 	mov	r2,r3
    4c44:	dfc00217 	ldw	ra,8(sp)
    4c48:	dc400117 	ldw	r17,4(sp)
    4c4c:	dc000017 	ldw	r16,0(sp)
    4c50:	dec00304 	addi	sp,sp,12
    4c54:	f800283a 	ret
    4c58:	80800017 	ldw	r2,0(r16)
    4c5c:	103ff826 	beq	r2,zero,4c40 <_fstat_r+0x38>
    4c60:	88800015 	stw	r2,0(r17)
    4c64:	1805883a 	mov	r2,r3
    4c68:	dfc00217 	ldw	ra,8(sp)
    4c6c:	dc400117 	ldw	r17,4(sp)
    4c70:	dc000017 	ldw	r16,0(sp)
    4c74:	dec00304 	addi	sp,sp,12
    4c78:	f800283a 	ret

00004c7c <_isatty_r>:
    4c7c:	defffd04 	addi	sp,sp,-12
    4c80:	dc000015 	stw	r16,0(sp)
    4c84:	04000074 	movhi	r16,1
    4c88:	84237304 	addi	r16,r16,-29236
    4c8c:	dc400115 	stw	r17,4(sp)
    4c90:	80000015 	stw	zero,0(r16)
    4c94:	2023883a 	mov	r17,r4
    4c98:	2809883a 	mov	r4,r5
    4c9c:	dfc00215 	stw	ra,8(sp)
    4ca0:	0004e700 	call	4e70 <isatty>
    4ca4:	1007883a 	mov	r3,r2
    4ca8:	00bfffc4 	movi	r2,-1
    4cac:	18800626 	beq	r3,r2,4cc8 <_isatty_r+0x4c>
    4cb0:	1805883a 	mov	r2,r3
    4cb4:	dfc00217 	ldw	ra,8(sp)
    4cb8:	dc400117 	ldw	r17,4(sp)
    4cbc:	dc000017 	ldw	r16,0(sp)
    4cc0:	dec00304 	addi	sp,sp,12
    4cc4:	f800283a 	ret
    4cc8:	80800017 	ldw	r2,0(r16)
    4ccc:	103ff826 	beq	r2,zero,4cb0 <_isatty_r+0x34>
    4cd0:	88800015 	stw	r2,0(r17)
    4cd4:	1805883a 	mov	r2,r3
    4cd8:	dfc00217 	ldw	ra,8(sp)
    4cdc:	dc400117 	ldw	r17,4(sp)
    4ce0:	dc000017 	ldw	r16,0(sp)
    4ce4:	dec00304 	addi	sp,sp,12
    4ce8:	f800283a 	ret

00004cec <_lseek_r>:
    4cec:	defffd04 	addi	sp,sp,-12
    4cf0:	dc000015 	stw	r16,0(sp)
    4cf4:	04000074 	movhi	r16,1
    4cf8:	84237304 	addi	r16,r16,-29236
    4cfc:	dc400115 	stw	r17,4(sp)
    4d00:	80000015 	stw	zero,0(r16)
    4d04:	2023883a 	mov	r17,r4
    4d08:	2809883a 	mov	r4,r5
    4d0c:	300b883a 	mov	r5,r6
    4d10:	380d883a 	mov	r6,r7
    4d14:	dfc00215 	stw	ra,8(sp)
    4d18:	0004ef40 	call	4ef4 <lseek>
    4d1c:	1007883a 	mov	r3,r2
    4d20:	00bfffc4 	movi	r2,-1
    4d24:	18800626 	beq	r3,r2,4d40 <_lseek_r+0x54>
    4d28:	1805883a 	mov	r2,r3
    4d2c:	dfc00217 	ldw	ra,8(sp)
    4d30:	dc400117 	ldw	r17,4(sp)
    4d34:	dc000017 	ldw	r16,0(sp)
    4d38:	dec00304 	addi	sp,sp,12
    4d3c:	f800283a 	ret
    4d40:	80800017 	ldw	r2,0(r16)
    4d44:	103ff826 	beq	r2,zero,4d28 <_lseek_r+0x3c>
    4d48:	88800015 	stw	r2,0(r17)
    4d4c:	1805883a 	mov	r2,r3
    4d50:	dfc00217 	ldw	ra,8(sp)
    4d54:	dc400117 	ldw	r17,4(sp)
    4d58:	dc000017 	ldw	r16,0(sp)
    4d5c:	dec00304 	addi	sp,sp,12
    4d60:	f800283a 	ret

00004d64 <_read_r>:
    4d64:	defffd04 	addi	sp,sp,-12
    4d68:	dc000015 	stw	r16,0(sp)
    4d6c:	04000074 	movhi	r16,1
    4d70:	84237304 	addi	r16,r16,-29236
    4d74:	dc400115 	stw	r17,4(sp)
    4d78:	80000015 	stw	zero,0(r16)
    4d7c:	2023883a 	mov	r17,r4
    4d80:	2809883a 	mov	r4,r5
    4d84:	300b883a 	mov	r5,r6
    4d88:	380d883a 	mov	r6,r7
    4d8c:	dfc00215 	stw	ra,8(sp)
    4d90:	0004f940 	call	4f94 <read>
    4d94:	1007883a 	mov	r3,r2
    4d98:	00bfffc4 	movi	r2,-1
    4d9c:	18800626 	beq	r3,r2,4db8 <_read_r+0x54>
    4da0:	1805883a 	mov	r2,r3
    4da4:	dfc00217 	ldw	ra,8(sp)
    4da8:	dc400117 	ldw	r17,4(sp)
    4dac:	dc000017 	ldw	r16,0(sp)
    4db0:	dec00304 	addi	sp,sp,12
    4db4:	f800283a 	ret
    4db8:	80800017 	ldw	r2,0(r16)
    4dbc:	103ff826 	beq	r2,zero,4da0 <_read_r+0x3c>
    4dc0:	88800015 	stw	r2,0(r17)
    4dc4:	1805883a 	mov	r2,r3
    4dc8:	dfc00217 	ldw	ra,8(sp)
    4dcc:	dc400117 	ldw	r17,4(sp)
    4dd0:	dc000017 	ldw	r16,0(sp)
    4dd4:	dec00304 	addi	sp,sp,12
    4dd8:	f800283a 	ret

00004ddc <_exit>:
    4ddc:	20000226 	beq	r4,zero,4de8 <_exit+0xc>
    4de0:	002af070 	cmpltui	zero,zero,43969
    4de4:	00000106 	br	4dec <_exit+0x10>
    4de8:	002af0b0 	cmpltui	zero,zero,43970
    4dec:	003fff06 	br	4dec <_exit+0x10>

00004df0 <fstat>:
    4df0:	deffff04 	addi	sp,sp,-4
    4df4:	dfc00015 	stw	ra,0(sp)
    4df8:	20000e16 	blt	r4,zero,4e34 <fstat+0x44>
    4dfc:	20c00324 	muli	r3,r4,12
    4e00:	00800034 	movhi	r2,0
    4e04:	1099c604 	addi	r2,r2,26392
    4e08:	1889883a 	add	r4,r3,r2
    4e0c:	20000926 	beq	r4,zero,4e34 <fstat+0x44>
    4e10:	20800017 	ldw	r2,0(r4)
    4e14:	10800817 	ldw	r2,32(r2)
    4e18:	10000226 	beq	r2,zero,4e24 <fstat+0x34>
    4e1c:	103ee83a 	callr	r2
    4e20:	00001006 	br	4e64 <fstat+0x74>
    4e24:	00880004 	movi	r2,8192
    4e28:	28800115 	stw	r2,4(r5)
    4e2c:	0005883a 	mov	r2,zero
    4e30:	00000c06 	br	4e64 <fstat+0x74>
    4e34:	00800034 	movhi	r2,0
    4e38:	109c2d04 	addi	r2,r2,28852
    4e3c:	10800017 	ldw	r2,0(r2)
    4e40:	1000031e 	bne	r2,zero,4e50 <fstat+0x60>
    4e44:	00c00074 	movhi	r3,1
    4e48:	18e37304 	addi	r3,r3,-29236
    4e4c:	00000206 	br	4e58 <fstat+0x68>
    4e50:	103ee83a 	callr	r2
    4e54:	1007883a 	mov	r3,r2
    4e58:	00801444 	movi	r2,81
    4e5c:	18800015 	stw	r2,0(r3)
    4e60:	00bfffc4 	movi	r2,-1
    4e64:	dfc00017 	ldw	ra,0(sp)
    4e68:	dec00104 	addi	sp,sp,4
    4e6c:	f800283a 	ret

00004e70 <isatty>:
    4e70:	defff004 	addi	sp,sp,-64
    4e74:	dfc00f15 	stw	ra,60(sp)
    4e78:	20000f16 	blt	r4,zero,4eb8 <isatty+0x48>
    4e7c:	20c00324 	muli	r3,r4,12
    4e80:	00800034 	movhi	r2,0
    4e84:	1099c604 	addi	r2,r2,26392
    4e88:	1885883a 	add	r2,r3,r2
    4e8c:	10000a26 	beq	r2,zero,4eb8 <isatty+0x48>
    4e90:	10800017 	ldw	r2,0(r2)
    4e94:	10800817 	ldw	r2,32(r2)
    4e98:	1000021e 	bne	r2,zero,4ea4 <isatty+0x34>
    4e9c:	00800044 	movi	r2,1
    4ea0:	00001106 	br	4ee8 <isatty+0x78>
    4ea4:	d80b883a 	mov	r5,sp
    4ea8:	0004df00 	call	4df0 <fstat>
    4eac:	d8800117 	ldw	r2,4(sp)
    4eb0:	10880020 	cmpeqi	r2,r2,8192
    4eb4:	00000c06 	br	4ee8 <isatty+0x78>
    4eb8:	00800034 	movhi	r2,0
    4ebc:	109c2d04 	addi	r2,r2,28852
    4ec0:	10800017 	ldw	r2,0(r2)
    4ec4:	1000031e 	bne	r2,zero,4ed4 <isatty+0x64>
    4ec8:	00c00074 	movhi	r3,1
    4ecc:	18e37304 	addi	r3,r3,-29236
    4ed0:	00000206 	br	4edc <isatty+0x6c>
    4ed4:	103ee83a 	callr	r2
    4ed8:	1007883a 	mov	r3,r2
    4edc:	00801444 	movi	r2,81
    4ee0:	18800015 	stw	r2,0(r3)
    4ee4:	0005883a 	mov	r2,zero
    4ee8:	dfc00f17 	ldw	ra,60(sp)
    4eec:	dec01004 	addi	sp,sp,64
    4ef0:	f800283a 	ret

00004ef4 <lseek>:
    4ef4:	defffe04 	addi	sp,sp,-8
    4ef8:	dfc00115 	stw	ra,4(sp)
    4efc:	dc000015 	stw	r16,0(sp)
    4f00:	2000020e 	bge	r4,zero,4f0c <lseek+0x18>
    4f04:	043febc4 	movi	r16,-81
    4f08:	00000d06 	br	4f40 <lseek+0x4c>
    4f0c:	20c00324 	muli	r3,r4,12
    4f10:	00800034 	movhi	r2,0
    4f14:	1099c604 	addi	r2,r2,26392
    4f18:	1889883a 	add	r4,r3,r2
    4f1c:	20001526 	beq	r4,zero,4f74 <lseek+0x80>
    4f20:	20800017 	ldw	r2,0(r4)
    4f24:	10800717 	ldw	r2,28(r2)
    4f28:	1000021e 	bne	r2,zero,4f34 <lseek+0x40>
    4f2c:	043fde84 	movi	r16,-134
    4f30:	00000306 	br	4f40 <lseek+0x4c>
    4f34:	103ee83a 	callr	r2
    4f38:	1000100e 	bge	r2,zero,4f7c <lseek+0x88>
    4f3c:	1021883a 	mov	r16,r2
    4f40:	00800034 	movhi	r2,0
    4f44:	109c2d04 	addi	r2,r2,28852
    4f48:	10800017 	ldw	r2,0(r2)
    4f4c:	1000031e 	bne	r2,zero,4f5c <lseek+0x68>
    4f50:	00c00074 	movhi	r3,1
    4f54:	18e37304 	addi	r3,r3,-29236
    4f58:	00000206 	br	4f64 <lseek+0x70>
    4f5c:	103ee83a 	callr	r2
    4f60:	1007883a 	mov	r3,r2
    4f64:	0405c83a 	sub	r2,zero,r16
    4f68:	18800015 	stw	r2,0(r3)
    4f6c:	00bfffc4 	movi	r2,-1
    4f70:	00000206 	br	4f7c <lseek+0x88>
    4f74:	043febc4 	movi	r16,-81
    4f78:	003ff106 	br	4f40 <lseek+0x4c>
    4f7c:	dfc00117 	ldw	ra,4(sp)
    4f80:	dc000017 	ldw	r16,0(sp)
    4f84:	dec00204 	addi	sp,sp,8
    4f88:	f800283a 	ret

00004f8c <__malloc_lock>:
    4f8c:	f800283a 	ret

00004f90 <__malloc_unlock>:
    4f90:	f800283a 	ret

00004f94 <read>:
    4f94:	defffe04 	addi	sp,sp,-8
    4f98:	dfc00115 	stw	ra,4(sp)
    4f9c:	dc000015 	stw	r16,0(sp)
    4fa0:	20002916 	blt	r4,zero,5048 <read+0xb4>
    4fa4:	20c00324 	muli	r3,r4,12
    4fa8:	00800034 	movhi	r2,0
    4fac:	1099c604 	addi	r2,r2,26392
    4fb0:	1889883a 	add	r4,r3,r2
    4fb4:	20002426 	beq	r4,zero,5048 <read+0xb4>
    4fb8:	20800217 	ldw	r2,8(r4)
    4fbc:	108000cc 	andi	r2,r2,3
    4fc0:	00c00044 	movi	r3,1
    4fc4:	10c01326 	beq	r2,r3,5014 <read+0x80>
    4fc8:	20800017 	ldw	r2,0(r4)
    4fcc:	10800517 	ldw	r2,20(r2)
    4fd0:	10001026 	beq	r2,zero,5014 <read+0x80>
    4fd4:	103ee83a 	callr	r2
    4fd8:	1021883a 	mov	r16,r2
    4fdc:	1000260e 	bge	r2,zero,5078 <read+0xe4>
    4fe0:	00800034 	movhi	r2,0
    4fe4:	109c2d04 	addi	r2,r2,28852
    4fe8:	10800017 	ldw	r2,0(r2)
    4fec:	1000031e 	bne	r2,zero,4ffc <read+0x68>
    4ff0:	00c00074 	movhi	r3,1
    4ff4:	18e37304 	addi	r3,r3,-29236
    4ff8:	00000206 	br	5004 <read+0x70>
    4ffc:	103ee83a 	callr	r2
    5000:	1007883a 	mov	r3,r2
    5004:	0405c83a 	sub	r2,zero,r16
    5008:	18800015 	stw	r2,0(r3)
    500c:	043fffc4 	movi	r16,-1
    5010:	00001906 	br	5078 <read+0xe4>
    5014:	00800034 	movhi	r2,0
    5018:	109c2d04 	addi	r2,r2,28852
    501c:	10800017 	ldw	r2,0(r2)
    5020:	1000031e 	bne	r2,zero,5030 <read+0x9c>
    5024:	00c00074 	movhi	r3,1
    5028:	18e37304 	addi	r3,r3,-29236
    502c:	00000206 	br	5038 <read+0xa4>
    5030:	103ee83a 	callr	r2
    5034:	1007883a 	mov	r3,r2
    5038:	00800344 	movi	r2,13
    503c:	18800015 	stw	r2,0(r3)
    5040:	043fffc4 	movi	r16,-1
    5044:	00000c06 	br	5078 <read+0xe4>
    5048:	00800034 	movhi	r2,0
    504c:	109c2d04 	addi	r2,r2,28852
    5050:	10800017 	ldw	r2,0(r2)
    5054:	1000031e 	bne	r2,zero,5064 <read+0xd0>
    5058:	00c00074 	movhi	r3,1
    505c:	18e37304 	addi	r3,r3,-29236
    5060:	00000206 	br	506c <read+0xd8>
    5064:	103ee83a 	callr	r2
    5068:	1007883a 	mov	r3,r2
    506c:	00801444 	movi	r2,81
    5070:	18800015 	stw	r2,0(r3)
    5074:	043fffc4 	movi	r16,-1
    5078:	8005883a 	mov	r2,r16
    507c:	dfc00117 	ldw	ra,4(sp)
    5080:	dc000017 	ldw	r16,0(sp)
    5084:	dec00204 	addi	sp,sp,8
    5088:	f800283a 	ret

0000508c <sbrk>:
    508c:	000b303a 	rdctl	r5,status
    5090:	00bfff84 	movi	r2,-2
    5094:	2884703a 	and	r2,r5,r2
    5098:	1001703a 	wrctl	status,r2
    509c:	d0a00d17 	ldw	r2,-32716(gp)
    50a0:	108000c4 	addi	r2,r2,3
    50a4:	00ffff04 	movi	r3,-4
    50a8:	10c6703a 	and	r3,r2,r3
    50ac:	d0e00d15 	stw	r3,-32716(gp)
    50b0:	1909883a 	add	r4,r3,r4
    50b4:	00802034 	movhi	r2,128
    50b8:	10800004 	addi	r2,r2,0
    50bc:	1100032e 	bgeu	r2,r4,50cc <sbrk+0x40>
    50c0:	2801703a 	wrctl	status,r5
    50c4:	00ffffc4 	movi	r3,-1
    50c8:	00000206 	br	50d4 <sbrk+0x48>
    50cc:	d1200d15 	stw	r4,-32716(gp)
    50d0:	2801703a 	wrctl	status,r5
    50d4:	1805883a 	mov	r2,r3
    50d8:	f800283a 	ret

000050dc <write>:
    50dc:	defffe04 	addi	sp,sp,-8
    50e0:	dfc00115 	stw	ra,4(sp)
    50e4:	dc000015 	stw	r16,0(sp)
    50e8:	20002816 	blt	r4,zero,518c <write+0xb0>
    50ec:	20c00324 	muli	r3,r4,12
    50f0:	00800034 	movhi	r2,0
    50f4:	1099c604 	addi	r2,r2,26392
    50f8:	1889883a 	add	r4,r3,r2
    50fc:	20002326 	beq	r4,zero,518c <write+0xb0>
    5100:	20800217 	ldw	r2,8(r4)
    5104:	108000cc 	andi	r2,r2,3
    5108:	10001326 	beq	r2,zero,5158 <write+0x7c>
    510c:	20800017 	ldw	r2,0(r4)
    5110:	10800617 	ldw	r2,24(r2)
    5114:	10001026 	beq	r2,zero,5158 <write+0x7c>
    5118:	103ee83a 	callr	r2
    511c:	1021883a 	mov	r16,r2
    5120:	1000260e 	bge	r2,zero,51bc <write+0xe0>
    5124:	00800034 	movhi	r2,0
    5128:	109c2d04 	addi	r2,r2,28852
    512c:	10800017 	ldw	r2,0(r2)
    5130:	1000031e 	bne	r2,zero,5140 <write+0x64>
    5134:	00c00074 	movhi	r3,1
    5138:	18e37304 	addi	r3,r3,-29236
    513c:	00000206 	br	5148 <write+0x6c>
    5140:	103ee83a 	callr	r2
    5144:	1007883a 	mov	r3,r2
    5148:	0405c83a 	sub	r2,zero,r16
    514c:	18800015 	stw	r2,0(r3)
    5150:	043fffc4 	movi	r16,-1
    5154:	00001906 	br	51bc <write+0xe0>
    5158:	00800034 	movhi	r2,0
    515c:	109c2d04 	addi	r2,r2,28852
    5160:	10800017 	ldw	r2,0(r2)
    5164:	1000031e 	bne	r2,zero,5174 <write+0x98>
    5168:	00c00074 	movhi	r3,1
    516c:	18e37304 	addi	r3,r3,-29236
    5170:	00000206 	br	517c <write+0xa0>
    5174:	103ee83a 	callr	r2
    5178:	1007883a 	mov	r3,r2
    517c:	00800344 	movi	r2,13
    5180:	18800015 	stw	r2,0(r3)
    5184:	043fffc4 	movi	r16,-1
    5188:	00000c06 	br	51bc <write+0xe0>
    518c:	00800034 	movhi	r2,0
    5190:	109c2d04 	addi	r2,r2,28852
    5194:	10800017 	ldw	r2,0(r2)
    5198:	1000031e 	bne	r2,zero,51a8 <write+0xcc>
    519c:	00c00074 	movhi	r3,1
    51a0:	18e37304 	addi	r3,r3,-29236
    51a4:	00000206 	br	51b0 <write+0xd4>
    51a8:	103ee83a 	callr	r2
    51ac:	1007883a 	mov	r3,r2
    51b0:	00801444 	movi	r2,81
    51b4:	18800015 	stw	r2,0(r3)
    51b8:	043fffc4 	movi	r16,-1
    51bc:	8005883a 	mov	r2,r16
    51c0:	dfc00117 	ldw	ra,4(sp)
    51c4:	dc000017 	ldw	r16,0(sp)
    51c8:	dec00204 	addi	sp,sp,8
    51cc:	f800283a 	ret
    51d0:	00003270 	cmpltui	zero,zero,201
