   1               		.file	"main.c"
   2               	__SREG__ = 0x3f
   3               	__SP_H__ = 0x3e
   4               	__SP_L__ = 0x3d
   5               	__CCP__  = 0x34
   6               	__tmp_reg__ = 0
   7               	__zero_reg__ = 1
  15               	.Ltext0:
  16               	.global	toggle
  18               	toggle:
  19               	.LFB7:
  20               	.LM1:
  21               	/* prologue: function */
  22               	/* frame size = 0 */
  23               	.LM2:
  24 0000 AD9A      		sbi 53-32,5
  25               	.LBB2269:
  26               	.LBB2270:
  27               	.LBB2271:
  28               	.LBB2272:
  29               	.LM3:
  30 0002 80E3      		ldi r24,lo8(30000)
  31 0004 95E7      		ldi r25,hi8(30000)
  32               	.LVL0:
  33               	/* #APP */
  34               	 ;  105 "c:/winavr-20100110/lib/gcc/../../avr/include/util/delay_basic.h" 1
  35 0006 0197      		1: sbiw r24,1
  36 0008 01F4      		brne 1b
  37               	 ;  0 "" 2
  38               	/* #NOAPP */
  39               	.LBE2272:
  40               	.LBE2271:
  41               	.LBE2270:
  42               	.LBE2269:
  43               	.LM4:
  44 000a AD98      		cbi 53-32,5
  45               	/* epilogue start */
  46               	.LM5:
  47 000c 0895      		ret
  48               	.LFE7:
  50               	.global	set_rs
  52               	set_rs:
  53               	.LFB8:
  54               	.LM6:
  55               	/* prologue: function */
  56               	/* frame size = 0 */
  57               	.LM7:
  58 000e AF9A      		sbi 53-32,7
  59               	/* epilogue start */
  60               	.LM8:
  61 0010 0895      		ret
  62               	.LFE8:
  64               	.global	clear_rs
  66               	clear_rs:
  67               	.LFB9:
  68               	.LM9:
  69               	/* prologue: function */
  70               	/* frame size = 0 */
  71               	.LM10:
  72 0012 AF98      		cbi 53-32,7
  73               	/* epilogue start */
  74               	.LM11:
  75 0014 0895      		ret
  76               	.LFE9:
  78               	.global	clear_rw
  80               	clear_rw:
  81               	.LFB10:
  82               	.LM12:
  83               	/* prologue: function */
  84               	/* frame size = 0 */
  85               	.LM13:
  86 0016 AE98      		cbi 53-32,6
  87               	/* epilogue start */
  88               	.LM14:
  89 0018 0895      		ret
  90               	.LFE10:
  92               	.global	set_rw
  94               	set_rw:
  95               	.LFB11:
  96               	.LM15:
  97               	/* prologue: function */
  98               	/* frame size = 0 */
  99               	.LM16:
 100 001a AE9A      		sbi 53-32,6
 101               	/* epilogue start */
 102               	.LM17:
 103 001c 0895      		ret
 104               	.LFE11:
 106               	.global	LCD_Send
 108               	LCD_Send:
 109               	.LFB12:
 110               	.LM18:
 111               	.LVL1:
 112               	/* prologue: function */
 113               	/* frame size = 0 */
 114               	.LM19:
 115 001e 982F      		mov r25,r24
 116               	.LVL2:
 117 0020 9295      		swap r25
 118 0022 9F70      		andi r25,lo8(15)
 119               	.LM20:
 120 0024 482F      		mov r20,r24
 121               	.LVL3:
 122 0026 4F70      		andi r20,lo8(15)
 123               	.LM21:
 124 0028 6115      		cp r22,__zero_reg__
 125 002a 7105      		cpc r23,__zero_reg__
 126 002c 01F4      		brne .L12
 127               	.LM22:
 128 002e 85B3      		in r24,53-32
 129               	.LVL4:
 130 0030 807F      		andi r24,lo8(-16)
 131 0032 982B      		or r25,r24
 132 0034 95BB      		out 53-32,r25
 133               	.LBB2273:
 134               	.LBB2274:
 135               	.LM23:
 136 0036 AF98      		cbi 53-32,7
 137               	.LBE2274:
 138               	.LBE2273:
 139               	.LBB2275:
 140               	.LBB2276:
 141               	.LM24:
 142 0038 AE98      		cbi 53-32,6
 143               	.LBE2276:
 144               	.LBE2275:
 145               	.LBB2277:
 146               	.LBB2278:
 147               	.LM25:
 148 003a AD9A      		sbi 53-32,5
 149               	.LBB2279:
 150               	.LBB2280:
 151               	.LBB2281:
 152               	.LBB2282:
 153               	.LM26:
 154 003c 20E3      		ldi r18,lo8(30000)
 155 003e 35E7      		ldi r19,hi8(30000)
 156 0040 C901      		movw r24,r18
 157               	.LVL5:
 158               	/* #APP */
 159               	 ;  105 "c:/winavr-20100110/lib/gcc/../../avr/include/util/delay_basic.h" 1
 160 0042 0197      		1: sbiw r24,1
 161 0044 01F4      		brne 1b
 162               	 ;  0 "" 2
 163               	/* #NOAPP */
 164               	.LBE2282:
 165               	.LBE2281:
 166               	.LBE2280:
 167               	.LBE2279:
 168               	.LM27:
 169 0046 AD98      		cbi 53-32,5
 170               	.LBE2278:
 171               	.LBE2277:
 172               	.LM28:
 173 0048 85B3      		in r24,53-32
 174               	.LVL6:
 175 004a 807F      		andi r24,lo8(-16)
 176 004c 482B      		or r20,r24
 177 004e 45BB      		out 53-32,r20
 178               	.LBB2283:
 179               	.LBB2284:
 180               	.LM29:
 181 0050 AF98      		cbi 53-32,7
 182               	.LBE2284:
 183               	.LBE2283:
 184               	.LBB2285:
 185               	.LBB2286:
 186               	.LM30:
 187 0052 AE98      		cbi 53-32,6
 188               	.LBE2286:
 189               	.LBE2285:
 190               	.LBB2287:
 191               	.LBB2288:
 192               	.LM31:
 193 0054 AD9A      		sbi 53-32,5
 194               	.LBB2289:
 195               	.LBB2290:
 196               	.LBB2291:
 197               	.LBB2292:
 198               	.LM32:
 199 0056 C901      		movw r24,r18
 200               	.LVL7:
 201               	/* #APP */
 202               	 ;  105 "c:/winavr-20100110/lib/gcc/../../avr/include/util/delay_basic.h" 1
 203 0058 0197      		1: sbiw r24,1
 204 005a 01F4      		brne 1b
 205               	 ;  0 "" 2
 206               	/* #NOAPP */
 207               	.LBE2292:
 208               	.LBE2291:
 209               	.LBE2290:
 210               	.LBE2289:
 211               	.LM33:
 212 005c AD98      		cbi 53-32,5
 213 005e 0895      		ret
 214               	.LVL8:
 215               	.L12:
 216               	.LBE2288:
 217               	.LBE2287:
 218               	.LM34:
 219 0060 6130      		cpi r22,1
 220 0062 7105      		cpc r23,__zero_reg__
 221 0064 01F4      		brne .L14
 222               	.LM35:
 223 0066 85B3      		in r24,53-32
 224               	.LVL9:
 225 0068 807F      		andi r24,lo8(-16)
 226 006a 982B      		or r25,r24
 227 006c 95BB      		out 53-32,r25
 228               	.LBB2293:
 229               	.LBB2294:
 230               	.LM36:
 231 006e AF9A      		sbi 53-32,7
 232               	.LBE2294:
 233               	.LBE2293:
 234               	.LBB2295:
 235               	.LBB2296:
 236               	.LM37:
 237 0070 AE98      		cbi 53-32,6
 238               	.LBE2296:
 239               	.LBE2295:
 240               	.LBB2297:
 241               	.LBB2298:
 242               	.LM38:
 243 0072 AD9A      		sbi 53-32,5
 244               	.LBB2299:
 245               	.LBB2300:
 246               	.LBB2301:
 247               	.LBB2302:
 248               	.LM39:
 249 0074 20E3      		ldi r18,lo8(30000)
 250 0076 35E7      		ldi r19,hi8(30000)
 251 0078 C901      		movw r24,r18
 252               	.LVL10:
 253               	/* #APP */
 254               	 ;  105 "c:/winavr-20100110/lib/gcc/../../avr/include/util/delay_basic.h" 1
 255 007a 0197      		1: sbiw r24,1
 256 007c 01F4      		brne 1b
 257               	 ;  0 "" 2
 258               	/* #NOAPP */
 259               	.LBE2302:
 260               	.LBE2301:
 261               	.LBE2300:
 262               	.LBE2299:
 263               	.LM40:
 264 007e AD98      		cbi 53-32,5
 265               	.LBE2298:
 266               	.LBE2297:
 267               	.LM41:
 268 0080 85B3      		in r24,53-32
 269               	.LVL11:
 270 0082 807F      		andi r24,lo8(-16)
 271 0084 482B      		or r20,r24
 272 0086 45BB      		out 53-32,r20
 273               	.LBB2303:
 274               	.LBB2304:
 275               	.LM42:
 276 0088 AF9A      		sbi 53-32,7
 277               	.LBE2304:
 278               	.LBE2303:
 279               	.LBB2305:
 280               	.LBB2306:
 281               	.LM43:
 282 008a AE98      		cbi 53-32,6
 283               	.LBE2306:
 284               	.LBE2305:
 285               	.LBB2307:
 286               	.LBB2308:
 287               	.LM44:
 288 008c AD9A      		sbi 53-32,5
 289               	.LBB2309:
 290               	.LBB2310:
 291               	.LBB2311:
 292               	.LBB2312:
 293               	.LM45:
 294 008e C901      		movw r24,r18
 295               	.LVL12:
 296               	/* #APP */
 297               	 ;  105 "c:/winavr-20100110/lib/gcc/../../avr/include/util/delay_basic.h" 1
 298 0090 0197      		1: sbiw r24,1
 299 0092 01F4      		brne 1b
 300               	 ;  0 "" 2
 301               	/* #NOAPP */
 302               	.LBE2312:
 303               	.LBE2311:
 304               	.LBE2310:
 305               	.LBE2309:
 306               	.LM46:
 307 0094 AD98      		cbi 53-32,5
 308               	.LVL13:
 309               	.L14:
 310 0096 0895      		ret
 311               	.LBE2308:
 312               	.LBE2307:
 313               	.LFE12:
 315               	.global	LCD_init
 317               	LCD_init:
 318               	.LFB13:
 319               	.LM47:
 320               	/* prologue: function */
 321               	/* frame size = 0 */
 322               	.LM48:
 323 0098 8FEF      		ldi r24,lo8(-1)
 324 009a 84BB      		out 52-32,r24
 325               	.LBB2313:
 326               	.LBB2314:
 327               	.LM49:
 328 009c AF98      		cbi 53-32,7
 329               	.LBE2314:
 330               	.LBE2313:
 331               	.LBB2315:
 332               	.LBB2316:
 333               	.LM50:
 334 009e AE98      		cbi 53-32,6
 335               	.LBE2316:
 336               	.LBE2315:
 337               	.LM51:
 338 00a0 81E0      		ldi r24,lo8(1)
 339 00a2 60E0      		ldi r22,lo8(0)
 340 00a4 70E0      		ldi r23,hi8(0)
 341 00a6 0E94 0000 		call LCD_Send
 342               	.LM52:
 343 00aa 8FE0      		ldi r24,lo8(15)
 344 00ac 60E0      		ldi r22,lo8(0)
 345 00ae 70E0      		ldi r23,hi8(0)
 346 00b0 0E94 0000 		call LCD_Send
 347               	.LM53:
 348 00b4 88E2      		ldi r24,lo8(40)
 349 00b6 60E0      		ldi r22,lo8(0)
 350 00b8 70E0      		ldi r23,hi8(0)
 351 00ba 0E94 0000 		call LCD_Send
 352               	/* epilogue start */
 353               	.LM54:
 354 00be 0895      		ret
 355               	.LFE13:
 357               	.global	LCD_GotoXY
 359               	LCD_GotoXY:
 360               	.LFB15:
 361               	.LM55:
 362               	.LVL14:
 363               	/* prologue: function */
 364               	/* frame size = 0 */
 365               	.LM56:
 366 00c0 6130      		cpi r22,1
 367 00c2 7105      		cpc r23,__zero_reg__
 368 00c4 01F4      		brne .L18
 369               	.LM57:
 370 00c6 8158      		subi r24,lo8(-(127))
 371               	.LVL15:
 372 00c8 60E0      		ldi r22,lo8(0)
 373 00ca 70E0      		ldi r23,hi8(0)
 374               	.LVL16:
 375 00cc 0E94 0000 		call LCD_Send
 376 00d0 0895      		ret
 377               	.LVL17:
 378               	.L18:
 379               	.LM58:
 380 00d2 6230      		cpi r22,2
 381 00d4 7105      		cpc r23,__zero_reg__
 382 00d6 01F4      		brne .L20
 383               	.LM59:
 384 00d8 8154      		subi r24,lo8(-(-65))
 385               	.LVL18:
 386 00da 60E0      		ldi r22,lo8(0)
 387 00dc 70E0      		ldi r23,hi8(0)
 388               	.LVL19:
 389 00de 0E94 0000 		call LCD_Send
 390               	.LVL20:
 391               	.L20:
 392 00e2 0895      		ret
 393               	.LFE15:
 395               	.global	main
 397               	main:
 398               	.LFB17:
 399               	.LM60:
 400 00e4 2F92      		push r2
 401 00e6 3F92      		push r3
 402 00e8 4F92      		push r4
 403 00ea 5F92      		push r5
 404 00ec 6F92      		push r6
 405 00ee 7F92      		push r7
 406 00f0 8F92      		push r8
 407 00f2 9F92      		push r9
 408 00f4 AF92      		push r10
 409 00f6 BF92      		push r11
 410 00f8 CF92      		push r12
 411 00fa DF92      		push r13
 412 00fc EF92      		push r14
 413 00fe FF92      		push r15
 414 0100 0F93      		push r16
 415 0102 1F93      		push r17
 416 0104 DF93      		push r29
 417 0106 CF93      		push r28
 418 0108 CDB7      		in r28,__SP_L__
 419 010a DEB7      		in r29,__SP_H__
 420 010c A897      		sbiw r28,40
 421 010e 0FB6      		in __tmp_reg__,__SREG__
 422 0110 F894      		cli
 423 0112 DEBF      		out __SP_H__,r29
 424 0114 0FBE      		out __SREG__,__tmp_reg__
 425 0116 CDBF      		out __SP_L__,r28
 426               	/* prologue: function */
 427               	/* frame size = 40 */
 428               	.LM61:
 429 0118 DE01      		movw r26,r28
 430 011a 1196      		adiw r26,1
 431 011c E0E0      		ldi r30,lo8(C.3.1736)
 432 011e F0E0      		ldi r31,hi8(C.3.1736)
 433 0120 88E2      		ldi r24,lo8(40)
 434               	.L22:
 435 0122 0190      		ld r0,Z+
 436 0124 0D92      		st X+,r0
 437 0126 8150      		subi r24,lo8(-(-1))
 438 0128 01F4      		brne .L22
 439               	.LM62:
 440 012a 1ABA      		out 58-32,__zero_reg__
 441               	.LM63:
 442 012c 86EC      		ldi r24,lo8(-58)
 443 012e 86B9      		out 38-32,r24
 444               	.LM64:
 445 0130 80EC      		ldi r24,lo8(-64)
 446 0132 87B9      		out 39-32,r24
 447 0134 AA24      		clr r10
 448 0136 BB24      		clr r11
 449               	.LVL21:
 450               	.LBB2317:
 451               	.LM65:
 452 0138 4E01      		movw r8,r28
 453 013a 0894      		sec
 454 013c 811C      		adc r8,__zero_reg__
 455 013e 911C      		adc r9,__zero_reg__
 456               	.LM66:
 457 0140 7724      		clr r7
 458 0142 7A94      		dec r7
 459               	.LM67:
 460 0144 5CE1      		ldi r21,lo8(28)
 461 0146 652E      		mov r6,r21
 462               	.LBB2318:
 463               	.LBB2319:
 464               	.LBB2320:
 465               	.LBB2321:
 466               	.LM68:
 467 0148 0CE2      		ldi r16,lo8(300)
 468 014a 11E0      		ldi r17,hi8(300)
 469               	.LBE2321:
 470               	.LBE2320:
 471               	.LBE2319:
 472               	.LBE2318:
 473               	.LM69:
 474 014c 4DE1      		ldi r20,lo8(29)
 475 014e 542E      		mov r5,r20
 476               	.LM70:
 477 0150 3EE1      		ldi r19,lo8(30)
 478 0152 432E      		mov r4,r19
 479               	.LM71:
 480 0154 20E2      		ldi r18,lo8(32)
 481 0156 322E      		mov r3,r18
 482               	.LM72:
 483 0158 95E2      		ldi r25,lo8(37)
 484 015a 292E      		mov r2,r25
 485               	.LVL22:
 486               	.L811:
 487               	.LM73:
 488 015c F501      		movw r30,r10
 489 015e EE0F      		lsl r30
 490 0160 FF1F      		rol r31
 491 0162 EE0F      		lsl r30
 492 0164 FF1F      		rol r31
 493 0166 E80D      		add r30,r8
 494 0168 F91D      		adc r31,r9
 495 016a C080      		ld r12,Z
 496 016c D180      		ldd r13,Z+1
 497 016e E280      		ldd r14,Z+2
 498 0170 F380      		ldd r15,Z+3
 499               	.LM74:
 500 0172 77BA      		out 55-32,r7
 501               	.LM75:
 502 0174 C701      		movw r24,r14
 503 0176 B601      		movw r22,r12
 504 0178 20E0      		ldi r18,lo8(0x41000000)
 505 017a 30E0      		ldi r19,hi8(0x41000000)
 506 017c 40E0      		ldi r20,hlo8(0x41000000)
 507 017e 51E4      		ldi r21,hhi8(0x41000000)
 508 0180 0E94 0000 		call __gesf2
 509 0184 8823      		tst r24
 510 0186 04F4      		brge .+2
 511 0188 00C0      		rjmp .L23
 512 018a C701      		movw r24,r14
 513 018c B601      		movw r22,r12
 514 018e 20E0      		ldi r18,lo8(0x41080000)
 515 0190 30E0      		ldi r19,hi8(0x41080000)
 516 0192 48E0      		ldi r20,hlo8(0x41080000)
 517 0194 51E4      		ldi r21,hhi8(0x41080000)
 518 0196 0E94 0000 		call __ltsf2
 519 019a 8823      		tst r24
 520 019c 04F0      		brlt .+2
 521 019e 00C0      		rjmp .L23
 522               	.LM76:
 523 01a0 68BA      		out 56-32,r6
 524 01a2 80E1      		ldi r24,lo8(10000)
 525 01a4 97E2      		ldi r25,hi8(10000)
 526               	.LVL23:
 527               	.L26:
 528               	.LBB2325:
 529               	.LBB2324:
 530               	.LBB2323:
 531               	.LBB2322:
 532               	.LM77:
 533 01a6 F801      		movw r30,r16
 534               	.LVL24:
 535               	/* #APP */
 536               	 ;  105 "c:/winavr-20100110/lib/gcc/../../avr/include/util/delay_basic.h" 1
 537 01a8 3197      		1: sbiw r30,1
 538 01aa 01F4      		brne 1b
 539               	 ;  0 "" 2
 540               	/* #NOAPP */
 541               	.LBE2322:
 542               	.LBE2323:
 543               	.LM78:
 544 01ac 0197      		sbiw r24,1
 545               	.LM79:
 546 01ae 01F4      		brne .L26
 547 01b0 80E1      		ldi r24,lo8(10000)
 548 01b2 97E2      		ldi r25,hi8(10000)
 549               	.LVL25:
 550               	.L27:
 551               	.LBE2324:
 552               	.LBE2325:
 553               	.LBB2326:
 554               	.LBB2327:
 555               	.LBB2328:
 556               	.LBB2329:
 557               	.LM80:
 558 01b4 F801      		movw r30,r16
 559               	.LVL26:
 560               	/* #APP */
 561               	 ;  105 "c:/winavr-20100110/lib/gcc/../../avr/include/util/delay_basic.h" 1
 562 01b6 3197      		1: sbiw r30,1
 563 01b8 01F4      		brne 1b
 564               	 ;  0 "" 2
 565               	/* #NOAPP */
 566               	.LBE2329:
 567               	.LBE2328:
 568               	.LM81:
 569 01ba 0197      		sbiw r24,1
 570               	.LM82:
 571 01bc 01F4      		brne .L27
 572 01be 80E1      		ldi r24,lo8(10000)
 573 01c0 97E2      		ldi r25,hi8(10000)
 574               	.LVL27:
 575               	.L28:
 576               	.LBE2327:
 577               	.LBE2326:
 578               	.LBB2330:
 579               	.LBB2331:
 580               	.LBB2332:
 581               	.LBB2333:
 582               	.LM83:
 583 01c2 F801      		movw r30,r16
 584               	.LVL28:
 585               	/* #APP */
 586               	 ;  105 "c:/winavr-20100110/lib/gcc/../../avr/include/util/delay_basic.h" 1
 587 01c4 3197      		1: sbiw r30,1
 588 01c6 01F4      		brne 1b
 589               	 ;  0 "" 2
 590               	/* #NOAPP */
 591               	.LBE2333:
 592               	.LBE2332:
 593               	.LM84:
 594 01c8 0197      		sbiw r24,1
 595               	.LM85:
 596 01ca 01F4      		brne .L28
 597 01cc 80E1      		ldi r24,lo8(10000)
 598 01ce 97E2      		ldi r25,hi8(10000)
 599               	.LVL29:
 600               	.L29:
 601               	.LBE2331:
 602               	.LBE2330:
 603               	.LBB2334:
 604               	.LBB2335:
 605               	.LBB2336:
 606               	.LBB2337:
 607               	.LM86:
 608 01d0 F801      		movw r30,r16
 609               	.LVL30:
 610               	/* #APP */
 611               	 ;  105 "c:/winavr-20100110/lib/gcc/../../avr/include/util/delay_basic.h" 1
 612 01d2 3197      		1: sbiw r30,1
 613 01d4 01F4      		brne 1b
 614               	 ;  0 "" 2
 615               	/* #NOAPP */
 616               	.LBE2337:
 617               	.LBE2336:
 618               	.LM87:
 619 01d6 0197      		sbiw r24,1
 620               	.LM88:
 621 01d8 01F4      		brne .L29
 622 01da 80E1      		ldi r24,lo8(10000)
 623 01dc 97E2      		ldi r25,hi8(10000)
 624               	.LVL31:
 625               	.L30:
 626               	.LBE2335:
 627               	.LBE2334:
 628               	.LBB2338:
 629               	.LBB2339:
 630               	.LBB2340:
 631               	.LBB2341:
 632               	.LM89:
 633 01de F801      		movw r30,r16
 634               	.LVL32:
 635               	/* #APP */
 636               	 ;  105 "c:/winavr-20100110/lib/gcc/../../avr/include/util/delay_basic.h" 1
 637 01e0 3197      		1: sbiw r30,1
 638 01e2 01F4      		brne 1b
 639               	 ;  0 "" 2
 640               	/* #NOAPP */
 641               	.LBE2341:
 642               	.LBE2340:
 643               	.LM90:
 644 01e4 0197      		sbiw r24,1
 645               	.LM91:
 646 01e6 01F4      		brne .L30
 647 01e8 80E1      		ldi r24,lo8(10000)
 648 01ea 97E2      		ldi r25,hi8(10000)
 649               	.LVL33:
 650               	.L31:
 651               	.LBE2339:
 652               	.LBE2338:
 653               	.LBB2342:
 654               	.LBB2343:
 655               	.LBB2344:
 656               	.LBB2345:
 657               	.LM92:
 658 01ec F801      		movw r30,r16
 659               	.LVL34:
 660               	/* #APP */
 661               	 ;  105 "c:/winavr-20100110/lib/gcc/../../avr/include/util/delay_basic.h" 1
 662 01ee 3197      		1: sbiw r30,1
 663 01f0 01F4      		brne 1b
 664               	 ;  0 "" 2
 665               	/* #NOAPP */
 666               	.LBE2345:
 667               	.LBE2344:
 668               	.LM93:
 669 01f2 0197      		sbiw r24,1
 670               	.LM94:
 671 01f4 01F4      		brne .L31
 672 01f6 80E1      		ldi r24,lo8(10000)
 673 01f8 97E2      		ldi r25,hi8(10000)
 674               	.LVL35:
 675               	.L32:
 676               	.LBE2343:
 677               	.LBE2342:
 678               	.LBB2346:
 679               	.LBB2347:
 680               	.LBB2348:
 681               	.LBB2349:
 682               	.LM95:
 683 01fa F801      		movw r30,r16
 684               	.LVL36:
 685               	/* #APP */
 686               	 ;  105 "c:/winavr-20100110/lib/gcc/../../avr/include/util/delay_basic.h" 1
 687 01fc 3197      		1: sbiw r30,1
 688 01fe 01F4      		brne 1b
 689               	 ;  0 "" 2
 690               	/* #NOAPP */
 691               	.LBE2349:
 692               	.LBE2348:
 693               	.LM96:
 694 0200 0197      		sbiw r24,1
 695               	.LM97:
 696 0202 01F4      		brne .L32
 697 0204 80E1      		ldi r24,lo8(10000)
 698 0206 97E2      		ldi r25,hi8(10000)
 699               	.LVL37:
 700               	.L33:
 701               	.LBE2347:
 702               	.LBE2346:
 703               	.LBB2350:
 704               	.LBB2351:
 705               	.LBB2352:
 706               	.LBB2353:
 707               	.LM98:
 708 0208 F801      		movw r30,r16
 709               	.LVL38:
 710               	/* #APP */
 711               	 ;  105 "c:/winavr-20100110/lib/gcc/../../avr/include/util/delay_basic.h" 1
 712 020a 3197      		1: sbiw r30,1
 713 020c 01F4      		brne 1b
 714               	 ;  0 "" 2
 715               	/* #NOAPP */
 716               	.LBE2353:
 717               	.LBE2352:
 718               	.LM99:
 719 020e 0197      		sbiw r24,1
 720               	.LM100:
 721 0210 01F4      		brne .L33
 722 0212 80E1      		ldi r24,lo8(10000)
 723 0214 97E2      		ldi r25,hi8(10000)
 724               	.LVL39:
 725               	.L34:
 726               	.LBE2351:
 727               	.LBE2350:
 728               	.LBB2354:
 729               	.LBB2355:
 730               	.LBB2356:
 731               	.LBB2357:
 732               	.LM101:
 733 0216 F801      		movw r30,r16
 734               	.LVL40:
 735               	/* #APP */
 736               	 ;  105 "c:/winavr-20100110/lib/gcc/../../avr/include/util/delay_basic.h" 1
 737 0218 3197      		1: sbiw r30,1
 738 021a 01F4      		brne 1b
 739               	 ;  0 "" 2
 740               	/* #NOAPP */
 741               	.LBE2357:
 742               	.LBE2356:
 743               	.LM102:
 744 021c 0197      		sbiw r24,1
 745               	.LM103:
 746 021e 01F4      		brne .L34
 747 0220 80E1      		ldi r24,lo8(10000)
 748 0222 97E2      		ldi r25,hi8(10000)
 749               	.LVL41:
 750               	.L35:
 751               	.LBE2355:
 752               	.LBE2354:
 753               	.LBB2358:
 754               	.LBB2359:
 755               	.LBB2360:
 756               	.LBB2361:
 757               	.LM104:
 758 0224 F801      		movw r30,r16
 759               	.LVL42:
 760               	/* #APP */
 761               	 ;  105 "c:/winavr-20100110/lib/gcc/../../avr/include/util/delay_basic.h" 1
 762 0226 3197      		1: sbiw r30,1
 763 0228 01F4      		brne 1b
 764               	 ;  0 "" 2
 765               	/* #NOAPP */
 766               	.LBE2361:
 767               	.LBE2360:
 768               	.LM105:
 769 022a 0197      		sbiw r24,1
 770               	.LM106:
 771 022c 01F4      		brne .L35
 772 022e 80E1      		ldi r24,lo8(10000)
 773 0230 97E2      		ldi r25,hi8(10000)
 774               	.LVL43:
 775               	.L36:
 776               	.LBE2359:
 777               	.LBE2358:
 778               	.LBB2362:
 779               	.LBB2363:
 780               	.LBB2364:
 781               	.LBB2365:
 782               	.LM107:
 783 0232 F801      		movw r30,r16
 784               	.LVL44:
 785               	/* #APP */
 786               	 ;  105 "c:/winavr-20100110/lib/gcc/../../avr/include/util/delay_basic.h" 1
 787 0234 3197      		1: sbiw r30,1
 788 0236 01F4      		brne 1b
 789               	 ;  0 "" 2
 790               	/* #NOAPP */
 791               	.LBE2365:
 792               	.LBE2364:
 793               	.LM108:
 794 0238 0197      		sbiw r24,1
 795               	.LM109:
 796 023a 01F4      		brne .L36
 797 023c 80E1      		ldi r24,lo8(10000)
 798 023e 97E2      		ldi r25,hi8(10000)
 799               	.LVL45:
 800               	.L37:
 801               	.LBE2363:
 802               	.LBE2362:
 803               	.LBB2366:
 804               	.LBB2367:
 805               	.LBB2368:
 806               	.LBB2369:
 807               	.LM110:
 808 0240 F801      		movw r30,r16
 809               	.LVL46:
 810               	/* #APP */
 811               	 ;  105 "c:/winavr-20100110/lib/gcc/../../avr/include/util/delay_basic.h" 1
 812 0242 3197      		1: sbiw r30,1
 813 0244 01F4      		brne 1b
 814               	 ;  0 "" 2
 815               	/* #NOAPP */
 816               	.LBE2369:
 817               	.LBE2368:
 818               	.LM111:
 819 0246 0197      		sbiw r24,1
 820               	.LM112:
 821 0248 01F4      		brne .L37
 822 024a 80E1      		ldi r24,lo8(10000)
 823 024c 97E2      		ldi r25,hi8(10000)
 824               	.LVL47:
 825               	.L38:
 826               	.LBE2367:
 827               	.LBE2366:
 828               	.LBB2370:
 829               	.LBB2371:
 830               	.LBB2372:
 831               	.LBB2373:
 832               	.LM113:
 833 024e F801      		movw r30,r16
 834               	.LVL48:
 835               	/* #APP */
 836               	 ;  105 "c:/winavr-20100110/lib/gcc/../../avr/include/util/delay_basic.h" 1
 837 0250 3197      		1: sbiw r30,1
 838 0252 01F4      		brne 1b
 839               	 ;  0 "" 2
 840               	/* #NOAPP */
 841               	.LBE2373:
 842               	.LBE2372:
 843               	.LM114:
 844 0254 0197      		sbiw r24,1
 845               	.LM115:
 846 0256 01F4      		brne .L38
 847 0258 80E1      		ldi r24,lo8(10000)
 848 025a 97E2      		ldi r25,hi8(10000)
 849               	.LVL49:
 850               	.L39:
 851               	.LBE2371:
 852               	.LBE2370:
 853               	.LBB2374:
 854               	.LBB2375:
 855               	.LBB2376:
 856               	.LBB2377:
 857               	.LM116:
 858 025c F801      		movw r30,r16
 859               	.LVL50:
 860               	/* #APP */
 861               	 ;  105 "c:/winavr-20100110/lib/gcc/../../avr/include/util/delay_basic.h" 1
 862 025e 3197      		1: sbiw r30,1
 863 0260 01F4      		brne 1b
 864               	 ;  0 "" 2
 865               	/* #NOAPP */
 866               	.LBE2377:
 867               	.LBE2376:
 868               	.LM117:
 869 0262 0197      		sbiw r24,1
 870               	.LM118:
 871 0264 01F4      		brne .L39
 872 0266 80E1      		ldi r24,lo8(10000)
 873 0268 97E2      		ldi r25,hi8(10000)
 874               	.LVL51:
 875               	.L40:
 876               	.LBE2375:
 877               	.LBE2374:
 878               	.LBB2378:
 879               	.LBB2379:
 880               	.LBB2380:
 881               	.LBB2381:
 882               	.LM119:
 883 026a F801      		movw r30,r16
 884               	.LVL52:
 885               	/* #APP */
 886               	 ;  105 "c:/winavr-20100110/lib/gcc/../../avr/include/util/delay_basic.h" 1
 887 026c 3197      		1: sbiw r30,1
 888 026e 01F4      		brne 1b
 889               	 ;  0 "" 2
 890               	/* #NOAPP */
 891               	.LBE2381:
 892               	.LBE2380:
 893               	.LM120:
 894 0270 0197      		sbiw r24,1
 895               	.LM121:
 896 0272 01F4      		brne .L40
 897 0274 80E1      		ldi r24,lo8(10000)
 898 0276 97E2      		ldi r25,hi8(10000)
 899               	.LVL53:
 900               	.L41:
 901               	.LBE2379:
 902               	.LBE2378:
 903               	.LBB2382:
 904               	.LBB2383:
 905               	.LBB2384:
 906               	.LBB2385:
 907               	.LM122:
 908 0278 F801      		movw r30,r16
 909               	.LVL54:
 910               	/* #APP */
 911               	 ;  105 "c:/winavr-20100110/lib/gcc/../../avr/include/util/delay_basic.h" 1
 912 027a 3197      		1: sbiw r30,1
 913 027c 01F4      		brne 1b
 914               	 ;  0 "" 2
 915               	/* #NOAPP */
 916               	.LBE2385:
 917               	.LBE2384:
 918               	.LM123:
 919 027e 0197      		sbiw r24,1
 920               	.LM124:
 921 0280 01F4      		brne .L41
 922 0282 80E1      		ldi r24,lo8(10000)
 923 0284 97E2      		ldi r25,hi8(10000)
 924               	.LVL55:
 925               	.L42:
 926               	.LBE2383:
 927               	.LBE2382:
 928               	.LBB2386:
 929               	.LBB2387:
 930               	.LBB2388:
 931               	.LBB2389:
 932               	.LM125:
 933 0286 F801      		movw r30,r16
 934               	.LVL56:
 935               	/* #APP */
 936               	 ;  105 "c:/winavr-20100110/lib/gcc/../../avr/include/util/delay_basic.h" 1
 937 0288 3197      		1: sbiw r30,1
 938 028a 01F4      		brne 1b
 939               	 ;  0 "" 2
 940               	/* #NOAPP */
 941               	.LBE2389:
 942               	.LBE2388:
 943               	.LM126:
 944 028c 0197      		sbiw r24,1
 945               	.LM127:
 946 028e 01F4      		brne .L42
 947 0290 80E1      		ldi r24,lo8(10000)
 948 0292 97E2      		ldi r25,hi8(10000)
 949               	.LVL57:
 950               	.L43:
 951               	.LBE2387:
 952               	.LBE2386:
 953               	.LBB2390:
 954               	.LBB2391:
 955               	.LBB2392:
 956               	.LBB2393:
 957               	.LM128:
 958 0294 F801      		movw r30,r16
 959               	.LVL58:
 960               	/* #APP */
 961               	 ;  105 "c:/winavr-20100110/lib/gcc/../../avr/include/util/delay_basic.h" 1
 962 0296 3197      		1: sbiw r30,1
 963 0298 01F4      		brne 1b
 964               	 ;  0 "" 2
 965               	/* #NOAPP */
 966               	.LBE2393:
 967               	.LBE2392:
 968               	.LM129:
 969 029a 0197      		sbiw r24,1
 970               	.LM130:
 971 029c 01F4      		brne .L43
 972 029e 80E1      		ldi r24,lo8(10000)
 973 02a0 97E2      		ldi r25,hi8(10000)
 974               	.LVL59:
 975               	.L44:
 976               	.LBE2391:
 977               	.LBE2390:
 978               	.LBB2394:
 979               	.LBB2395:
 980               	.LBB2396:
 981               	.LBB2397:
 982               	.LM131:
 983 02a2 F801      		movw r30,r16
 984               	.LVL60:
 985               	/* #APP */
 986               	 ;  105 "c:/winavr-20100110/lib/gcc/../../avr/include/util/delay_basic.h" 1
 987 02a4 3197      		1: sbiw r30,1
 988 02a6 01F4      		brne 1b
 989               	 ;  0 "" 2
 990               	/* #NOAPP */
 991               	.LBE2397:
 992               	.LBE2396:
 993               	.LM132:
 994 02a8 0197      		sbiw r24,1
 995               	.LM133:
 996 02aa 01F4      		brne .L44
 997 02ac 80E1      		ldi r24,lo8(10000)
 998 02ae 97E2      		ldi r25,hi8(10000)
 999               	.LVL61:
 1000               	.L45:
 1001               	.LBE2395:
 1002               	.LBE2394:
 1003               	.LBB2398:
 1004               	.LBB2399:
 1005               	.LBB2400:
 1006               	.LBB2401:
 1007               	.LM134:
 1008 02b0 F801      		movw r30,r16
 1009               	.LVL62:
 1010               	/* #APP */
 1011               	 ;  105 "c:/winavr-20100110/lib/gcc/../../avr/include/util/delay_basic.h" 1
 1012 02b2 3197      		1: sbiw r30,1
 1013 02b4 01F4      		brne 1b
 1014               	 ;  0 "" 2
 1015               	/* #NOAPP */
 1016               	.LBE2401:
 1017               	.LBE2400:
 1018               	.LM135:
 1019 02b6 0197      		sbiw r24,1
 1020               	.LM136:
 1021 02b8 01F4      		brne .L45
 1022 02ba 80E1      		ldi r24,lo8(10000)
 1023 02bc 97E2      		ldi r25,hi8(10000)
 1024               	.LVL63:
 1025               	.L46:
 1026               	.LBE2399:
 1027               	.LBE2398:
 1028               	.LBB2402:
 1029               	.LBB2403:
 1030               	.LBB2404:
 1031               	.LBB2405:
 1032               	.LM137:
 1033 02be F801      		movw r30,r16
 1034               	.LVL64:
 1035               	/* #APP */
 1036               	 ;  105 "c:/winavr-20100110/lib/gcc/../../avr/include/util/delay_basic.h" 1
 1037 02c0 3197      		1: sbiw r30,1
 1038 02c2 01F4      		brne 1b
 1039               	 ;  0 "" 2
 1040               	/* #NOAPP */
 1041               	.LBE2405:
 1042               	.LBE2404:
 1043               	.LM138:
 1044 02c4 0197      		sbiw r24,1
 1045               	.LM139:
 1046 02c6 01F4      		brne .L46
 1047 02c8 80E1      		ldi r24,lo8(10000)
 1048 02ca 97E2      		ldi r25,hi8(10000)
 1049               	.LVL65:
 1050               	.L47:
 1051               	.LBE2403:
 1052               	.LBE2402:
 1053               	.LBB2406:
 1054               	.LBB2407:
 1055               	.LBB2408:
 1056               	.LBB2409:
 1057               	.LM140:
 1058 02cc F801      		movw r30,r16
 1059               	.LVL66:
 1060               	/* #APP */
 1061               	 ;  105 "c:/winavr-20100110/lib/gcc/../../avr/include/util/delay_basic.h" 1
 1062 02ce 3197      		1: sbiw r30,1
 1063 02d0 01F4      		brne 1b
 1064               	 ;  0 "" 2
 1065               	/* #NOAPP */
 1066               	.LBE2409:
 1067               	.LBE2408:
 1068               	.LM141:
 1069 02d2 0197      		sbiw r24,1
 1070               	.LM142:
 1071 02d4 01F4      		brne .L47
 1072 02d6 80E1      		ldi r24,lo8(10000)
 1073 02d8 97E2      		ldi r25,hi8(10000)
 1074               	.LVL67:
 1075               	.L48:
 1076               	.LBE2407:
 1077               	.LBE2406:
 1078               	.LBB2410:
 1079               	.LBB2411:
 1080               	.LBB2412:
 1081               	.LBB2413:
 1082               	.LM143:
 1083 02da F801      		movw r30,r16
 1084               	.LVL68:
 1085               	/* #APP */
 1086               	 ;  105 "c:/winavr-20100110/lib/gcc/../../avr/include/util/delay_basic.h" 1
 1087 02dc 3197      		1: sbiw r30,1
 1088 02de 01F4      		brne 1b
 1089               	 ;  0 "" 2
 1090               	/* #NOAPP */
 1091               	.LBE2413:
 1092               	.LBE2412:
 1093               	.LM144:
 1094 02e0 0197      		sbiw r24,1
 1095               	.LM145:
 1096 02e2 01F4      		brne .L48
 1097 02e4 80E1      		ldi r24,lo8(10000)
 1098 02e6 97E2      		ldi r25,hi8(10000)
 1099               	.LVL69:
 1100               	.L49:
 1101               	.LBE2411:
 1102               	.LBE2410:
 1103               	.LBB2414:
 1104               	.LBB2415:
 1105               	.LBB2416:
 1106               	.LBB2417:
 1107               	.LM146:
 1108 02e8 F801      		movw r30,r16
 1109               	.LVL70:
 1110               	/* #APP */
 1111               	 ;  105 "c:/winavr-20100110/lib/gcc/../../avr/include/util/delay_basic.h" 1
 1112 02ea 3197      		1: sbiw r30,1
 1113 02ec 01F4      		brne 1b
 1114               	 ;  0 "" 2
 1115               	/* #NOAPP */
 1116               	.LBE2417:
 1117               	.LBE2416:
 1118               	.LM147:
 1119 02ee 0197      		sbiw r24,1
 1120               	.LM148:
 1121 02f0 01F4      		brne .L49
 1122 02f2 80E1      		ldi r24,lo8(10000)
 1123 02f4 97E2      		ldi r25,hi8(10000)
 1124               	.LVL71:
 1125               	.L50:
 1126               	.LBE2415:
 1127               	.LBE2414:
 1128               	.LBB2418:
 1129               	.LBB2419:
 1130               	.LBB2420:
 1131               	.LBB2421:
 1132               	.LM149:
 1133 02f6 F801      		movw r30,r16
 1134               	.LVL72:
 1135               	/* #APP */
 1136               	 ;  105 "c:/winavr-20100110/lib/gcc/../../avr/include/util/delay_basic.h" 1
 1137 02f8 3197      		1: sbiw r30,1
 1138 02fa 01F4      		brne 1b
 1139               	 ;  0 "" 2
 1140               	/* #NOAPP */
 1141               	.LBE2421:
 1142               	.LBE2420:
 1143               	.LM150:
 1144 02fc 0197      		sbiw r24,1
 1145               	.LM151:
 1146 02fe 01F4      		brne .L50
 1147 0300 80E1      		ldi r24,lo8(10000)
 1148 0302 97E2      		ldi r25,hi8(10000)
 1149               	.LVL73:
 1150               	.L51:
 1151               	.LBE2419:
 1152               	.LBE2418:
 1153               	.LBB2422:
 1154               	.LBB2423:
 1155               	.LBB2424:
 1156               	.LBB2425:
 1157               	.LM152:
 1158 0304 F801      		movw r30,r16
 1159               	.LVL74:
 1160               	/* #APP */
 1161               	 ;  105 "c:/winavr-20100110/lib/gcc/../../avr/include/util/delay_basic.h" 1
 1162 0306 3197      		1: sbiw r30,1
 1163 0308 01F4      		brne 1b
 1164               	 ;  0 "" 2
 1165               	/* #NOAPP */
 1166               	.LBE2425:
 1167               	.LBE2424:
 1168               	.LM153:
 1169 030a 0197      		sbiw r24,1
 1170               	.LM154:
 1171 030c 01F4      		brne .L51
 1172 030e 80E1      		ldi r24,lo8(10000)
 1173 0310 97E2      		ldi r25,hi8(10000)
 1174               	.LVL75:
 1175               	.L52:
 1176               	.LBE2423:
 1177               	.LBE2422:
 1178               	.LBB2426:
 1179               	.LBB2427:
 1180               	.LBB2428:
 1181               	.LBB2429:
 1182               	.LM155:
 1183 0312 F801      		movw r30,r16
 1184               	.LVL76:
 1185               	/* #APP */
 1186               	 ;  105 "c:/winavr-20100110/lib/gcc/../../avr/include/util/delay_basic.h" 1
 1187 0314 3197      		1: sbiw r30,1
 1188 0316 01F4      		brne 1b
 1189               	 ;  0 "" 2
 1190               	/* #NOAPP */
 1191               	.LBE2429:
 1192               	.LBE2428:
 1193               	.LM156:
 1194 0318 0197      		sbiw r24,1
 1195               	.LM157:
 1196 031a 01F4      		brne .L52
 1197 031c 80E1      		ldi r24,lo8(10000)
 1198 031e 97E2      		ldi r25,hi8(10000)
 1199               	.LVL77:
 1200               	.L53:
 1201               	.LBE2427:
 1202               	.LBE2426:
 1203               	.LBB2430:
 1204               	.LBB2431:
 1205               	.LBB2432:
 1206               	.LBB2433:
 1207               	.LM158:
 1208 0320 F801      		movw r30,r16
 1209               	.LVL78:
 1210               	/* #APP */
 1211               	 ;  105 "c:/winavr-20100110/lib/gcc/../../avr/include/util/delay_basic.h" 1
 1212 0322 3197      		1: sbiw r30,1
 1213 0324 01F4      		brne 1b
 1214               	 ;  0 "" 2
 1215               	/* #NOAPP */
 1216               	.LBE2433:
 1217               	.LBE2432:
 1218               	.LM159:
 1219 0326 0197      		sbiw r24,1
 1220               	.LM160:
 1221 0328 01F4      		brne .L53
 1222 032a 80E1      		ldi r24,lo8(10000)
 1223 032c 97E2      		ldi r25,hi8(10000)
 1224               	.LVL79:
 1225               	.L54:
 1226               	.LBE2431:
 1227               	.LBE2430:
 1228               	.LBB2434:
 1229               	.LBB2435:
 1230               	.LBB2436:
 1231               	.LBB2437:
 1232               	.LM161:
 1233 032e F801      		movw r30,r16
 1234               	.LVL80:
 1235               	/* #APP */
 1236               	 ;  105 "c:/winavr-20100110/lib/gcc/../../avr/include/util/delay_basic.h" 1
 1237 0330 3197      		1: sbiw r30,1
 1238 0332 01F4      		brne 1b
 1239               	 ;  0 "" 2
 1240               	/* #NOAPP */
 1241               	.LBE2437:
 1242               	.LBE2436:
 1243               	.LM162:
 1244 0334 0197      		sbiw r24,1
 1245               	.LM163:
 1246 0336 01F4      		brne .L54
 1247 0338 80E1      		ldi r24,lo8(10000)
 1248 033a 97E2      		ldi r25,hi8(10000)
 1249               	.LVL81:
 1250               	.L55:
 1251               	.LBE2435:
 1252               	.LBE2434:
 1253               	.LBB2438:
 1254               	.LBB2439:
 1255               	.LBB2440:
 1256               	.LBB2441:
 1257               	.LM164:
 1258 033c F801      		movw r30,r16
 1259               	.LVL82:
 1260               	/* #APP */
 1261               	 ;  105 "c:/winavr-20100110/lib/gcc/../../avr/include/util/delay_basic.h" 1
 1262 033e 3197      		1: sbiw r30,1
 1263 0340 01F4      		brne 1b
 1264               	 ;  0 "" 2
 1265               	/* #NOAPP */
 1266               	.LBE2441:
 1267               	.LBE2440:
 1268               	.LM165:
 1269 0342 0197      		sbiw r24,1
 1270               	.LM166:
 1271 0344 01F4      		brne .L55
 1272 0346 80E1      		ldi r24,lo8(10000)
 1273 0348 97E2      		ldi r25,hi8(10000)
 1274               	.LVL83:
 1275               	.L56:
 1276               	.LBE2439:
 1277               	.LBE2438:
 1278               	.LBB2442:
 1279               	.LBB2443:
 1280               	.LBB2444:
 1281               	.LBB2445:
 1282               	.LM167:
 1283 034a F801      		movw r30,r16
 1284               	.LVL84:
 1285               	/* #APP */
 1286               	 ;  105 "c:/winavr-20100110/lib/gcc/../../avr/include/util/delay_basic.h" 1
 1287 034c 3197      		1: sbiw r30,1
 1288 034e 01F4      		brne 1b
 1289               	 ;  0 "" 2
 1290               	/* #NOAPP */
 1291               	.LBE2445:
 1292               	.LBE2444:
 1293               	.LM168:
 1294 0350 0197      		sbiw r24,1
 1295               	.LM169:
 1296 0352 01F4      		brne .L56
 1297 0354 80E1      		ldi r24,lo8(10000)
 1298 0356 97E2      		ldi r25,hi8(10000)
 1299               	.LVL85:
 1300               	.L57:
 1301               	.LBE2443:
 1302               	.LBE2442:
 1303               	.LBB2446:
 1304               	.LBB2447:
 1305               	.LBB2448:
 1306               	.LBB2449:
 1307               	.LM170:
 1308 0358 F801      		movw r30,r16
 1309               	.LVL86:
 1310               	/* #APP */
 1311               	 ;  105 "c:/winavr-20100110/lib/gcc/../../avr/include/util/delay_basic.h" 1
 1312 035a 3197      		1: sbiw r30,1
 1313 035c 01F4      		brne 1b
 1314               	 ;  0 "" 2
 1315               	/* #NOAPP */
 1316               	.LBE2449:
 1317               	.LBE2448:
 1318               	.LM171:
 1319 035e 0197      		sbiw r24,1
 1320               	.LM172:
 1321 0360 01F4      		brne .L57
 1322 0362 80E1      		ldi r24,lo8(10000)
 1323 0364 97E2      		ldi r25,hi8(10000)
 1324               	.LVL87:
 1325               	.L58:
 1326               	.LBE2447:
 1327               	.LBE2446:
 1328               	.LBB2450:
 1329               	.LBB2451:
 1330               	.LBB2452:
 1331               	.LBB2453:
 1332               	.LM173:
 1333 0366 F801      		movw r30,r16
 1334               	.LVL88:
 1335               	/* #APP */
 1336               	 ;  105 "c:/winavr-20100110/lib/gcc/../../avr/include/util/delay_basic.h" 1
 1337 0368 3197      		1: sbiw r30,1
 1338 036a 01F4      		brne 1b
 1339               	 ;  0 "" 2
 1340               	/* #NOAPP */
 1341               	.LBE2453:
 1342               	.LBE2452:
 1343               	.LM174:
 1344 036c 0197      		sbiw r24,1
 1345               	.LM175:
 1346 036e 01F4      		brne .L58
 1347 0370 80E1      		ldi r24,lo8(10000)
 1348 0372 97E2      		ldi r25,hi8(10000)
 1349               	.LVL89:
 1350               	.L59:
 1351               	.LBE2451:
 1352               	.LBE2450:
 1353               	.LBB2454:
 1354               	.LBB2455:
 1355               	.LBB2456:
 1356               	.LBB2457:
 1357               	.LM176:
 1358 0374 F801      		movw r30,r16
 1359               	.LVL90:
 1360               	/* #APP */
 1361               	 ;  105 "c:/winavr-20100110/lib/gcc/../../avr/include/util/delay_basic.h" 1
 1362 0376 3197      		1: sbiw r30,1
 1363 0378 01F4      		brne 1b
 1364               	 ;  0 "" 2
 1365               	/* #NOAPP */
 1366               	.LBE2457:
 1367               	.LBE2456:
 1368               	.LM177:
 1369 037a 0197      		sbiw r24,1
 1370               	.LM178:
 1371 037c 01F4      		brne .L59
 1372 037e 80E1      		ldi r24,lo8(10000)
 1373 0380 97E2      		ldi r25,hi8(10000)
 1374               	.LVL91:
 1375               	.L60:
 1376               	.LBE2455:
 1377               	.LBE2454:
 1378               	.LBB2458:
 1379               	.LBB2459:
 1380               	.LBB2460:
 1381               	.LBB2461:
 1382               	.LM179:
 1383 0382 F801      		movw r30,r16
 1384               	.LVL92:
 1385               	/* #APP */
 1386               	 ;  105 "c:/winavr-20100110/lib/gcc/../../avr/include/util/delay_basic.h" 1
 1387 0384 3197      		1: sbiw r30,1
 1388 0386 01F4      		brne 1b
 1389               	 ;  0 "" 2
 1390               	/* #NOAPP */
 1391               	.LBE2461:
 1392               	.LBE2460:
 1393               	.LM180:
 1394 0388 0197      		sbiw r24,1
 1395               	.LM181:
 1396 038a 01F4      		brne .L60
 1397 038c 80E1      		ldi r24,lo8(10000)
 1398 038e 97E2      		ldi r25,hi8(10000)
 1399               	.LVL93:
 1400               	.L61:
 1401               	.LBE2459:
 1402               	.LBE2458:
 1403               	.LBB2462:
 1404               	.LBB2463:
 1405               	.LBB2464:
 1406               	.LBB2465:
 1407               	.LM182:
 1408 0390 F801      		movw r30,r16
 1409               	.LVL94:
 1410               	/* #APP */
 1411               	 ;  105 "c:/winavr-20100110/lib/gcc/../../avr/include/util/delay_basic.h" 1
 1412 0392 3197      		1: sbiw r30,1
 1413 0394 01F4      		brne 1b
 1414               	 ;  0 "" 2
 1415               	/* #NOAPP */
 1416               	.LBE2465:
 1417               	.LBE2464:
 1418               	.LM183:
 1419 0396 0197      		sbiw r24,1
 1420               	.LM184:
 1421 0398 01F4      		brne .L61
 1422 039a 80E1      		ldi r24,lo8(10000)
 1423 039c 97E2      		ldi r25,hi8(10000)
 1424               	.LVL95:
 1425               	.L62:
 1426               	.LBE2463:
 1427               	.LBE2462:
 1428               	.LBB2466:
 1429               	.LBB2467:
 1430               	.LBB2468:
 1431               	.LBB2469:
 1432               	.LM185:
 1433 039e F801      		movw r30,r16
 1434               	.LVL96:
 1435               	/* #APP */
 1436               	 ;  105 "c:/winavr-20100110/lib/gcc/../../avr/include/util/delay_basic.h" 1
 1437 03a0 3197      		1: sbiw r30,1
 1438 03a2 01F4      		brne 1b
 1439               	 ;  0 "" 2
 1440               	/* #NOAPP */
 1441               	.LBE2469:
 1442               	.LBE2468:
 1443               	.LM186:
 1444 03a4 0197      		sbiw r24,1
 1445               	.LM187:
 1446 03a6 01F4      		brne .L62
 1447 03a8 80E1      		ldi r24,lo8(10000)
 1448 03aa 97E2      		ldi r25,hi8(10000)
 1449               	.LVL97:
 1450               	.L63:
 1451               	.LBE2467:
 1452               	.LBE2466:
 1453               	.LBB2470:
 1454               	.LBB2471:
 1455               	.LBB2472:
 1456               	.LBB2473:
 1457               	.LM188:
 1458 03ac F801      		movw r30,r16
 1459               	.LVL98:
 1460               	/* #APP */
 1461               	 ;  105 "c:/winavr-20100110/lib/gcc/../../avr/include/util/delay_basic.h" 1
 1462 03ae 3197      		1: sbiw r30,1
 1463 03b0 01F4      		brne 1b
 1464               	 ;  0 "" 2
 1465               	/* #NOAPP */
 1466               	.LBE2473:
 1467               	.LBE2472:
 1468               	.LM189:
 1469 03b2 0197      		sbiw r24,1
 1470               	.LM190:
 1471 03b4 01F4      		brne .L63
 1472 03b6 80E1      		ldi r24,lo8(10000)
 1473 03b8 97E2      		ldi r25,hi8(10000)
 1474               	.LVL99:
 1475               	.L64:
 1476               	.LBE2471:
 1477               	.LBE2470:
 1478               	.LBB2474:
 1479               	.LBB2475:
 1480               	.LBB2476:
 1481               	.LBB2477:
 1482               	.LM191:
 1483 03ba F801      		movw r30,r16
 1484               	.LVL100:
 1485               	/* #APP */
 1486               	 ;  105 "c:/winavr-20100110/lib/gcc/../../avr/include/util/delay_basic.h" 1
 1487 03bc 3197      		1: sbiw r30,1
 1488 03be 01F4      		brne 1b
 1489               	 ;  0 "" 2
 1490               	/* #NOAPP */
 1491               	.LBE2477:
 1492               	.LBE2476:
 1493               	.LM192:
 1494 03c0 0197      		sbiw r24,1
 1495               	.LM193:
 1496 03c2 01F4      		brne .L64
 1497 03c4 80E1      		ldi r24,lo8(10000)
 1498 03c6 97E2      		ldi r25,hi8(10000)
 1499               	.LVL101:
 1500               	.L65:
 1501               	.LBE2475:
 1502               	.LBE2474:
 1503               	.LBB2478:
 1504               	.LBB2479:
 1505               	.LBB2480:
 1506               	.LBB2481:
 1507               	.LM194:
 1508 03c8 F801      		movw r30,r16
 1509               	.LVL102:
 1510               	/* #APP */
 1511               	 ;  105 "c:/winavr-20100110/lib/gcc/../../avr/include/util/delay_basic.h" 1
 1512 03ca 3197      		1: sbiw r30,1
 1513 03cc 01F4      		brne 1b
 1514               	 ;  0 "" 2
 1515               	/* #NOAPP */
 1516               	.LBE2481:
 1517               	.LBE2480:
 1518               	.LM195:
 1519 03ce 0197      		sbiw r24,1
 1520               	.LM196:
 1521 03d0 01F4      		brne .L65
 1522 03d2 80E1      		ldi r24,lo8(10000)
 1523 03d4 97E2      		ldi r25,hi8(10000)
 1524               	.LVL103:
 1525               	.L66:
 1526               	.LBE2479:
 1527               	.LBE2478:
 1528               	.LBB2482:
 1529               	.LBB2483:
 1530               	.LBB2484:
 1531               	.LBB2485:
 1532               	.LM197:
 1533 03d6 F801      		movw r30,r16
 1534               	.LVL104:
 1535               	/* #APP */
 1536               	 ;  105 "c:/winavr-20100110/lib/gcc/../../avr/include/util/delay_basic.h" 1
 1537 03d8 3197      		1: sbiw r30,1
 1538 03da 01F4      		brne 1b
 1539               	 ;  0 "" 2
 1540               	/* #NOAPP */
 1541               	.LBE2485:
 1542               	.LBE2484:
 1543               	.LM198:
 1544 03dc 0197      		sbiw r24,1
 1545               	.LM199:
 1546 03de 01F4      		brne .L66
 1547 03e0 80E1      		ldi r24,lo8(10000)
 1548 03e2 97E2      		ldi r25,hi8(10000)
 1549               	.LVL105:
 1550               	.L67:
 1551               	.LBE2483:
 1552               	.LBE2482:
 1553               	.LBB2486:
 1554               	.LBB2487:
 1555               	.LBB2488:
 1556               	.LBB2489:
 1557               	.LM200:
 1558 03e4 F801      		movw r30,r16
 1559               	.LVL106:
 1560               	/* #APP */
 1561               	 ;  105 "c:/winavr-20100110/lib/gcc/../../avr/include/util/delay_basic.h" 1
 1562 03e6 3197      		1: sbiw r30,1
 1563 03e8 01F4      		brne 1b
 1564               	 ;  0 "" 2
 1565               	/* #NOAPP */
 1566               	.LBE2489:
 1567               	.LBE2488:
 1568               	.LM201:
 1569 03ea 0197      		sbiw r24,1
 1570               	.LM202:
 1571 03ec 01F4      		brne .L67
 1572 03ee 80E1      		ldi r24,lo8(10000)
 1573 03f0 97E2      		ldi r25,hi8(10000)
 1574               	.LVL107:
 1575               	.L68:
 1576               	.LBE2487:
 1577               	.LBE2486:
 1578               	.LBB2490:
 1579               	.LBB2491:
 1580               	.LBB2492:
 1581               	.LBB2493:
 1582               	.LM203:
 1583 03f2 F801      		movw r30,r16
 1584               	.LVL108:
 1585               	/* #APP */
 1586               	 ;  105 "c:/winavr-20100110/lib/gcc/../../avr/include/util/delay_basic.h" 1
 1587 03f4 3197      		1: sbiw r30,1
 1588 03f6 01F4      		brne 1b
 1589               	 ;  0 "" 2
 1590               	/* #NOAPP */
 1591               	.LBE2493:
 1592               	.LBE2492:
 1593               	.LM204:
 1594 03f8 0197      		sbiw r24,1
 1595               	.LM205:
 1596 03fa 01F4      		brne .L68
 1597 03fc 80E1      		ldi r24,lo8(10000)
 1598 03fe 97E2      		ldi r25,hi8(10000)
 1599               	.LVL109:
 1600               	.L69:
 1601               	.LBE2491:
 1602               	.LBE2490:
 1603               	.LBB2494:
 1604               	.LBB2495:
 1605               	.LBB2496:
 1606               	.LBB2497:
 1607               	.LM206:
 1608 0400 F801      		movw r30,r16
 1609               	.LVL110:
 1610               	/* #APP */
 1611               	 ;  105 "c:/winavr-20100110/lib/gcc/../../avr/include/util/delay_basic.h" 1
 1612 0402 3197      		1: sbiw r30,1
 1613 0404 01F4      		brne 1b
 1614               	 ;  0 "" 2
 1615               	/* #NOAPP */
 1616               	.LBE2497:
 1617               	.LBE2496:
 1618               	.LM207:
 1619 0406 0197      		sbiw r24,1
 1620               	.LM208:
 1621 0408 01F4      		brne .L69
 1622 040a 80E1      		ldi r24,lo8(10000)
 1623 040c 97E2      		ldi r25,hi8(10000)
 1624               	.LVL111:
 1625               	.L70:
 1626               	.LBE2495:
 1627               	.LBE2494:
 1628               	.LBB2498:
 1629               	.LBB2499:
 1630               	.LBB2500:
 1631               	.LBB2501:
 1632               	.LM209:
 1633 040e F801      		movw r30,r16
 1634               	.LVL112:
 1635               	/* #APP */
 1636               	 ;  105 "c:/winavr-20100110/lib/gcc/../../avr/include/util/delay_basic.h" 1
 1637 0410 3197      		1: sbiw r30,1
 1638 0412 01F4      		brne 1b
 1639               	 ;  0 "" 2
 1640               	/* #NOAPP */
 1641               	.LBE2501:
 1642               	.LBE2500:
 1643               	.LM210:
 1644 0414 0197      		sbiw r24,1
 1645               	.LM211:
 1646 0416 01F4      		brne .L70
 1647 0418 80E1      		ldi r24,lo8(10000)
 1648 041a 97E2      		ldi r25,hi8(10000)
 1649               	.LVL113:
 1650               	.L71:
 1651               	.LBE2499:
 1652               	.LBE2498:
 1653               	.LBB2502:
 1654               	.LBB2503:
 1655               	.LBB2504:
 1656               	.LBB2505:
 1657               	.LM212:
 1658 041c F801      		movw r30,r16
 1659               	.LVL114:
 1660               	/* #APP */
 1661               	 ;  105 "c:/winavr-20100110/lib/gcc/../../avr/include/util/delay_basic.h" 1
 1662 041e 3197      		1: sbiw r30,1
 1663 0420 01F4      		brne 1b
 1664               	 ;  0 "" 2
 1665               	/* #NOAPP */
 1666               	.LBE2505:
 1667               	.LBE2504:
 1668               	.LM213:
 1669 0422 0197      		sbiw r24,1
 1670               	.LM214:
 1671 0424 01F4      		brne .L71
 1672 0426 80E1      		ldi r24,lo8(10000)
 1673 0428 97E2      		ldi r25,hi8(10000)
 1674               	.LVL115:
 1675               	.L72:
 1676               	.LBE2503:
 1677               	.LBE2502:
 1678               	.LBB2506:
 1679               	.LBB2507:
 1680               	.LBB2508:
 1681               	.LBB2509:
 1682               	.LM215:
 1683 042a F801      		movw r30,r16
 1684               	.LVL116:
 1685               	/* #APP */
 1686               	 ;  105 "c:/winavr-20100110/lib/gcc/../../avr/include/util/delay_basic.h" 1
 1687 042c 3197      		1: sbiw r30,1
 1688 042e 01F4      		brne 1b
 1689               	 ;  0 "" 2
 1690               	/* #NOAPP */
 1691               	.LBE2509:
 1692               	.LBE2508:
 1693               	.LM216:
 1694 0430 0197      		sbiw r24,1
 1695               	.LM217:
 1696 0432 01F4      		brne .L72
 1697 0434 80E1      		ldi r24,lo8(10000)
 1698 0436 97E2      		ldi r25,hi8(10000)
 1699               	.LVL117:
 1700               	.L73:
 1701               	.LBE2507:
 1702               	.LBE2506:
 1703               	.LBB2510:
 1704               	.LBB2511:
 1705               	.LBB2512:
 1706               	.LBB2513:
 1707               	.LM218:
 1708 0438 F801      		movw r30,r16
 1709               	.LVL118:
 1710               	/* #APP */
 1711               	 ;  105 "c:/winavr-20100110/lib/gcc/../../avr/include/util/delay_basic.h" 1
 1712 043a 3197      		1: sbiw r30,1
 1713 043c 01F4      		brne 1b
 1714               	 ;  0 "" 2
 1715               	/* #NOAPP */
 1716               	.LBE2513:
 1717               	.LBE2512:
 1718               	.LM219:
 1719 043e 0197      		sbiw r24,1
 1720               	.LM220:
 1721 0440 01F4      		brne .L73
 1722               	.L23:
 1723               	.LBE2511:
 1724               	.LBE2510:
 1725               	.LM221:
 1726 0442 C701      		movw r24,r14
 1727 0444 B601      		movw r22,r12
 1728 0446 20E0      		ldi r18,lo8(0x41080000)
 1729 0448 30E0      		ldi r19,hi8(0x41080000)
 1730 044a 48E0      		ldi r20,hlo8(0x41080000)
 1731 044c 51E4      		ldi r21,hhi8(0x41080000)
 1732 044e 0E94 0000 		call __gesf2
 1733               	.LVL119:
 1734 0452 8823      		tst r24
 1735 0454 04F4      		brge .+2
 1736 0456 00C0      		rjmp .L74
 1737 0458 C701      		movw r24,r14
 1738 045a B601      		movw r22,r12
 1739 045c 20E0      		ldi r18,lo8(0x41100000)
 1740 045e 30E0      		ldi r19,hi8(0x41100000)
 1741 0460 40E1      		ldi r20,hlo8(0x41100000)
 1742 0462 51E4      		ldi r21,hhi8(0x41100000)
 1743 0464 0E94 0000 		call __ltsf2
 1744 0468 8823      		tst r24
 1745 046a 04F0      		brlt .+2
 1746 046c 00C0      		rjmp .L74
 1747               	.LM222:
 1748 046e 58BA      		out 56-32,r5
 1749 0470 80E1      		ldi r24,lo8(10000)
 1750 0472 97E2      		ldi r25,hi8(10000)
 1751               	.LVL120:
 1752               	.L77:
 1753               	.LBB2514:
 1754               	.LBB2515:
 1755               	.LBB2516:
 1756               	.LBB2517:
 1757               	.LM223:
 1758 0474 F801      		movw r30,r16
 1759               	.LVL121:
 1760               	/* #APP */
 1761               	 ;  105 "c:/winavr-20100110/lib/gcc/../../avr/include/util/delay_basic.h" 1
 1762 0476 3197      		1: sbiw r30,1
 1763 0478 01F4      		brne 1b
 1764               	 ;  0 "" 2
 1765               	/* #NOAPP */
 1766               	.LBE2517:
 1767               	.LBE2516:
 1768               	.LM224:
 1769 047a 0197      		sbiw r24,1
 1770               	.LM225:
 1771 047c 01F4      		brne .L77
 1772 047e 80E1      		ldi r24,lo8(10000)
 1773 0480 97E2      		ldi r25,hi8(10000)
 1774               	.LVL122:
 1775               	.L78:
 1776               	.LBE2515:
 1777               	.LBE2514:
 1778               	.LBB2518:
 1779               	.LBB2519:
 1780               	.LBB2520:
 1781               	.LBB2521:
 1782               	.LM226:
 1783 0482 F801      		movw r30,r16
 1784               	.LVL123:
 1785               	/* #APP */
 1786               	 ;  105 "c:/winavr-20100110/lib/gcc/../../avr/include/util/delay_basic.h" 1
 1787 0484 3197      		1: sbiw r30,1
 1788 0486 01F4      		brne 1b
 1789               	 ;  0 "" 2
 1790               	/* #NOAPP */
 1791               	.LBE2521:
 1792               	.LBE2520:
 1793               	.LM227:
 1794 0488 0197      		sbiw r24,1
 1795               	.LM228:
 1796 048a 01F4      		brne .L78
 1797 048c 80E1      		ldi r24,lo8(10000)
 1798 048e 97E2      		ldi r25,hi8(10000)
 1799               	.LVL124:
 1800               	.L79:
 1801               	.LBE2519:
 1802               	.LBE2518:
 1803               	.LBB2522:
 1804               	.LBB2523:
 1805               	.LBB2524:
 1806               	.LBB2525:
 1807               	.LM229:
 1808 0490 F801      		movw r30,r16
 1809               	.LVL125:
 1810               	/* #APP */
 1811               	 ;  105 "c:/winavr-20100110/lib/gcc/../../avr/include/util/delay_basic.h" 1
 1812 0492 3197      		1: sbiw r30,1
 1813 0494 01F4      		brne 1b
 1814               	 ;  0 "" 2
 1815               	/* #NOAPP */
 1816               	.LBE2525:
 1817               	.LBE2524:
 1818               	.LM230:
 1819 0496 0197      		sbiw r24,1
 1820               	.LM231:
 1821 0498 01F4      		brne .L79
 1822 049a 80E1      		ldi r24,lo8(10000)
 1823 049c 97E2      		ldi r25,hi8(10000)
 1824               	.LVL126:
 1825               	.L80:
 1826               	.LBE2523:
 1827               	.LBE2522:
 1828               	.LBB2526:
 1829               	.LBB2527:
 1830               	.LBB2528:
 1831               	.LBB2529:
 1832               	.LM232:
 1833 049e F801      		movw r30,r16
 1834               	.LVL127:
 1835               	/* #APP */
 1836               	 ;  105 "c:/winavr-20100110/lib/gcc/../../avr/include/util/delay_basic.h" 1
 1837 04a0 3197      		1: sbiw r30,1
 1838 04a2 01F4      		brne 1b
 1839               	 ;  0 "" 2
 1840               	/* #NOAPP */
 1841               	.LBE2529:
 1842               	.LBE2528:
 1843               	.LM233:
 1844 04a4 0197      		sbiw r24,1
 1845               	.LM234:
 1846 04a6 01F4      		brne .L80
 1847 04a8 80E1      		ldi r24,lo8(10000)
 1848 04aa 97E2      		ldi r25,hi8(10000)
 1849               	.LVL128:
 1850               	.L81:
 1851               	.LBE2527:
 1852               	.LBE2526:
 1853               	.LBB2530:
 1854               	.LBB2531:
 1855               	.LBB2532:
 1856               	.LBB2533:
 1857               	.LM235:
 1858 04ac F801      		movw r30,r16
 1859               	.LVL129:
 1860               	/* #APP */
 1861               	 ;  105 "c:/winavr-20100110/lib/gcc/../../avr/include/util/delay_basic.h" 1
 1862 04ae 3197      		1: sbiw r30,1
 1863 04b0 01F4      		brne 1b
 1864               	 ;  0 "" 2
 1865               	/* #NOAPP */
 1866               	.LBE2533:
 1867               	.LBE2532:
 1868               	.LM236:
 1869 04b2 0197      		sbiw r24,1
 1870               	.LM237:
 1871 04b4 01F4      		brne .L81
 1872 04b6 80E1      		ldi r24,lo8(10000)
 1873 04b8 97E2      		ldi r25,hi8(10000)
 1874               	.LVL130:
 1875               	.L82:
 1876               	.LBE2531:
 1877               	.LBE2530:
 1878               	.LBB2534:
 1879               	.LBB2535:
 1880               	.LBB2536:
 1881               	.LBB2537:
 1882               	.LM238:
 1883 04ba F801      		movw r30,r16
 1884               	.LVL131:
 1885               	/* #APP */
 1886               	 ;  105 "c:/winavr-20100110/lib/gcc/../../avr/include/util/delay_basic.h" 1
 1887 04bc 3197      		1: sbiw r30,1
 1888 04be 01F4      		brne 1b
 1889               	 ;  0 "" 2
 1890               	/* #NOAPP */
 1891               	.LBE2537:
 1892               	.LBE2536:
 1893               	.LM239:
 1894 04c0 0197      		sbiw r24,1
 1895               	.LM240:
 1896 04c2 01F4      		brne .L82
 1897 04c4 80E1      		ldi r24,lo8(10000)
 1898 04c6 97E2      		ldi r25,hi8(10000)
 1899               	.LVL132:
 1900               	.L83:
 1901               	.LBE2535:
 1902               	.LBE2534:
 1903               	.LBB2538:
 1904               	.LBB2539:
 1905               	.LBB2540:
 1906               	.LBB2541:
 1907               	.LM241:
 1908 04c8 F801      		movw r30,r16
 1909               	.LVL133:
 1910               	/* #APP */
 1911               	 ;  105 "c:/winavr-20100110/lib/gcc/../../avr/include/util/delay_basic.h" 1
 1912 04ca 3197      		1: sbiw r30,1
 1913 04cc 01F4      		brne 1b
 1914               	 ;  0 "" 2
 1915               	/* #NOAPP */
 1916               	.LBE2541:
 1917               	.LBE2540:
 1918               	.LM242:
 1919 04ce 0197      		sbiw r24,1
 1920               	.LM243:
 1921 04d0 01F4      		brne .L83
 1922 04d2 80E1      		ldi r24,lo8(10000)
 1923 04d4 97E2      		ldi r25,hi8(10000)
 1924               	.LVL134:
 1925               	.L84:
 1926               	.LBE2539:
 1927               	.LBE2538:
 1928               	.LBB2542:
 1929               	.LBB2543:
 1930               	.LBB2544:
 1931               	.LBB2545:
 1932               	.LM244:
 1933 04d6 F801      		movw r30,r16
 1934               	.LVL135:
 1935               	/* #APP */
 1936               	 ;  105 "c:/winavr-20100110/lib/gcc/../../avr/include/util/delay_basic.h" 1
 1937 04d8 3197      		1: sbiw r30,1
 1938 04da 01F4      		brne 1b
 1939               	 ;  0 "" 2
 1940               	/* #NOAPP */
 1941               	.LBE2545:
 1942               	.LBE2544:
 1943               	.LM245:
 1944 04dc 0197      		sbiw r24,1
 1945               	.LM246:
 1946 04de 01F4      		brne .L84
 1947 04e0 80E1      		ldi r24,lo8(10000)
 1948 04e2 97E2      		ldi r25,hi8(10000)
 1949               	.LVL136:
 1950               	.L85:
 1951               	.LBE2543:
 1952               	.LBE2542:
 1953               	.LBB2546:
 1954               	.LBB2547:
 1955               	.LBB2548:
 1956               	.LBB2549:
 1957               	.LM247:
 1958 04e4 F801      		movw r30,r16
 1959               	.LVL137:
 1960               	/* #APP */
 1961               	 ;  105 "c:/winavr-20100110/lib/gcc/../../avr/include/util/delay_basic.h" 1
 1962 04e6 3197      		1: sbiw r30,1
 1963 04e8 01F4      		brne 1b
 1964               	 ;  0 "" 2
 1965               	/* #NOAPP */
 1966               	.LBE2549:
 1967               	.LBE2548:
 1968               	.LM248:
 1969 04ea 0197      		sbiw r24,1
 1970               	.LM249:
 1971 04ec 01F4      		brne .L85
 1972 04ee 80E1      		ldi r24,lo8(10000)
 1973 04f0 97E2      		ldi r25,hi8(10000)
 1974               	.LVL138:
 1975               	.L86:
 1976               	.LBE2547:
 1977               	.LBE2546:
 1978               	.LBB2550:
 1979               	.LBB2551:
 1980               	.LBB2552:
 1981               	.LBB2553:
 1982               	.LM250:
 1983 04f2 F801      		movw r30,r16
 1984               	.LVL139:
 1985               	/* #APP */
 1986               	 ;  105 "c:/winavr-20100110/lib/gcc/../../avr/include/util/delay_basic.h" 1
 1987 04f4 3197      		1: sbiw r30,1
 1988 04f6 01F4      		brne 1b
 1989               	 ;  0 "" 2
 1990               	/* #NOAPP */
 1991               	.LBE2553:
 1992               	.LBE2552:
 1993               	.LM251:
 1994 04f8 0197      		sbiw r24,1
 1995               	.LM252:
 1996 04fa 01F4      		brne .L86
 1997 04fc 80E1      		ldi r24,lo8(10000)
 1998 04fe 97E2      		ldi r25,hi8(10000)
 1999               	.LVL140:
 2000               	.L87:
 2001               	.LBE2551:
 2002               	.LBE2550:
 2003               	.LBB2554:
 2004               	.LBB2555:
 2005               	.LBB2556:
 2006               	.LBB2557:
 2007               	.LM253:
 2008 0500 F801      		movw r30,r16
 2009               	.LVL141:
 2010               	/* #APP */
 2011               	 ;  105 "c:/winavr-20100110/lib/gcc/../../avr/include/util/delay_basic.h" 1
 2012 0502 3197      		1: sbiw r30,1
 2013 0504 01F4      		brne 1b
 2014               	 ;  0 "" 2
 2015               	/* #NOAPP */
 2016               	.LBE2557:
 2017               	.LBE2556:
 2018               	.LM254:
 2019 0506 0197      		sbiw r24,1
 2020               	.LM255:
 2021 0508 01F4      		brne .L87
 2022 050a 80E1      		ldi r24,lo8(10000)
 2023 050c 97E2      		ldi r25,hi8(10000)
 2024               	.LVL142:
 2025               	.L88:
 2026               	.LBE2555:
 2027               	.LBE2554:
 2028               	.LBB2558:
 2029               	.LBB2559:
 2030               	.LBB2560:
 2031               	.LBB2561:
 2032               	.LM256:
 2033 050e F801      		movw r30,r16
 2034               	.LVL143:
 2035               	/* #APP */
 2036               	 ;  105 "c:/winavr-20100110/lib/gcc/../../avr/include/util/delay_basic.h" 1
 2037 0510 3197      		1: sbiw r30,1
 2038 0512 01F4      		brne 1b
 2039               	 ;  0 "" 2
 2040               	/* #NOAPP */
 2041               	.LBE2561:
 2042               	.LBE2560:
 2043               	.LM257:
 2044 0514 0197      		sbiw r24,1
 2045               	.LM258:
 2046 0516 01F4      		brne .L88
 2047 0518 80E1      		ldi r24,lo8(10000)
 2048 051a 97E2      		ldi r25,hi8(10000)
 2049               	.LVL144:
 2050               	.L89:
 2051               	.LBE2559:
 2052               	.LBE2558:
 2053               	.LBB2562:
 2054               	.LBB2563:
 2055               	.LBB2564:
 2056               	.LBB2565:
 2057               	.LM259:
 2058 051c F801      		movw r30,r16
 2059               	.LVL145:
 2060               	/* #APP */
 2061               	 ;  105 "c:/winavr-20100110/lib/gcc/../../avr/include/util/delay_basic.h" 1
 2062 051e 3197      		1: sbiw r30,1
 2063 0520 01F4      		brne 1b
 2064               	 ;  0 "" 2
 2065               	/* #NOAPP */
 2066               	.LBE2565:
 2067               	.LBE2564:
 2068               	.LM260:
 2069 0522 0197      		sbiw r24,1
 2070               	.LM261:
 2071 0524 01F4      		brne .L89
 2072 0526 80E1      		ldi r24,lo8(10000)
 2073 0528 97E2      		ldi r25,hi8(10000)
 2074               	.LVL146:
 2075               	.L90:
 2076               	.LBE2563:
 2077               	.LBE2562:
 2078               	.LBB2566:
 2079               	.LBB2567:
 2080               	.LBB2568:
 2081               	.LBB2569:
 2082               	.LM262:
 2083 052a F801      		movw r30,r16
 2084               	.LVL147:
 2085               	/* #APP */
 2086               	 ;  105 "c:/winavr-20100110/lib/gcc/../../avr/include/util/delay_basic.h" 1
 2087 052c 3197      		1: sbiw r30,1
 2088 052e 01F4      		brne 1b
 2089               	 ;  0 "" 2
 2090               	/* #NOAPP */
 2091               	.LBE2569:
 2092               	.LBE2568:
 2093               	.LM263:
 2094 0530 0197      		sbiw r24,1
 2095               	.LM264:
 2096 0532 01F4      		brne .L90
 2097 0534 80E1      		ldi r24,lo8(10000)
 2098 0536 97E2      		ldi r25,hi8(10000)
 2099               	.LVL148:
 2100               	.L91:
 2101               	.LBE2567:
 2102               	.LBE2566:
 2103               	.LBB2570:
 2104               	.LBB2571:
 2105               	.LBB2572:
 2106               	.LBB2573:
 2107               	.LM265:
 2108 0538 F801      		movw r30,r16
 2109               	.LVL149:
 2110               	/* #APP */
 2111               	 ;  105 "c:/winavr-20100110/lib/gcc/../../avr/include/util/delay_basic.h" 1
 2112 053a 3197      		1: sbiw r30,1
 2113 053c 01F4      		brne 1b
 2114               	 ;  0 "" 2
 2115               	/* #NOAPP */
 2116               	.LBE2573:
 2117               	.LBE2572:
 2118               	.LM266:
 2119 053e 0197      		sbiw r24,1
 2120               	.LM267:
 2121 0540 01F4      		brne .L91
 2122 0542 80E1      		ldi r24,lo8(10000)
 2123 0544 97E2      		ldi r25,hi8(10000)
 2124               	.LVL150:
 2125               	.L92:
 2126               	.LBE2571:
 2127               	.LBE2570:
 2128               	.LBB2574:
 2129               	.LBB2575:
 2130               	.LBB2576:
 2131               	.LBB2577:
 2132               	.LM268:
 2133 0546 F801      		movw r30,r16
 2134               	.LVL151:
 2135               	/* #APP */
 2136               	 ;  105 "c:/winavr-20100110/lib/gcc/../../avr/include/util/delay_basic.h" 1
 2137 0548 3197      		1: sbiw r30,1
 2138 054a 01F4      		brne 1b
 2139               	 ;  0 "" 2
 2140               	/* #NOAPP */
 2141               	.LBE2577:
 2142               	.LBE2576:
 2143               	.LM269:
 2144 054c 0197      		sbiw r24,1
 2145               	.LM270:
 2146 054e 01F4      		brne .L92
 2147 0550 80E1      		ldi r24,lo8(10000)
 2148 0552 97E2      		ldi r25,hi8(10000)
 2149               	.LVL152:
 2150               	.L93:
 2151               	.LBE2575:
 2152               	.LBE2574:
 2153               	.LBB2578:
 2154               	.LBB2579:
 2155               	.LBB2580:
 2156               	.LBB2581:
 2157               	.LM271:
 2158 0554 F801      		movw r30,r16
 2159               	.LVL153:
 2160               	/* #APP */
 2161               	 ;  105 "c:/winavr-20100110/lib/gcc/../../avr/include/util/delay_basic.h" 1
 2162 0556 3197      		1: sbiw r30,1
 2163 0558 01F4      		brne 1b
 2164               	 ;  0 "" 2
 2165               	/* #NOAPP */
 2166               	.LBE2581:
 2167               	.LBE2580:
 2168               	.LM272:
 2169 055a 0197      		sbiw r24,1
 2170               	.LM273:
 2171 055c 01F4      		brne .L93
 2172 055e 80E1      		ldi r24,lo8(10000)
 2173 0560 97E2      		ldi r25,hi8(10000)
 2174               	.LVL154:
 2175               	.L94:
 2176               	.LBE2579:
 2177               	.LBE2578:
 2178               	.LBB2582:
 2179               	.LBB2583:
 2180               	.LBB2584:
 2181               	.LBB2585:
 2182               	.LM274:
 2183 0562 F801      		movw r30,r16
 2184               	.LVL155:
 2185               	/* #APP */
 2186               	 ;  105 "c:/winavr-20100110/lib/gcc/../../avr/include/util/delay_basic.h" 1
 2187 0564 3197      		1: sbiw r30,1
 2188 0566 01F4      		brne 1b
 2189               	 ;  0 "" 2
 2190               	/* #NOAPP */
 2191               	.LBE2585:
 2192               	.LBE2584:
 2193               	.LM275:
 2194 0568 0197      		sbiw r24,1
 2195               	.LM276:
 2196 056a 01F4      		brne .L94
 2197 056c 80E1      		ldi r24,lo8(10000)
 2198 056e 97E2      		ldi r25,hi8(10000)
 2199               	.LVL156:
 2200               	.L95:
 2201               	.LBE2583:
 2202               	.LBE2582:
 2203               	.LBB2586:
 2204               	.LBB2587:
 2205               	.LBB2588:
 2206               	.LBB2589:
 2207               	.LM277:
 2208 0570 F801      		movw r30,r16
 2209               	.LVL157:
 2210               	/* #APP */
 2211               	 ;  105 "c:/winavr-20100110/lib/gcc/../../avr/include/util/delay_basic.h" 1
 2212 0572 3197      		1: sbiw r30,1
 2213 0574 01F4      		brne 1b
 2214               	 ;  0 "" 2
 2215               	/* #NOAPP */
 2216               	.LBE2589:
 2217               	.LBE2588:
 2218               	.LM278:
 2219 0576 0197      		sbiw r24,1
 2220               	.LM279:
 2221 0578 01F4      		brne .L95
 2222 057a 80E1      		ldi r24,lo8(10000)
 2223 057c 97E2      		ldi r25,hi8(10000)
 2224               	.LVL158:
 2225               	.L96:
 2226               	.LBE2587:
 2227               	.LBE2586:
 2228               	.LBB2590:
 2229               	.LBB2591:
 2230               	.LBB2592:
 2231               	.LBB2593:
 2232               	.LM280:
 2233 057e F801      		movw r30,r16
 2234               	.LVL159:
 2235               	/* #APP */
 2236               	 ;  105 "c:/winavr-20100110/lib/gcc/../../avr/include/util/delay_basic.h" 1
 2237 0580 3197      		1: sbiw r30,1
 2238 0582 01F4      		brne 1b
 2239               	 ;  0 "" 2
 2240               	/* #NOAPP */
 2241               	.LBE2593:
 2242               	.LBE2592:
 2243               	.LM281:
 2244 0584 0197      		sbiw r24,1
 2245               	.LM282:
 2246 0586 01F4      		brne .L96
 2247 0588 80E1      		ldi r24,lo8(10000)
 2248 058a 97E2      		ldi r25,hi8(10000)
 2249               	.LVL160:
 2250               	.L97:
 2251               	.LBE2591:
 2252               	.LBE2590:
 2253               	.LBB2594:
 2254               	.LBB2595:
 2255               	.LBB2596:
 2256               	.LBB2597:
 2257               	.LM283:
 2258 058c F801      		movw r30,r16
 2259               	.LVL161:
 2260               	/* #APP */
 2261               	 ;  105 "c:/winavr-20100110/lib/gcc/../../avr/include/util/delay_basic.h" 1
 2262 058e 3197      		1: sbiw r30,1
 2263 0590 01F4      		brne 1b
 2264               	 ;  0 "" 2
 2265               	/* #NOAPP */
 2266               	.LBE2597:
 2267               	.LBE2596:
 2268               	.LM284:
 2269 0592 0197      		sbiw r24,1
 2270               	.LM285:
 2271 0594 01F4      		brne .L97
 2272 0596 80E1      		ldi r24,lo8(10000)
 2273 0598 97E2      		ldi r25,hi8(10000)
 2274               	.LVL162:
 2275               	.L98:
 2276               	.LBE2595:
 2277               	.LBE2594:
 2278               	.LBB2598:
 2279               	.LBB2599:
 2280               	.LBB2600:
 2281               	.LBB2601:
 2282               	.LM286:
 2283 059a F801      		movw r30,r16
 2284               	.LVL163:
 2285               	/* #APP */
 2286               	 ;  105 "c:/winavr-20100110/lib/gcc/../../avr/include/util/delay_basic.h" 1
 2287 059c 3197      		1: sbiw r30,1
 2288 059e 01F4      		brne 1b
 2289               	 ;  0 "" 2
 2290               	/* #NOAPP */
 2291               	.LBE2601:
 2292               	.LBE2600:
 2293               	.LM287:
 2294 05a0 0197      		sbiw r24,1
 2295               	.LM288:
 2296 05a2 01F4      		brne .L98
 2297 05a4 80E1      		ldi r24,lo8(10000)
 2298 05a6 97E2      		ldi r25,hi8(10000)
 2299               	.LVL164:
 2300               	.L99:
 2301               	.LBE2599:
 2302               	.LBE2598:
 2303               	.LBB2602:
 2304               	.LBB2603:
 2305               	.LBB2604:
 2306               	.LBB2605:
 2307               	.LM289:
 2308 05a8 F801      		movw r30,r16
 2309               	.LVL165:
 2310               	/* #APP */
 2311               	 ;  105 "c:/winavr-20100110/lib/gcc/../../avr/include/util/delay_basic.h" 1
 2312 05aa 3197      		1: sbiw r30,1
 2313 05ac 01F4      		brne 1b
 2314               	 ;  0 "" 2
 2315               	/* #NOAPP */
 2316               	.LBE2605:
 2317               	.LBE2604:
 2318               	.LM290:
 2319 05ae 0197      		sbiw r24,1
 2320               	.LM291:
 2321 05b0 01F4      		brne .L99
 2322 05b2 80E1      		ldi r24,lo8(10000)
 2323 05b4 97E2      		ldi r25,hi8(10000)
 2324               	.LVL166:
 2325               	.L100:
 2326               	.LBE2603:
 2327               	.LBE2602:
 2328               	.LBB2606:
 2329               	.LBB2607:
 2330               	.LBB2608:
 2331               	.LBB2609:
 2332               	.LM292:
 2333 05b6 F801      		movw r30,r16
 2334               	.LVL167:
 2335               	/* #APP */
 2336               	 ;  105 "c:/winavr-20100110/lib/gcc/../../avr/include/util/delay_basic.h" 1
 2337 05b8 3197      		1: sbiw r30,1
 2338 05ba 01F4      		brne 1b
 2339               	 ;  0 "" 2
 2340               	/* #NOAPP */
 2341               	.LBE2609:
 2342               	.LBE2608:
 2343               	.LM293:
 2344 05bc 0197      		sbiw r24,1
 2345               	.LM294:
 2346 05be 01F4      		brne .L100
 2347 05c0 80E1      		ldi r24,lo8(10000)
 2348 05c2 97E2      		ldi r25,hi8(10000)
 2349               	.LVL168:
 2350               	.L101:
 2351               	.LBE2607:
 2352               	.LBE2606:
 2353               	.LBB2610:
 2354               	.LBB2611:
 2355               	.LBB2612:
 2356               	.LBB2613:
 2357               	.LM295:
 2358 05c4 F801      		movw r30,r16
 2359               	.LVL169:
 2360               	/* #APP */
 2361               	 ;  105 "c:/winavr-20100110/lib/gcc/../../avr/include/util/delay_basic.h" 1
 2362 05c6 3197      		1: sbiw r30,1
 2363 05c8 01F4      		brne 1b
 2364               	 ;  0 "" 2
 2365               	/* #NOAPP */
 2366               	.LBE2613:
 2367               	.LBE2612:
 2368               	.LM296:
 2369 05ca 0197      		sbiw r24,1
 2370               	.LM297:
 2371 05cc 01F4      		brne .L101
 2372 05ce 80E1      		ldi r24,lo8(10000)
 2373 05d0 97E2      		ldi r25,hi8(10000)
 2374               	.LVL170:
 2375               	.L102:
 2376               	.LBE2611:
 2377               	.LBE2610:
 2378               	.LBB2614:
 2379               	.LBB2615:
 2380               	.LBB2616:
 2381               	.LBB2617:
 2382               	.LM298:
 2383 05d2 F801      		movw r30,r16
 2384               	.LVL171:
 2385               	/* #APP */
 2386               	 ;  105 "c:/winavr-20100110/lib/gcc/../../avr/include/util/delay_basic.h" 1
 2387 05d4 3197      		1: sbiw r30,1
 2388 05d6 01F4      		brne 1b
 2389               	 ;  0 "" 2
 2390               	/* #NOAPP */
 2391               	.LBE2617:
 2392               	.LBE2616:
 2393               	.LM299:
 2394 05d8 0197      		sbiw r24,1
 2395               	.LM300:
 2396 05da 01F4      		brne .L102
 2397 05dc 80E1      		ldi r24,lo8(10000)
 2398 05de 97E2      		ldi r25,hi8(10000)
 2399               	.LVL172:
 2400               	.L103:
 2401               	.LBE2615:
 2402               	.LBE2614:
 2403               	.LBB2618:
 2404               	.LBB2619:
 2405               	.LBB2620:
 2406               	.LBB2621:
 2407               	.LM301:
 2408 05e0 F801      		movw r30,r16
 2409               	.LVL173:
 2410               	/* #APP */
 2411               	 ;  105 "c:/winavr-20100110/lib/gcc/../../avr/include/util/delay_basic.h" 1
 2412 05e2 3197      		1: sbiw r30,1
 2413 05e4 01F4      		brne 1b
 2414               	 ;  0 "" 2
 2415               	/* #NOAPP */
 2416               	.LBE2621:
 2417               	.LBE2620:
 2418               	.LM302:
 2419 05e6 0197      		sbiw r24,1
 2420               	.LM303:
 2421 05e8 01F4      		brne .L103
 2422 05ea 80E1      		ldi r24,lo8(10000)
 2423 05ec 97E2      		ldi r25,hi8(10000)
 2424               	.LVL174:
 2425               	.L104:
 2426               	.LBE2619:
 2427               	.LBE2618:
 2428               	.LBB2622:
 2429               	.LBB2623:
 2430               	.LBB2624:
 2431               	.LBB2625:
 2432               	.LM304:
 2433 05ee F801      		movw r30,r16
 2434               	.LVL175:
 2435               	/* #APP */
 2436               	 ;  105 "c:/winavr-20100110/lib/gcc/../../avr/include/util/delay_basic.h" 1
 2437 05f0 3197      		1: sbiw r30,1
 2438 05f2 01F4      		brne 1b
 2439               	 ;  0 "" 2
 2440               	/* #NOAPP */
 2441               	.LBE2625:
 2442               	.LBE2624:
 2443               	.LM305:
 2444 05f4 0197      		sbiw r24,1
 2445               	.LM306:
 2446 05f6 01F4      		brne .L104
 2447 05f8 80E1      		ldi r24,lo8(10000)
 2448 05fa 97E2      		ldi r25,hi8(10000)
 2449               	.LVL176:
 2450               	.L105:
 2451               	.LBE2623:
 2452               	.LBE2622:
 2453               	.LBB2626:
 2454               	.LBB2627:
 2455               	.LBB2628:
 2456               	.LBB2629:
 2457               	.LM307:
 2458 05fc F801      		movw r30,r16
 2459               	.LVL177:
 2460               	/* #APP */
 2461               	 ;  105 "c:/winavr-20100110/lib/gcc/../../avr/include/util/delay_basic.h" 1
 2462 05fe 3197      		1: sbiw r30,1
 2463 0600 01F4      		brne 1b
 2464               	 ;  0 "" 2
 2465               	/* #NOAPP */
 2466               	.LBE2629:
 2467               	.LBE2628:
 2468               	.LM308:
 2469 0602 0197      		sbiw r24,1
 2470               	.LM309:
 2471 0604 01F4      		brne .L105
 2472 0606 80E1      		ldi r24,lo8(10000)
 2473 0608 97E2      		ldi r25,hi8(10000)
 2474               	.LVL178:
 2475               	.L106:
 2476               	.LBE2627:
 2477               	.LBE2626:
 2478               	.LBB2630:
 2479               	.LBB2631:
 2480               	.LBB2632:
 2481               	.LBB2633:
 2482               	.LM310:
 2483 060a F801      		movw r30,r16
 2484               	.LVL179:
 2485               	/* #APP */
 2486               	 ;  105 "c:/winavr-20100110/lib/gcc/../../avr/include/util/delay_basic.h" 1
 2487 060c 3197      		1: sbiw r30,1
 2488 060e 01F4      		brne 1b
 2489               	 ;  0 "" 2
 2490               	/* #NOAPP */
 2491               	.LBE2633:
 2492               	.LBE2632:
 2493               	.LM311:
 2494 0610 0197      		sbiw r24,1
 2495               	.LM312:
 2496 0612 01F4      		brne .L106
 2497 0614 80E1      		ldi r24,lo8(10000)
 2498 0616 97E2      		ldi r25,hi8(10000)
 2499               	.LVL180:
 2500               	.L107:
 2501               	.LBE2631:
 2502               	.LBE2630:
 2503               	.LBB2634:
 2504               	.LBB2635:
 2505               	.LBB2636:
 2506               	.LBB2637:
 2507               	.LM313:
 2508 0618 F801      		movw r30,r16
 2509               	.LVL181:
 2510               	/* #APP */
 2511               	 ;  105 "c:/winavr-20100110/lib/gcc/../../avr/include/util/delay_basic.h" 1
 2512 061a 3197      		1: sbiw r30,1
 2513 061c 01F4      		brne 1b
 2514               	 ;  0 "" 2
 2515               	/* #NOAPP */
 2516               	.LBE2637:
 2517               	.LBE2636:
 2518               	.LM314:
 2519 061e 0197      		sbiw r24,1
 2520               	.LM315:
 2521 0620 01F4      		brne .L107
 2522 0622 80E1      		ldi r24,lo8(10000)
 2523 0624 97E2      		ldi r25,hi8(10000)
 2524               	.LVL182:
 2525               	.L108:
 2526               	.LBE2635:
 2527               	.LBE2634:
 2528               	.LBB2638:
 2529               	.LBB2639:
 2530               	.LBB2640:
 2531               	.LBB2641:
 2532               	.LM316:
 2533 0626 F801      		movw r30,r16
 2534               	.LVL183:
 2535               	/* #APP */
 2536               	 ;  105 "c:/winavr-20100110/lib/gcc/../../avr/include/util/delay_basic.h" 1
 2537 0628 3197      		1: sbiw r30,1
 2538 062a 01F4      		brne 1b
 2539               	 ;  0 "" 2
 2540               	/* #NOAPP */
 2541               	.LBE2641:
 2542               	.LBE2640:
 2543               	.LM317:
 2544 062c 0197      		sbiw r24,1
 2545               	.LM318:
 2546 062e 01F4      		brne .L108
 2547 0630 80E1      		ldi r24,lo8(10000)
 2548 0632 97E2      		ldi r25,hi8(10000)
 2549               	.LVL184:
 2550               	.L109:
 2551               	.LBE2639:
 2552               	.LBE2638:
 2553               	.LBB2642:
 2554               	.LBB2643:
 2555               	.LBB2644:
 2556               	.LBB2645:
 2557               	.LM319:
 2558 0634 F801      		movw r30,r16
 2559               	.LVL185:
 2560               	/* #APP */
 2561               	 ;  105 "c:/winavr-20100110/lib/gcc/../../avr/include/util/delay_basic.h" 1
 2562 0636 3197      		1: sbiw r30,1
 2563 0638 01F4      		brne 1b
 2564               	 ;  0 "" 2
 2565               	/* #NOAPP */
 2566               	.LBE2645:
 2567               	.LBE2644:
 2568               	.LM320:
 2569 063a 0197      		sbiw r24,1
 2570               	.LM321:
 2571 063c 01F4      		brne .L109
 2572 063e 80E1      		ldi r24,lo8(10000)
 2573 0640 97E2      		ldi r25,hi8(10000)
 2574               	.LVL186:
 2575               	.L110:
 2576               	.LBE2643:
 2577               	.LBE2642:
 2578               	.LBB2646:
 2579               	.LBB2647:
 2580               	.LBB2648:
 2581               	.LBB2649:
 2582               	.LM322:
 2583 0642 F801      		movw r30,r16
 2584               	.LVL187:
 2585               	/* #APP */
 2586               	 ;  105 "c:/winavr-20100110/lib/gcc/../../avr/include/util/delay_basic.h" 1
 2587 0644 3197      		1: sbiw r30,1
 2588 0646 01F4      		brne 1b
 2589               	 ;  0 "" 2
 2590               	/* #NOAPP */
 2591               	.LBE2649:
 2592               	.LBE2648:
 2593               	.LM323:
 2594 0648 0197      		sbiw r24,1
 2595               	.LM324:
 2596 064a 01F4      		brne .L110
 2597 064c 80E1      		ldi r24,lo8(10000)
 2598 064e 97E2      		ldi r25,hi8(10000)
 2599               	.LVL188:
 2600               	.L111:
 2601               	.LBE2647:
 2602               	.LBE2646:
 2603               	.LBB2650:
 2604               	.LBB2651:
 2605               	.LBB2652:
 2606               	.LBB2653:
 2607               	.LM325:
 2608 0650 F801      		movw r30,r16
 2609               	.LVL189:
 2610               	/* #APP */
 2611               	 ;  105 "c:/winavr-20100110/lib/gcc/../../avr/include/util/delay_basic.h" 1
 2612 0652 3197      		1: sbiw r30,1
 2613 0654 01F4      		brne 1b
 2614               	 ;  0 "" 2
 2615               	/* #NOAPP */
 2616               	.LBE2653:
 2617               	.LBE2652:
 2618               	.LM326:
 2619 0656 0197      		sbiw r24,1
 2620               	.LM327:
 2621 0658 01F4      		brne .L111
 2622 065a 80E1      		ldi r24,lo8(10000)
 2623 065c 97E2      		ldi r25,hi8(10000)
 2624               	.LVL190:
 2625               	.L112:
 2626               	.LBE2651:
 2627               	.LBE2650:
 2628               	.LBB2654:
 2629               	.LBB2655:
 2630               	.LBB2656:
 2631               	.LBB2657:
 2632               	.LM328:
 2633 065e F801      		movw r30,r16
 2634               	.LVL191:
 2635               	/* #APP */
 2636               	 ;  105 "c:/winavr-20100110/lib/gcc/../../avr/include/util/delay_basic.h" 1
 2637 0660 3197      		1: sbiw r30,1
 2638 0662 01F4      		brne 1b
 2639               	 ;  0 "" 2
 2640               	/* #NOAPP */
 2641               	.LBE2657:
 2642               	.LBE2656:
 2643               	.LM329:
 2644 0664 0197      		sbiw r24,1
 2645               	.LM330:
 2646 0666 01F4      		brne .L112
 2647 0668 80E1      		ldi r24,lo8(10000)
 2648 066a 97E2      		ldi r25,hi8(10000)
 2649               	.LVL192:
 2650               	.L113:
 2651               	.LBE2655:
 2652               	.LBE2654:
 2653               	.LBB2658:
 2654               	.LBB2659:
 2655               	.LBB2660:
 2656               	.LBB2661:
 2657               	.LM331:
 2658 066c F801      		movw r30,r16
 2659               	.LVL193:
 2660               	/* #APP */
 2661               	 ;  105 "c:/winavr-20100110/lib/gcc/../../avr/include/util/delay_basic.h" 1
 2662 066e 3197      		1: sbiw r30,1
 2663 0670 01F4      		brne 1b
 2664               	 ;  0 "" 2
 2665               	/* #NOAPP */
 2666               	.LBE2661:
 2667               	.LBE2660:
 2668               	.LM332:
 2669 0672 0197      		sbiw r24,1
 2670               	.LM333:
 2671 0674 01F4      		brne .L113
 2672 0676 80E1      		ldi r24,lo8(10000)
 2673 0678 97E2      		ldi r25,hi8(10000)
 2674               	.LVL194:
 2675               	.L114:
 2676               	.LBE2659:
 2677               	.LBE2658:
 2678               	.LBB2662:
 2679               	.LBB2663:
 2680               	.LBB2664:
 2681               	.LBB2665:
 2682               	.LM334:
 2683 067a F801      		movw r30,r16
 2684               	.LVL195:
 2685               	/* #APP */
 2686               	 ;  105 "c:/winavr-20100110/lib/gcc/../../avr/include/util/delay_basic.h" 1
 2687 067c 3197      		1: sbiw r30,1
 2688 067e 01F4      		brne 1b
 2689               	 ;  0 "" 2
 2690               	/* #NOAPP */
 2691               	.LBE2665:
 2692               	.LBE2664:
 2693               	.LM335:
 2694 0680 0197      		sbiw r24,1
 2695               	.LM336:
 2696 0682 01F4      		brne .L114
 2697 0684 80E1      		ldi r24,lo8(10000)
 2698 0686 97E2      		ldi r25,hi8(10000)
 2699               	.LVL196:
 2700               	.L115:
 2701               	.LBE2663:
 2702               	.LBE2662:
 2703               	.LBB2666:
 2704               	.LBB2667:
 2705               	.LBB2668:
 2706               	.LBB2669:
 2707               	.LM337:
 2708 0688 F801      		movw r30,r16
 2709               	.LVL197:
 2710               	/* #APP */
 2711               	 ;  105 "c:/winavr-20100110/lib/gcc/../../avr/include/util/delay_basic.h" 1
 2712 068a 3197      		1: sbiw r30,1
 2713 068c 01F4      		brne 1b
 2714               	 ;  0 "" 2
 2715               	/* #NOAPP */
 2716               	.LBE2669:
 2717               	.LBE2668:
 2718               	.LM338:
 2719 068e 0197      		sbiw r24,1
 2720               	.LM339:
 2721 0690 01F4      		brne .L115
 2722 0692 80E1      		ldi r24,lo8(10000)
 2723 0694 97E2      		ldi r25,hi8(10000)
 2724               	.LVL198:
 2725               	.L116:
 2726               	.LBE2667:
 2727               	.LBE2666:
 2728               	.LBB2670:
 2729               	.LBB2671:
 2730               	.LBB2672:
 2731               	.LBB2673:
 2732               	.LM340:
 2733 0696 F801      		movw r30,r16
 2734               	.LVL199:
 2735               	/* #APP */
 2736               	 ;  105 "c:/winavr-20100110/lib/gcc/../../avr/include/util/delay_basic.h" 1
 2737 0698 3197      		1: sbiw r30,1
 2738 069a 01F4      		brne 1b
 2739               	 ;  0 "" 2
 2740               	/* #NOAPP */
 2741               	.LBE2673:
 2742               	.LBE2672:
 2743               	.LM341:
 2744 069c 0197      		sbiw r24,1
 2745               	.LM342:
 2746 069e 01F4      		brne .L116
 2747               	.L74:
 2748               	.LBE2671:
 2749               	.LBE2670:
 2750               	.LM343:
 2751 06a0 C701      		movw r24,r14
 2752 06a2 B601      		movw r22,r12
 2753 06a4 20E0      		ldi r18,lo8(0x41100000)
 2754 06a6 30E0      		ldi r19,hi8(0x41100000)
 2755 06a8 40E1      		ldi r20,hlo8(0x41100000)
 2756 06aa 51E4      		ldi r21,hhi8(0x41100000)
 2757 06ac 0E94 0000 		call __gesf2
 2758               	.LVL200:
 2759 06b0 8823      		tst r24
 2760 06b2 04F4      		brge .+2
 2761 06b4 00C0      		rjmp .L117
 2762 06b6 C701      		movw r24,r14
 2763 06b8 B601      		movw r22,r12
 2764 06ba 20E0      		ldi r18,lo8(0x41200000)
 2765 06bc 30E0      		ldi r19,hi8(0x41200000)
 2766 06be 40E2      		ldi r20,hlo8(0x41200000)
 2767 06c0 51E4      		ldi r21,hhi8(0x41200000)
 2768 06c2 0E94 0000 		call __ltsf2
 2769 06c6 8823      		tst r24
 2770 06c8 04F0      		brlt .+2
 2771 06ca 00C0      		rjmp .L117
 2772               	.LM344:
 2773 06cc 48BA      		out 56-32,r4
 2774 06ce 80E1      		ldi r24,lo8(10000)
 2775 06d0 97E2      		ldi r25,hi8(10000)
 2776               	.LVL201:
 2777               	.L120:
 2778               	.LBB2674:
 2779               	.LBB2675:
 2780               	.LBB2676:
 2781               	.LBB2677:
 2782               	.LM345:
 2783 06d2 F801      		movw r30,r16
 2784               	.LVL202:
 2785               	/* #APP */
 2786               	 ;  105 "c:/winavr-20100110/lib/gcc/../../avr/include/util/delay_basic.h" 1
 2787 06d4 3197      		1: sbiw r30,1
 2788 06d6 01F4      		brne 1b
 2789               	 ;  0 "" 2
 2790               	/* #NOAPP */
 2791               	.LBE2677:
 2792               	.LBE2676:
 2793               	.LM346:
 2794 06d8 0197      		sbiw r24,1
 2795               	.LM347:
 2796 06da 01F4      		brne .L120
 2797 06dc 80E1      		ldi r24,lo8(10000)
 2798 06de 97E2      		ldi r25,hi8(10000)
 2799               	.LVL203:
 2800               	.L121:
 2801               	.LBE2675:
 2802               	.LBE2674:
 2803               	.LBB2678:
 2804               	.LBB2679:
 2805               	.LBB2680:
 2806               	.LBB2681:
 2807               	.LM348:
 2808 06e0 F801      		movw r30,r16
 2809               	.LVL204:
 2810               	/* #APP */
 2811               	 ;  105 "c:/winavr-20100110/lib/gcc/../../avr/include/util/delay_basic.h" 1
 2812 06e2 3197      		1: sbiw r30,1
 2813 06e4 01F4      		brne 1b
 2814               	 ;  0 "" 2
 2815               	/* #NOAPP */
 2816               	.LBE2681:
 2817               	.LBE2680:
 2818               	.LM349:
 2819 06e6 0197      		sbiw r24,1
 2820               	.LM350:
 2821 06e8 01F4      		brne .L121
 2822 06ea 80E1      		ldi r24,lo8(10000)
 2823 06ec 97E2      		ldi r25,hi8(10000)
 2824               	.LVL205:
 2825               	.L122:
 2826               	.LBE2679:
 2827               	.LBE2678:
 2828               	.LBB2682:
 2829               	.LBB2683:
 2830               	.LBB2684:
 2831               	.LBB2685:
 2832               	.LM351:
 2833 06ee F801      		movw r30,r16
 2834               	.LVL206:
 2835               	/* #APP */
 2836               	 ;  105 "c:/winavr-20100110/lib/gcc/../../avr/include/util/delay_basic.h" 1
 2837 06f0 3197      		1: sbiw r30,1
 2838 06f2 01F4      		brne 1b
 2839               	 ;  0 "" 2
 2840               	/* #NOAPP */
 2841               	.LBE2685:
 2842               	.LBE2684:
 2843               	.LM352:
 2844 06f4 0197      		sbiw r24,1
 2845               	.LM353:
 2846 06f6 01F4      		brne .L122
 2847 06f8 80E1      		ldi r24,lo8(10000)
 2848 06fa 97E2      		ldi r25,hi8(10000)
 2849               	.LVL207:
 2850               	.L123:
 2851               	.LBE2683:
 2852               	.LBE2682:
 2853               	.LBB2686:
 2854               	.LBB2687:
 2855               	.LBB2688:
 2856               	.LBB2689:
 2857               	.LM354:
 2858 06fc F801      		movw r30,r16
 2859               	.LVL208:
 2860               	/* #APP */
 2861               	 ;  105 "c:/winavr-20100110/lib/gcc/../../avr/include/util/delay_basic.h" 1
 2862 06fe 3197      		1: sbiw r30,1
 2863 0700 01F4      		brne 1b
 2864               	 ;  0 "" 2
 2865               	/* #NOAPP */
 2866               	.LBE2689:
 2867               	.LBE2688:
 2868               	.LM355:
 2869 0702 0197      		sbiw r24,1
 2870               	.LM356:
 2871 0704 01F4      		brne .L123
 2872 0706 80E1      		ldi r24,lo8(10000)
 2873 0708 97E2      		ldi r25,hi8(10000)
 2874               	.LVL209:
 2875               	.L124:
 2876               	.LBE2687:
 2877               	.LBE2686:
 2878               	.LBB2690:
 2879               	.LBB2691:
 2880               	.LBB2692:
 2881               	.LBB2693:
 2882               	.LM357:
 2883 070a F801      		movw r30,r16
 2884               	.LVL210:
 2885               	/* #APP */
 2886               	 ;  105 "c:/winavr-20100110/lib/gcc/../../avr/include/util/delay_basic.h" 1
 2887 070c 3197      		1: sbiw r30,1
 2888 070e 01F4      		brne 1b
 2889               	 ;  0 "" 2
 2890               	/* #NOAPP */
 2891               	.LBE2693:
 2892               	.LBE2692:
 2893               	.LM358:
 2894 0710 0197      		sbiw r24,1
 2895               	.LM359:
 2896 0712 01F4      		brne .L124
 2897 0714 80E1      		ldi r24,lo8(10000)
 2898 0716 97E2      		ldi r25,hi8(10000)
 2899               	.LVL211:
 2900               	.L125:
 2901               	.LBE2691:
 2902               	.LBE2690:
 2903               	.LBB2694:
 2904               	.LBB2695:
 2905               	.LBB2696:
 2906               	.LBB2697:
 2907               	.LM360:
 2908 0718 F801      		movw r30,r16
 2909               	.LVL212:
 2910               	/* #APP */
 2911               	 ;  105 "c:/winavr-20100110/lib/gcc/../../avr/include/util/delay_basic.h" 1
 2912 071a 3197      		1: sbiw r30,1
 2913 071c 01F4      		brne 1b
 2914               	 ;  0 "" 2
 2915               	/* #NOAPP */
 2916               	.LBE2697:
 2917               	.LBE2696:
 2918               	.LM361:
 2919 071e 0197      		sbiw r24,1
 2920               	.LM362:
 2921 0720 01F4      		brne .L125
 2922 0722 80E1      		ldi r24,lo8(10000)
 2923 0724 97E2      		ldi r25,hi8(10000)
 2924               	.LVL213:
 2925               	.L126:
 2926               	.LBE2695:
 2927               	.LBE2694:
 2928               	.LBB2698:
 2929               	.LBB2699:
 2930               	.LBB2700:
 2931               	.LBB2701:
 2932               	.LM363:
 2933 0726 F801      		movw r30,r16
 2934               	.LVL214:
 2935               	/* #APP */
 2936               	 ;  105 "c:/winavr-20100110/lib/gcc/../../avr/include/util/delay_basic.h" 1
 2937 0728 3197      		1: sbiw r30,1
 2938 072a 01F4      		brne 1b
 2939               	 ;  0 "" 2
 2940               	/* #NOAPP */
 2941               	.LBE2701:
 2942               	.LBE2700:
 2943               	.LM364:
 2944 072c 0197      		sbiw r24,1
 2945               	.LM365:
 2946 072e 01F4      		brne .L126
 2947 0730 80E1      		ldi r24,lo8(10000)
 2948 0732 97E2      		ldi r25,hi8(10000)
 2949               	.LVL215:
 2950               	.L127:
 2951               	.LBE2699:
 2952               	.LBE2698:
 2953               	.LBB2702:
 2954               	.LBB2703:
 2955               	.LBB2704:
 2956               	.LBB2705:
 2957               	.LM366:
 2958 0734 F801      		movw r30,r16
 2959               	.LVL216:
 2960               	/* #APP */
 2961               	 ;  105 "c:/winavr-20100110/lib/gcc/../../avr/include/util/delay_basic.h" 1
 2962 0736 3197      		1: sbiw r30,1
 2963 0738 01F4      		brne 1b
 2964               	 ;  0 "" 2
 2965               	/* #NOAPP */
 2966               	.LBE2705:
 2967               	.LBE2704:
 2968               	.LM367:
 2969 073a 0197      		sbiw r24,1
 2970               	.LM368:
 2971 073c 01F4      		brne .L127
 2972 073e 80E1      		ldi r24,lo8(10000)
 2973 0740 97E2      		ldi r25,hi8(10000)
 2974               	.LVL217:
 2975               	.L128:
 2976               	.LBE2703:
 2977               	.LBE2702:
 2978               	.LBB2706:
 2979               	.LBB2707:
 2980               	.LBB2708:
 2981               	.LBB2709:
 2982               	.LM369:
 2983 0742 F801      		movw r30,r16
 2984               	.LVL218:
 2985               	/* #APP */
 2986               	 ;  105 "c:/winavr-20100110/lib/gcc/../../avr/include/util/delay_basic.h" 1
 2987 0744 3197      		1: sbiw r30,1
 2988 0746 01F4      		brne 1b
 2989               	 ;  0 "" 2
 2990               	/* #NOAPP */
 2991               	.LBE2709:
 2992               	.LBE2708:
 2993               	.LM370:
 2994 0748 0197      		sbiw r24,1
 2995               	.LM371:
 2996 074a 01F4      		brne .L128
 2997 074c 80E1      		ldi r24,lo8(10000)
 2998 074e 97E2      		ldi r25,hi8(10000)
 2999               	.LVL219:
 3000               	.L129:
 3001               	.LBE2707:
 3002               	.LBE2706:
 3003               	.LBB2710:
 3004               	.LBB2711:
 3005               	.LBB2712:
 3006               	.LBB2713:
 3007               	.LM372:
 3008 0750 F801      		movw r30,r16
 3009               	.LVL220:
 3010               	/* #APP */
 3011               	 ;  105 "c:/winavr-20100110/lib/gcc/../../avr/include/util/delay_basic.h" 1
 3012 0752 3197      		1: sbiw r30,1
 3013 0754 01F4      		brne 1b
 3014               	 ;  0 "" 2
 3015               	/* #NOAPP */
 3016               	.LBE2713:
 3017               	.LBE2712:
 3018               	.LM373:
 3019 0756 0197      		sbiw r24,1
 3020               	.LM374:
 3021 0758 01F4      		brne .L129
 3022 075a 80E1      		ldi r24,lo8(10000)
 3023 075c 97E2      		ldi r25,hi8(10000)
 3024               	.LVL221:
 3025               	.L130:
 3026               	.LBE2711:
 3027               	.LBE2710:
 3028               	.LBB2714:
 3029               	.LBB2715:
 3030               	.LBB2716:
 3031               	.LBB2717:
 3032               	.LM375:
 3033 075e F801      		movw r30,r16
 3034               	.LVL222:
 3035               	/* #APP */
 3036               	 ;  105 "c:/winavr-20100110/lib/gcc/../../avr/include/util/delay_basic.h" 1
 3037 0760 3197      		1: sbiw r30,1
 3038 0762 01F4      		brne 1b
 3039               	 ;  0 "" 2
 3040               	/* #NOAPP */
 3041               	.LBE2717:
 3042               	.LBE2716:
 3043               	.LM376:
 3044 0764 0197      		sbiw r24,1
 3045               	.LM377:
 3046 0766 01F4      		brne .L130
 3047 0768 80E1      		ldi r24,lo8(10000)
 3048 076a 97E2      		ldi r25,hi8(10000)
 3049               	.LVL223:
 3050               	.L131:
 3051               	.LBE2715:
 3052               	.LBE2714:
 3053               	.LBB2718:
 3054               	.LBB2719:
 3055               	.LBB2720:
 3056               	.LBB2721:
 3057               	.LM378:
 3058 076c F801      		movw r30,r16
 3059               	.LVL224:
 3060               	/* #APP */
 3061               	 ;  105 "c:/winavr-20100110/lib/gcc/../../avr/include/util/delay_basic.h" 1
 3062 076e 3197      		1: sbiw r30,1
 3063 0770 01F4      		brne 1b
 3064               	 ;  0 "" 2
 3065               	/* #NOAPP */
 3066               	.LBE2721:
 3067               	.LBE2720:
 3068               	.LM379:
 3069 0772 0197      		sbiw r24,1
 3070               	.LM380:
 3071 0774 01F4      		brne .L131
 3072 0776 80E1      		ldi r24,lo8(10000)
 3073 0778 97E2      		ldi r25,hi8(10000)
 3074               	.LVL225:
 3075               	.L132:
 3076               	.LBE2719:
 3077               	.LBE2718:
 3078               	.LBB2722:
 3079               	.LBB2723:
 3080               	.LBB2724:
 3081               	.LBB2725:
 3082               	.LM381:
 3083 077a F801      		movw r30,r16
 3084               	.LVL226:
 3085               	/* #APP */
 3086               	 ;  105 "c:/winavr-20100110/lib/gcc/../../avr/include/util/delay_basic.h" 1
 3087 077c 3197      		1: sbiw r30,1
 3088 077e 01F4      		brne 1b
 3089               	 ;  0 "" 2
 3090               	/* #NOAPP */
 3091               	.LBE2725:
 3092               	.LBE2724:
 3093               	.LM382:
 3094 0780 0197      		sbiw r24,1
 3095               	.LM383:
 3096 0782 01F4      		brne .L132
 3097 0784 80E1      		ldi r24,lo8(10000)
 3098 0786 97E2      		ldi r25,hi8(10000)
 3099               	.LVL227:
 3100               	.L133:
 3101               	.LBE2723:
 3102               	.LBE2722:
 3103               	.LBB2726:
 3104               	.LBB2727:
 3105               	.LBB2728:
 3106               	.LBB2729:
 3107               	.LM384:
 3108 0788 F801      		movw r30,r16
 3109               	.LVL228:
 3110               	/* #APP */
 3111               	 ;  105 "c:/winavr-20100110/lib/gcc/../../avr/include/util/delay_basic.h" 1
 3112 078a 3197      		1: sbiw r30,1
 3113 078c 01F4      		brne 1b
 3114               	 ;  0 "" 2
 3115               	/* #NOAPP */
 3116               	.LBE2729:
 3117               	.LBE2728:
 3118               	.LM385:
 3119 078e 0197      		sbiw r24,1
 3120               	.LM386:
 3121 0790 01F4      		brne .L133
 3122 0792 80E1      		ldi r24,lo8(10000)
 3123 0794 97E2      		ldi r25,hi8(10000)
 3124               	.LVL229:
 3125               	.L134:
 3126               	.LBE2727:
 3127               	.LBE2726:
 3128               	.LBB2730:
 3129               	.LBB2731:
 3130               	.LBB2732:
 3131               	.LBB2733:
 3132               	.LM387:
 3133 0796 F801      		movw r30,r16
 3134               	.LVL230:
 3135               	/* #APP */
 3136               	 ;  105 "c:/winavr-20100110/lib/gcc/../../avr/include/util/delay_basic.h" 1
 3137 0798 3197      		1: sbiw r30,1
 3138 079a 01F4      		brne 1b
 3139               	 ;  0 "" 2
 3140               	/* #NOAPP */
 3141               	.LBE2733:
 3142               	.LBE2732:
 3143               	.LM388:
 3144 079c 0197      		sbiw r24,1
 3145               	.LM389:
 3146 079e 01F4      		brne .L134
 3147 07a0 80E1      		ldi r24,lo8(10000)
 3148 07a2 97E2      		ldi r25,hi8(10000)
 3149               	.LVL231:
 3150               	.L135:
 3151               	.LBE2731:
 3152               	.LBE2730:
 3153               	.LBB2734:
 3154               	.LBB2735:
 3155               	.LBB2736:
 3156               	.LBB2737:
 3157               	.LM390:
 3158 07a4 F801      		movw r30,r16
 3159               	.LVL232:
 3160               	/* #APP */
 3161               	 ;  105 "c:/winavr-20100110/lib/gcc/../../avr/include/util/delay_basic.h" 1
 3162 07a6 3197      		1: sbiw r30,1
 3163 07a8 01F4      		brne 1b
 3164               	 ;  0 "" 2
 3165               	/* #NOAPP */
 3166               	.LBE2737:
 3167               	.LBE2736:
 3168               	.LM391:
 3169 07aa 0197      		sbiw r24,1
 3170               	.LM392:
 3171 07ac 01F4      		brne .L135
 3172 07ae 80E1      		ldi r24,lo8(10000)
 3173 07b0 97E2      		ldi r25,hi8(10000)
 3174               	.LVL233:
 3175               	.L136:
 3176               	.LBE2735:
 3177               	.LBE2734:
 3178               	.LBB2738:
 3179               	.LBB2739:
 3180               	.LBB2740:
 3181               	.LBB2741:
 3182               	.LM393:
 3183 07b2 F801      		movw r30,r16
 3184               	.LVL234:
 3185               	/* #APP */
 3186               	 ;  105 "c:/winavr-20100110/lib/gcc/../../avr/include/util/delay_basic.h" 1
 3187 07b4 3197      		1: sbiw r30,1
 3188 07b6 01F4      		brne 1b
 3189               	 ;  0 "" 2
 3190               	/* #NOAPP */
 3191               	.LBE2741:
 3192               	.LBE2740:
 3193               	.LM394:
 3194 07b8 0197      		sbiw r24,1
 3195               	.LM395:
 3196 07ba 01F4      		brne .L136
 3197 07bc 80E1      		ldi r24,lo8(10000)
 3198 07be 97E2      		ldi r25,hi8(10000)
 3199               	.LVL235:
 3200               	.L137:
 3201               	.LBE2739:
 3202               	.LBE2738:
 3203               	.LBB2742:
 3204               	.LBB2743:
 3205               	.LBB2744:
 3206               	.LBB2745:
 3207               	.LM396:
 3208 07c0 F801      		movw r30,r16
 3209               	.LVL236:
 3210               	/* #APP */
 3211               	 ;  105 "c:/winavr-20100110/lib/gcc/../../avr/include/util/delay_basic.h" 1
 3212 07c2 3197      		1: sbiw r30,1
 3213 07c4 01F4      		brne 1b
 3214               	 ;  0 "" 2
 3215               	/* #NOAPP */
 3216               	.LBE2745:
 3217               	.LBE2744:
 3218               	.LM397:
 3219 07c6 0197      		sbiw r24,1
 3220               	.LM398:
 3221 07c8 01F4      		brne .L137
 3222 07ca 80E1      		ldi r24,lo8(10000)
 3223 07cc 97E2      		ldi r25,hi8(10000)
 3224               	.LVL237:
 3225               	.L138:
 3226               	.LBE2743:
 3227               	.LBE2742:
 3228               	.LBB2746:
 3229               	.LBB2747:
 3230               	.LBB2748:
 3231               	.LBB2749:
 3232               	.LM399:
 3233 07ce F801      		movw r30,r16
 3234               	.LVL238:
 3235               	/* #APP */
 3236               	 ;  105 "c:/winavr-20100110/lib/gcc/../../avr/include/util/delay_basic.h" 1
 3237 07d0 3197      		1: sbiw r30,1
 3238 07d2 01F4      		brne 1b
 3239               	 ;  0 "" 2
 3240               	/* #NOAPP */
 3241               	.LBE2749:
 3242               	.LBE2748:
 3243               	.LM400:
 3244 07d4 0197      		sbiw r24,1
 3245               	.LM401:
 3246 07d6 01F4      		brne .L138
 3247 07d8 80E1      		ldi r24,lo8(10000)
 3248 07da 97E2      		ldi r25,hi8(10000)
 3249               	.LVL239:
 3250               	.L139:
 3251               	.LBE2747:
 3252               	.LBE2746:
 3253               	.LBB2750:
 3254               	.LBB2751:
 3255               	.LBB2752:
 3256               	.LBB2753:
 3257               	.LM402:
 3258 07dc F801      		movw r30,r16
 3259               	.LVL240:
 3260               	/* #APP */
 3261               	 ;  105 "c:/winavr-20100110/lib/gcc/../../avr/include/util/delay_basic.h" 1
 3262 07de 3197      		1: sbiw r30,1
 3263 07e0 01F4      		brne 1b
 3264               	 ;  0 "" 2
 3265               	/* #NOAPP */
 3266               	.LBE2753:
 3267               	.LBE2752:
 3268               	.LM403:
 3269 07e2 0197      		sbiw r24,1
 3270               	.LM404:
 3271 07e4 01F4      		brne .L139
 3272 07e6 80E1      		ldi r24,lo8(10000)
 3273 07e8 97E2      		ldi r25,hi8(10000)
 3274               	.LVL241:
 3275               	.L140:
 3276               	.LBE2751:
 3277               	.LBE2750:
 3278               	.LBB2754:
 3279               	.LBB2755:
 3280               	.LBB2756:
 3281               	.LBB2757:
 3282               	.LM405:
 3283 07ea F801      		movw r30,r16
 3284               	.LVL242:
 3285               	/* #APP */
 3286               	 ;  105 "c:/winavr-20100110/lib/gcc/../../avr/include/util/delay_basic.h" 1
 3287 07ec 3197      		1: sbiw r30,1
 3288 07ee 01F4      		brne 1b
 3289               	 ;  0 "" 2
 3290               	/* #NOAPP */
 3291               	.LBE2757:
 3292               	.LBE2756:
 3293               	.LM406:
 3294 07f0 0197      		sbiw r24,1
 3295               	.LM407:
 3296 07f2 01F4      		brne .L140
 3297 07f4 80E1      		ldi r24,lo8(10000)
 3298 07f6 97E2      		ldi r25,hi8(10000)
 3299               	.LVL243:
 3300               	.L141:
 3301               	.LBE2755:
 3302               	.LBE2754:
 3303               	.LBB2758:
 3304               	.LBB2759:
 3305               	.LBB2760:
 3306               	.LBB2761:
 3307               	.LM408:
 3308 07f8 F801      		movw r30,r16
 3309               	.LVL244:
 3310               	/* #APP */
 3311               	 ;  105 "c:/winavr-20100110/lib/gcc/../../avr/include/util/delay_basic.h" 1
 3312 07fa 3197      		1: sbiw r30,1
 3313 07fc 01F4      		brne 1b
 3314               	 ;  0 "" 2
 3315               	/* #NOAPP */
 3316               	.LBE2761:
 3317               	.LBE2760:
 3318               	.LM409:
 3319 07fe 0197      		sbiw r24,1
 3320               	.LM410:
 3321 0800 01F4      		brne .L141
 3322 0802 80E1      		ldi r24,lo8(10000)
 3323 0804 97E2      		ldi r25,hi8(10000)
 3324               	.LVL245:
 3325               	.L142:
 3326               	.LBE2759:
 3327               	.LBE2758:
 3328               	.LBB2762:
 3329               	.LBB2763:
 3330               	.LBB2764:
 3331               	.LBB2765:
 3332               	.LM411:
 3333 0806 F801      		movw r30,r16
 3334               	.LVL246:
 3335               	/* #APP */
 3336               	 ;  105 "c:/winavr-20100110/lib/gcc/../../avr/include/util/delay_basic.h" 1
 3337 0808 3197      		1: sbiw r30,1
 3338 080a 01F4      		brne 1b
 3339               	 ;  0 "" 2
 3340               	/* #NOAPP */
 3341               	.LBE2765:
 3342               	.LBE2764:
 3343               	.LM412:
 3344 080c 0197      		sbiw r24,1
 3345               	.LM413:
 3346 080e 01F4      		brne .L142
 3347 0810 80E1      		ldi r24,lo8(10000)
 3348 0812 97E2      		ldi r25,hi8(10000)
 3349               	.LVL247:
 3350               	.L143:
 3351               	.LBE2763:
 3352               	.LBE2762:
 3353               	.LBB2766:
 3354               	.LBB2767:
 3355               	.LBB2768:
 3356               	.LBB2769:
 3357               	.LM414:
 3358 0814 F801      		movw r30,r16
 3359               	.LVL248:
 3360               	/* #APP */
 3361               	 ;  105 "c:/winavr-20100110/lib/gcc/../../avr/include/util/delay_basic.h" 1
 3362 0816 3197      		1: sbiw r30,1
 3363 0818 01F4      		brne 1b
 3364               	 ;  0 "" 2
 3365               	/* #NOAPP */
 3366               	.LBE2769:
 3367               	.LBE2768:
 3368               	.LM415:
 3369 081a 0197      		sbiw r24,1
 3370               	.LM416:
 3371 081c 01F4      		brne .L143
 3372 081e 80E1      		ldi r24,lo8(10000)
 3373 0820 97E2      		ldi r25,hi8(10000)
 3374               	.LVL249:
 3375               	.L144:
 3376               	.LBE2767:
 3377               	.LBE2766:
 3378               	.LBB2770:
 3379               	.LBB2771:
 3380               	.LBB2772:
 3381               	.LBB2773:
 3382               	.LM417:
 3383 0822 F801      		movw r30,r16
 3384               	.LVL250:
 3385               	/* #APP */
 3386               	 ;  105 "c:/winavr-20100110/lib/gcc/../../avr/include/util/delay_basic.h" 1
 3387 0824 3197      		1: sbiw r30,1
 3388 0826 01F4      		brne 1b
 3389               	 ;  0 "" 2
 3390               	/* #NOAPP */
 3391               	.LBE2773:
 3392               	.LBE2772:
 3393               	.LM418:
 3394 0828 0197      		sbiw r24,1
 3395               	.LM419:
 3396 082a 01F4      		brne .L144
 3397 082c 80E1      		ldi r24,lo8(10000)
 3398 082e 97E2      		ldi r25,hi8(10000)
 3399               	.LVL251:
 3400               	.L145:
 3401               	.LBE2771:
 3402               	.LBE2770:
 3403               	.LBB2774:
 3404               	.LBB2775:
 3405               	.LBB2776:
 3406               	.LBB2777:
 3407               	.LM420:
 3408 0830 F801      		movw r30,r16
 3409               	.LVL252:
 3410               	/* #APP */
 3411               	 ;  105 "c:/winavr-20100110/lib/gcc/../../avr/include/util/delay_basic.h" 1
 3412 0832 3197      		1: sbiw r30,1
 3413 0834 01F4      		brne 1b
 3414               	 ;  0 "" 2
 3415               	/* #NOAPP */
 3416               	.LBE2777:
 3417               	.LBE2776:
 3418               	.LM421:
 3419 0836 0197      		sbiw r24,1
 3420               	.LM422:
 3421 0838 01F4      		brne .L145
 3422 083a 80E1      		ldi r24,lo8(10000)
 3423 083c 97E2      		ldi r25,hi8(10000)
 3424               	.LVL253:
 3425               	.L146:
 3426               	.LBE2775:
 3427               	.LBE2774:
 3428               	.LBB2778:
 3429               	.LBB2779:
 3430               	.LBB2780:
 3431               	.LBB2781:
 3432               	.LM423:
 3433 083e F801      		movw r30,r16
 3434               	.LVL254:
 3435               	/* #APP */
 3436               	 ;  105 "c:/winavr-20100110/lib/gcc/../../avr/include/util/delay_basic.h" 1
 3437 0840 3197      		1: sbiw r30,1
 3438 0842 01F4      		brne 1b
 3439               	 ;  0 "" 2
 3440               	/* #NOAPP */
 3441               	.LBE2781:
 3442               	.LBE2780:
 3443               	.LM424:
 3444 0844 0197      		sbiw r24,1
 3445               	.LM425:
 3446 0846 01F4      		brne .L146
 3447 0848 80E1      		ldi r24,lo8(10000)
 3448 084a 97E2      		ldi r25,hi8(10000)
 3449               	.LVL255:
 3450               	.L147:
 3451               	.LBE2779:
 3452               	.LBE2778:
 3453               	.LBB2782:
 3454               	.LBB2783:
 3455               	.LBB2784:
 3456               	.LBB2785:
 3457               	.LM426:
 3458 084c F801      		movw r30,r16
 3459               	.LVL256:
 3460               	/* #APP */
 3461               	 ;  105 "c:/winavr-20100110/lib/gcc/../../avr/include/util/delay_basic.h" 1
 3462 084e 3197      		1: sbiw r30,1
 3463 0850 01F4      		brne 1b
 3464               	 ;  0 "" 2
 3465               	/* #NOAPP */
 3466               	.LBE2785:
 3467               	.LBE2784:
 3468               	.LM427:
 3469 0852 0197      		sbiw r24,1
 3470               	.LM428:
 3471 0854 01F4      		brne .L147
 3472 0856 80E1      		ldi r24,lo8(10000)
 3473 0858 97E2      		ldi r25,hi8(10000)
 3474               	.LVL257:
 3475               	.L148:
 3476               	.LBE2783:
 3477               	.LBE2782:
 3478               	.LBB2786:
 3479               	.LBB2787:
 3480               	.LBB2788:
 3481               	.LBB2789:
 3482               	.LM429:
 3483 085a F801      		movw r30,r16
 3484               	.LVL258:
 3485               	/* #APP */
 3486               	 ;  105 "c:/winavr-20100110/lib/gcc/../../avr/include/util/delay_basic.h" 1
 3487 085c 3197      		1: sbiw r30,1
 3488 085e 01F4      		brne 1b
 3489               	 ;  0 "" 2
 3490               	/* #NOAPP */
 3491               	.LBE2789:
 3492               	.LBE2788:
 3493               	.LM430:
 3494 0860 0197      		sbiw r24,1
 3495               	.LM431:
 3496 0862 01F4      		brne .L148
 3497 0864 80E1      		ldi r24,lo8(10000)
 3498 0866 97E2      		ldi r25,hi8(10000)
 3499               	.LVL259:
 3500               	.L149:
 3501               	.LBE2787:
 3502               	.LBE2786:
 3503               	.LBB2790:
 3504               	.LBB2791:
 3505               	.LBB2792:
 3506               	.LBB2793:
 3507               	.LM432:
 3508 0868 F801      		movw r30,r16
 3509               	.LVL260:
 3510               	/* #APP */
 3511               	 ;  105 "c:/winavr-20100110/lib/gcc/../../avr/include/util/delay_basic.h" 1
 3512 086a 3197      		1: sbiw r30,1
 3513 086c 01F4      		brne 1b
 3514               	 ;  0 "" 2
 3515               	/* #NOAPP */
 3516               	.LBE2793:
 3517               	.LBE2792:
 3518               	.LM433:
 3519 086e 0197      		sbiw r24,1
 3520               	.LM434:
 3521 0870 01F4      		brne .L149
 3522 0872 80E1      		ldi r24,lo8(10000)
 3523 0874 97E2      		ldi r25,hi8(10000)
 3524               	.LVL261:
 3525               	.L150:
 3526               	.LBE2791:
 3527               	.LBE2790:
 3528               	.LBB2794:
 3529               	.LBB2795:
 3530               	.LBB2796:
 3531               	.LBB2797:
 3532               	.LM435:
 3533 0876 F801      		movw r30,r16
 3534               	.LVL262:
 3535               	/* #APP */
 3536               	 ;  105 "c:/winavr-20100110/lib/gcc/../../avr/include/util/delay_basic.h" 1
 3537 0878 3197      		1: sbiw r30,1
 3538 087a 01F4      		brne 1b
 3539               	 ;  0 "" 2
 3540               	/* #NOAPP */
 3541               	.LBE2797:
 3542               	.LBE2796:
 3543               	.LM436:
 3544 087c 0197      		sbiw r24,1
 3545               	.LM437:
 3546 087e 01F4      		brne .L150
 3547 0880 80E1      		ldi r24,lo8(10000)
 3548 0882 97E2      		ldi r25,hi8(10000)
 3549               	.LVL263:
 3550               	.L151:
 3551               	.LBE2795:
 3552               	.LBE2794:
 3553               	.LBB2798:
 3554               	.LBB2799:
 3555               	.LBB2800:
 3556               	.LBB2801:
 3557               	.LM438:
 3558 0884 F801      		movw r30,r16
 3559               	.LVL264:
 3560               	/* #APP */
 3561               	 ;  105 "c:/winavr-20100110/lib/gcc/../../avr/include/util/delay_basic.h" 1
 3562 0886 3197      		1: sbiw r30,1
 3563 0888 01F4      		brne 1b
 3564               	 ;  0 "" 2
 3565               	/* #NOAPP */
 3566               	.LBE2801:
 3567               	.LBE2800:
 3568               	.LM439:
 3569 088a 0197      		sbiw r24,1
 3570               	.LM440:
 3571 088c 01F4      		brne .L151
 3572 088e 80E1      		ldi r24,lo8(10000)
 3573 0890 97E2      		ldi r25,hi8(10000)
 3574               	.LVL265:
 3575               	.L152:
 3576               	.LBE2799:
 3577               	.LBE2798:
 3578               	.LBB2802:
 3579               	.LBB2803:
 3580               	.LBB2804:
 3581               	.LBB2805:
 3582               	.LM441:
 3583 0892 F801      		movw r30,r16
 3584               	.LVL266:
 3585               	/* #APP */
 3586               	 ;  105 "c:/winavr-20100110/lib/gcc/../../avr/include/util/delay_basic.h" 1
 3587 0894 3197      		1: sbiw r30,1
 3588 0896 01F4      		brne 1b
 3589               	 ;  0 "" 2
 3590               	/* #NOAPP */
 3591               	.LBE2805:
 3592               	.LBE2804:
 3593               	.LM442:
 3594 0898 0197      		sbiw r24,1
 3595               	.LM443:
 3596 089a 01F4      		brne .L152
 3597 089c 80E1      		ldi r24,lo8(10000)
 3598 089e 97E2      		ldi r25,hi8(10000)
 3599               	.LVL267:
 3600               	.L153:
 3601               	.LBE2803:
 3602               	.LBE2802:
 3603               	.LBB2806:
 3604               	.LBB2807:
 3605               	.LBB2808:
 3606               	.LBB2809:
 3607               	.LM444:
 3608 08a0 F801      		movw r30,r16
 3609               	.LVL268:
 3610               	/* #APP */
 3611               	 ;  105 "c:/winavr-20100110/lib/gcc/../../avr/include/util/delay_basic.h" 1
 3612 08a2 3197      		1: sbiw r30,1
 3613 08a4 01F4      		brne 1b
 3614               	 ;  0 "" 2
 3615               	/* #NOAPP */
 3616               	.LBE2809:
 3617               	.LBE2808:
 3618               	.LM445:
 3619 08a6 0197      		sbiw r24,1
 3620               	.LM446:
 3621 08a8 01F4      		brne .L153
 3622 08aa 80E1      		ldi r24,lo8(10000)
 3623 08ac 97E2      		ldi r25,hi8(10000)
 3624               	.LVL269:
 3625               	.L154:
 3626               	.LBE2807:
 3627               	.LBE2806:
 3628               	.LBB2810:
 3629               	.LBB2811:
 3630               	.LBB2812:
 3631               	.LBB2813:
 3632               	.LM447:
 3633 08ae F801      		movw r30,r16
 3634               	.LVL270:
 3635               	/* #APP */
 3636               	 ;  105 "c:/winavr-20100110/lib/gcc/../../avr/include/util/delay_basic.h" 1
 3637 08b0 3197      		1: sbiw r30,1
 3638 08b2 01F4      		brne 1b
 3639               	 ;  0 "" 2
 3640               	/* #NOAPP */
 3641               	.LBE2813:
 3642               	.LBE2812:
 3643               	.LM448:
 3644 08b4 0197      		sbiw r24,1
 3645               	.LM449:
 3646 08b6 01F4      		brne .L154
 3647 08b8 80E1      		ldi r24,lo8(10000)
 3648 08ba 97E2      		ldi r25,hi8(10000)
 3649               	.LVL271:
 3650               	.L155:
 3651               	.LBE2811:
 3652               	.LBE2810:
 3653               	.LBB2814:
 3654               	.LBB2815:
 3655               	.LBB2816:
 3656               	.LBB2817:
 3657               	.LM450:
 3658 08bc F801      		movw r30,r16
 3659               	.LVL272:
 3660               	/* #APP */
 3661               	 ;  105 "c:/winavr-20100110/lib/gcc/../../avr/include/util/delay_basic.h" 1
 3662 08be 3197      		1: sbiw r30,1
 3663 08c0 01F4      		brne 1b
 3664               	 ;  0 "" 2
 3665               	/* #NOAPP */
 3666               	.LBE2817:
 3667               	.LBE2816:
 3668               	.LM451:
 3669 08c2 0197      		sbiw r24,1
 3670               	.LM452:
 3671 08c4 01F4      		brne .L155
 3672 08c6 80E1      		ldi r24,lo8(10000)
 3673 08c8 97E2      		ldi r25,hi8(10000)
 3674               	.LVL273:
 3675               	.L156:
 3676               	.LBE2815:
 3677               	.LBE2814:
 3678               	.LBB2818:
 3679               	.LBB2819:
 3680               	.LBB2820:
 3681               	.LBB2821:
 3682               	.LM453:
 3683 08ca F801      		movw r30,r16
 3684               	.LVL274:
 3685               	/* #APP */
 3686               	 ;  105 "c:/winavr-20100110/lib/gcc/../../avr/include/util/delay_basic.h" 1
 3687 08cc 3197      		1: sbiw r30,1
 3688 08ce 01F4      		brne 1b
 3689               	 ;  0 "" 2
 3690               	/* #NOAPP */
 3691               	.LBE2821:
 3692               	.LBE2820:
 3693               	.LM454:
 3694 08d0 0197      		sbiw r24,1
 3695               	.LM455:
 3696 08d2 01F4      		brne .L156
 3697 08d4 80E1      		ldi r24,lo8(10000)
 3698 08d6 97E2      		ldi r25,hi8(10000)
 3699               	.LVL275:
 3700               	.L157:
 3701               	.LBE2819:
 3702               	.LBE2818:
 3703               	.LBB2822:
 3704               	.LBB2823:
 3705               	.LBB2824:
 3706               	.LBB2825:
 3707               	.LM456:
 3708 08d8 F801      		movw r30,r16
 3709               	.LVL276:
 3710               	/* #APP */
 3711               	 ;  105 "c:/winavr-20100110/lib/gcc/../../avr/include/util/delay_basic.h" 1
 3712 08da 3197      		1: sbiw r30,1
 3713 08dc 01F4      		brne 1b
 3714               	 ;  0 "" 2
 3715               	/* #NOAPP */
 3716               	.LBE2825:
 3717               	.LBE2824:
 3718               	.LM457:
 3719 08de 0197      		sbiw r24,1
 3720               	.LM458:
 3721 08e0 01F4      		brne .L157
 3722 08e2 80E1      		ldi r24,lo8(10000)
 3723 08e4 97E2      		ldi r25,hi8(10000)
 3724               	.LVL277:
 3725               	.L158:
 3726               	.LBE2823:
 3727               	.LBE2822:
 3728               	.LBB2826:
 3729               	.LBB2827:
 3730               	.LBB2828:
 3731               	.LBB2829:
 3732               	.LM459:
 3733 08e6 F801      		movw r30,r16
 3734               	.LVL278:
 3735               	/* #APP */
 3736               	 ;  105 "c:/winavr-20100110/lib/gcc/../../avr/include/util/delay_basic.h" 1
 3737 08e8 3197      		1: sbiw r30,1
 3738 08ea 01F4      		brne 1b
 3739               	 ;  0 "" 2
 3740               	/* #NOAPP */
 3741               	.LBE2829:
 3742               	.LBE2828:
 3743               	.LM460:
 3744 08ec 0197      		sbiw r24,1
 3745               	.LM461:
 3746 08ee 01F4      		brne .L158
 3747 08f0 80E1      		ldi r24,lo8(10000)
 3748 08f2 97E2      		ldi r25,hi8(10000)
 3749               	.LVL279:
 3750               	.L159:
 3751               	.LBE2827:
 3752               	.LBE2826:
 3753               	.LBB2830:
 3754               	.LBB2831:
 3755               	.LBB2832:
 3756               	.LBB2833:
 3757               	.LM462:
 3758 08f4 F801      		movw r30,r16
 3759               	.LVL280:
 3760               	/* #APP */
 3761               	 ;  105 "c:/winavr-20100110/lib/gcc/../../avr/include/util/delay_basic.h" 1
 3762 08f6 3197      		1: sbiw r30,1
 3763 08f8 01F4      		brne 1b
 3764               	 ;  0 "" 2
 3765               	/* #NOAPP */
 3766               	.LBE2833:
 3767               	.LBE2832:
 3768               	.LM463:
 3769 08fa 0197      		sbiw r24,1
 3770               	.LM464:
 3771 08fc 01F4      		brne .L159
 3772               	.L117:
 3773               	.LBE2831:
 3774               	.LBE2830:
 3775               	.LM465:
 3776 08fe C701      		movw r24,r14
 3777 0900 B601      		movw r22,r12
 3778 0902 20E0      		ldi r18,lo8(0x41200000)
 3779 0904 30E0      		ldi r19,hi8(0x41200000)
 3780 0906 40E2      		ldi r20,hlo8(0x41200000)
 3781 0908 51E4      		ldi r21,hhi8(0x41200000)
 3782 090a 0E94 0000 		call __gesf2
 3783               	.LVL281:
 3784 090e 8823      		tst r24
 3785 0910 04F4      		brge .+2
 3786 0912 00C0      		rjmp .L160
 3787 0914 C701      		movw r24,r14
 3788 0916 B601      		movw r22,r12
 3789 0918 20E0      		ldi r18,lo8(0x41300000)
 3790 091a 30E0      		ldi r19,hi8(0x41300000)
 3791 091c 40E3      		ldi r20,hlo8(0x41300000)
 3792 091e 51E4      		ldi r21,hhi8(0x41300000)
 3793 0920 0E94 0000 		call __ltsf2
 3794 0924 8823      		tst r24
 3795 0926 04F0      		brlt .+2
 3796 0928 00C0      		rjmp .L160
 3797               	.LM466:
 3798 092a 38BA      		out 56-32,r3
 3799 092c 80E1      		ldi r24,lo8(10000)
 3800 092e 97E2      		ldi r25,hi8(10000)
 3801               	.LVL282:
 3802               	.L163:
 3803               	.LBB2834:
 3804               	.LBB2835:
 3805               	.LBB2836:
 3806               	.LBB2837:
 3807               	.LM467:
 3808 0930 F801      		movw r30,r16
 3809               	.LVL283:
 3810               	/* #APP */
 3811               	 ;  105 "c:/winavr-20100110/lib/gcc/../../avr/include/util/delay_basic.h" 1
 3812 0932 3197      		1: sbiw r30,1
 3813 0934 01F4      		brne 1b
 3814               	 ;  0 "" 2
 3815               	/* #NOAPP */
 3816               	.LBE2837:
 3817               	.LBE2836:
 3818               	.LM468:
 3819 0936 0197      		sbiw r24,1
 3820               	.LM469:
 3821 0938 01F4      		brne .L163
 3822 093a 80E1      		ldi r24,lo8(10000)
 3823 093c 97E2      		ldi r25,hi8(10000)
 3824               	.LVL284:
 3825               	.L164:
 3826               	.LBE2835:
 3827               	.LBE2834:
 3828               	.LBB2838:
 3829               	.LBB2839:
 3830               	.LBB2840:
 3831               	.LBB2841:
 3832               	.LM470:
 3833 093e F801      		movw r30,r16
 3834               	.LVL285:
 3835               	/* #APP */
 3836               	 ;  105 "c:/winavr-20100110/lib/gcc/../../avr/include/util/delay_basic.h" 1
 3837 0940 3197      		1: sbiw r30,1
 3838 0942 01F4      		brne 1b
 3839               	 ;  0 "" 2
 3840               	/* #NOAPP */
 3841               	.LBE2841:
 3842               	.LBE2840:
 3843               	.LM471:
 3844 0944 0197      		sbiw r24,1
 3845               	.LM472:
 3846 0946 01F4      		brne .L164
 3847 0948 80E1      		ldi r24,lo8(10000)
 3848 094a 97E2      		ldi r25,hi8(10000)
 3849               	.LVL286:
 3850               	.L165:
 3851               	.LBE2839:
 3852               	.LBE2838:
 3853               	.LBB2842:
 3854               	.LBB2843:
 3855               	.LBB2844:
 3856               	.LBB2845:
 3857               	.LM473:
 3858 094c F801      		movw r30,r16
 3859               	.LVL287:
 3860               	/* #APP */
 3861               	 ;  105 "c:/winavr-20100110/lib/gcc/../../avr/include/util/delay_basic.h" 1
 3862 094e 3197      		1: sbiw r30,1
 3863 0950 01F4      		brne 1b
 3864               	 ;  0 "" 2
 3865               	/* #NOAPP */
 3866               	.LBE2845:
 3867               	.LBE2844:
 3868               	.LM474:
 3869 0952 0197      		sbiw r24,1
 3870               	.LM475:
 3871 0954 01F4      		brne .L165
 3872 0956 80E1      		ldi r24,lo8(10000)
 3873 0958 97E2      		ldi r25,hi8(10000)
 3874               	.LVL288:
 3875               	.L166:
 3876               	.LBE2843:
 3877               	.LBE2842:
 3878               	.LBB2846:
 3879               	.LBB2847:
 3880               	.LBB2848:
 3881               	.LBB2849:
 3882               	.LM476:
 3883 095a F801      		movw r30,r16
 3884               	.LVL289:
 3885               	/* #APP */
 3886               	 ;  105 "c:/winavr-20100110/lib/gcc/../../avr/include/util/delay_basic.h" 1
 3887 095c 3197      		1: sbiw r30,1
 3888 095e 01F4      		brne 1b
 3889               	 ;  0 "" 2
 3890               	/* #NOAPP */
 3891               	.LBE2849:
 3892               	.LBE2848:
 3893               	.LM477:
 3894 0960 0197      		sbiw r24,1
 3895               	.LM478:
 3896 0962 01F4      		brne .L166
 3897 0964 80E1      		ldi r24,lo8(10000)
 3898 0966 97E2      		ldi r25,hi8(10000)
 3899               	.LVL290:
 3900               	.L167:
 3901               	.LBE2847:
 3902               	.LBE2846:
 3903               	.LBB2850:
 3904               	.LBB2851:
 3905               	.LBB2852:
 3906               	.LBB2853:
 3907               	.LM479:
 3908 0968 F801      		movw r30,r16
 3909               	.LVL291:
 3910               	/* #APP */
 3911               	 ;  105 "c:/winavr-20100110/lib/gcc/../../avr/include/util/delay_basic.h" 1
 3912 096a 3197      		1: sbiw r30,1
 3913 096c 01F4      		brne 1b
 3914               	 ;  0 "" 2
 3915               	/* #NOAPP */
 3916               	.LBE2853:
 3917               	.LBE2852:
 3918               	.LM480:
 3919 096e 0197      		sbiw r24,1
 3920               	.LM481:
 3921 0970 01F4      		brne .L167
 3922 0972 80E1      		ldi r24,lo8(10000)
 3923 0974 97E2      		ldi r25,hi8(10000)
 3924               	.LVL292:
 3925               	.L168:
 3926               	.LBE2851:
 3927               	.LBE2850:
 3928               	.LBB2854:
 3929               	.LBB2855:
 3930               	.LBB2856:
 3931               	.LBB2857:
 3932               	.LM482:
 3933 0976 F801      		movw r30,r16
 3934               	.LVL293:
 3935               	/* #APP */
 3936               	 ;  105 "c:/winavr-20100110/lib/gcc/../../avr/include/util/delay_basic.h" 1
 3937 0978 3197      		1: sbiw r30,1
 3938 097a 01F4      		brne 1b
 3939               	 ;  0 "" 2
 3940               	/* #NOAPP */
 3941               	.LBE2857:
 3942               	.LBE2856:
 3943               	.LM483:
 3944 097c 0197      		sbiw r24,1
 3945               	.LM484:
 3946 097e 01F4      		brne .L168
 3947 0980 80E1      		ldi r24,lo8(10000)
 3948 0982 97E2      		ldi r25,hi8(10000)
 3949               	.LVL294:
 3950               	.L169:
 3951               	.LBE2855:
 3952               	.LBE2854:
 3953               	.LBB2858:
 3954               	.LBB2859:
 3955               	.LBB2860:
 3956               	.LBB2861:
 3957               	.LM485:
 3958 0984 F801      		movw r30,r16
 3959               	.LVL295:
 3960               	/* #APP */
 3961               	 ;  105 "c:/winavr-20100110/lib/gcc/../../avr/include/util/delay_basic.h" 1
 3962 0986 3197      		1: sbiw r30,1
 3963 0988 01F4      		brne 1b
 3964               	 ;  0 "" 2
 3965               	/* #NOAPP */
 3966               	.LBE2861:
 3967               	.LBE2860:
 3968               	.LM486:
 3969 098a 0197      		sbiw r24,1
 3970               	.LM487:
 3971 098c 01F4      		brne .L169
 3972 098e 80E1      		ldi r24,lo8(10000)
 3973 0990 97E2      		ldi r25,hi8(10000)
 3974               	.LVL296:
 3975               	.L170:
 3976               	.LBE2859:
 3977               	.LBE2858:
 3978               	.LBB2862:
 3979               	.LBB2863:
 3980               	.LBB2864:
 3981               	.LBB2865:
 3982               	.LM488:
 3983 0992 F801      		movw r30,r16
 3984               	.LVL297:
 3985               	/* #APP */
 3986               	 ;  105 "c:/winavr-20100110/lib/gcc/../../avr/include/util/delay_basic.h" 1
 3987 0994 3197      		1: sbiw r30,1
 3988 0996 01F4      		brne 1b
 3989               	 ;  0 "" 2
 3990               	/* #NOAPP */
 3991               	.LBE2865:
 3992               	.LBE2864:
 3993               	.LM489:
 3994 0998 0197      		sbiw r24,1
 3995               	.LM490:
 3996 099a 01F4      		brne .L170
 3997 099c 80E1      		ldi r24,lo8(10000)
 3998 099e 97E2      		ldi r25,hi8(10000)
 3999               	.LVL298:
 4000               	.L171:
 4001               	.LBE2863:
 4002               	.LBE2862:
 4003               	.LBB2866:
 4004               	.LBB2867:
 4005               	.LBB2868:
 4006               	.LBB2869:
 4007               	.LM491:
 4008 09a0 F801      		movw r30,r16
 4009               	.LVL299:
 4010               	/* #APP */
 4011               	 ;  105 "c:/winavr-20100110/lib/gcc/../../avr/include/util/delay_basic.h" 1
 4012 09a2 3197      		1: sbiw r30,1
 4013 09a4 01F4      		brne 1b
 4014               	 ;  0 "" 2
 4015               	/* #NOAPP */
 4016               	.LBE2869:
 4017               	.LBE2868:
 4018               	.LM492:
 4019 09a6 0197      		sbiw r24,1
 4020               	.LM493:
 4021 09a8 01F4      		brne .L171
 4022 09aa 80E1      		ldi r24,lo8(10000)
 4023 09ac 97E2      		ldi r25,hi8(10000)
 4024               	.LVL300:
 4025               	.L172:
 4026               	.LBE2867:
 4027               	.LBE2866:
 4028               	.LBB2870:
 4029               	.LBB2871:
 4030               	.LBB2872:
 4031               	.LBB2873:
 4032               	.LM494:
 4033 09ae F801      		movw r30,r16
 4034               	.LVL301:
 4035               	/* #APP */
 4036               	 ;  105 "c:/winavr-20100110/lib/gcc/../../avr/include/util/delay_basic.h" 1
 4037 09b0 3197      		1: sbiw r30,1
 4038 09b2 01F4      		brne 1b
 4039               	 ;  0 "" 2
 4040               	/* #NOAPP */
 4041               	.LBE2873:
 4042               	.LBE2872:
 4043               	.LM495:
 4044 09b4 0197      		sbiw r24,1
 4045               	.LM496:
 4046 09b6 01F4      		brne .L172
 4047 09b8 80E1      		ldi r24,lo8(10000)
 4048 09ba 97E2      		ldi r25,hi8(10000)
 4049               	.LVL302:
 4050               	.L173:
 4051               	.LBE2871:
 4052               	.LBE2870:
 4053               	.LBB2874:
 4054               	.LBB2875:
 4055               	.LBB2876:
 4056               	.LBB2877:
 4057               	.LM497:
 4058 09bc F801      		movw r30,r16
 4059               	.LVL303:
 4060               	/* #APP */
 4061               	 ;  105 "c:/winavr-20100110/lib/gcc/../../avr/include/util/delay_basic.h" 1
 4062 09be 3197      		1: sbiw r30,1
 4063 09c0 01F4      		brne 1b
 4064               	 ;  0 "" 2
 4065               	/* #NOAPP */
 4066               	.LBE2877:
 4067               	.LBE2876:
 4068               	.LM498:
 4069 09c2 0197      		sbiw r24,1
 4070               	.LM499:
 4071 09c4 01F4      		brne .L173
 4072 09c6 80E1      		ldi r24,lo8(10000)
 4073 09c8 97E2      		ldi r25,hi8(10000)
 4074               	.LVL304:
 4075               	.L174:
 4076               	.LBE2875:
 4077               	.LBE2874:
 4078               	.LBB2878:
 4079               	.LBB2879:
 4080               	.LBB2880:
 4081               	.LBB2881:
 4082               	.LM500:
 4083 09ca F801      		movw r30,r16
 4084               	.LVL305:
 4085               	/* #APP */
 4086               	 ;  105 "c:/winavr-20100110/lib/gcc/../../avr/include/util/delay_basic.h" 1
 4087 09cc 3197      		1: sbiw r30,1
 4088 09ce 01F4      		brne 1b
 4089               	 ;  0 "" 2
 4090               	/* #NOAPP */
 4091               	.LBE2881:
 4092               	.LBE2880:
 4093               	.LM501:
 4094 09d0 0197      		sbiw r24,1
 4095               	.LM502:
 4096 09d2 01F4      		brne .L174
 4097 09d4 80E1      		ldi r24,lo8(10000)
 4098 09d6 97E2      		ldi r25,hi8(10000)
 4099               	.LVL306:
 4100               	.L175:
 4101               	.LBE2879:
 4102               	.LBE2878:
 4103               	.LBB2882:
 4104               	.LBB2883:
 4105               	.LBB2884:
 4106               	.LBB2885:
 4107               	.LM503:
 4108 09d8 F801      		movw r30,r16
 4109               	.LVL307:
 4110               	/* #APP */
 4111               	 ;  105 "c:/winavr-20100110/lib/gcc/../../avr/include/util/delay_basic.h" 1
 4112 09da 3197      		1: sbiw r30,1
 4113 09dc 01F4      		brne 1b
 4114               	 ;  0 "" 2
 4115               	/* #NOAPP */
 4116               	.LBE2885:
 4117               	.LBE2884:
 4118               	.LM504:
 4119 09de 0197      		sbiw r24,1
 4120               	.LM505:
 4121 09e0 01F4      		brne .L175
 4122 09e2 80E1      		ldi r24,lo8(10000)
 4123 09e4 97E2      		ldi r25,hi8(10000)
 4124               	.LVL308:
 4125               	.L176:
 4126               	.LBE2883:
 4127               	.LBE2882:
 4128               	.LBB2886:
 4129               	.LBB2887:
 4130               	.LBB2888:
 4131               	.LBB2889:
 4132               	.LM506:
 4133 09e6 F801      		movw r30,r16
 4134               	.LVL309:
 4135               	/* #APP */
 4136               	 ;  105 "c:/winavr-20100110/lib/gcc/../../avr/include/util/delay_basic.h" 1
 4137 09e8 3197      		1: sbiw r30,1
 4138 09ea 01F4      		brne 1b
 4139               	 ;  0 "" 2
 4140               	/* #NOAPP */
 4141               	.LBE2889:
 4142               	.LBE2888:
 4143               	.LM507:
 4144 09ec 0197      		sbiw r24,1
 4145               	.LM508:
 4146 09ee 01F4      		brne .L176
 4147 09f0 80E1      		ldi r24,lo8(10000)
 4148 09f2 97E2      		ldi r25,hi8(10000)
 4149               	.LVL310:
 4150               	.L177:
 4151               	.LBE2887:
 4152               	.LBE2886:
 4153               	.LBB2890:
 4154               	.LBB2891:
 4155               	.LBB2892:
 4156               	.LBB2893:
 4157               	.LM509:
 4158 09f4 F801      		movw r30,r16
 4159               	.LVL311:
 4160               	/* #APP */
 4161               	 ;  105 "c:/winavr-20100110/lib/gcc/../../avr/include/util/delay_basic.h" 1
 4162 09f6 3197      		1: sbiw r30,1
 4163 09f8 01F4      		brne 1b
 4164               	 ;  0 "" 2
 4165               	/* #NOAPP */
 4166               	.LBE2893:
 4167               	.LBE2892:
 4168               	.LM510:
 4169 09fa 0197      		sbiw r24,1
 4170               	.LM511:
 4171 09fc 01F4      		brne .L177
 4172 09fe 80E1      		ldi r24,lo8(10000)
 4173 0a00 97E2      		ldi r25,hi8(10000)
 4174               	.LVL312:
 4175               	.L178:
 4176               	.LBE2891:
 4177               	.LBE2890:
 4178               	.LBB2894:
 4179               	.LBB2895:
 4180               	.LBB2896:
 4181               	.LBB2897:
 4182               	.LM512:
 4183 0a02 F801      		movw r30,r16
 4184               	.LVL313:
 4185               	/* #APP */
 4186               	 ;  105 "c:/winavr-20100110/lib/gcc/../../avr/include/util/delay_basic.h" 1
 4187 0a04 3197      		1: sbiw r30,1
 4188 0a06 01F4      		brne 1b
 4189               	 ;  0 "" 2
 4190               	/* #NOAPP */
 4191               	.LBE2897:
 4192               	.LBE2896:
 4193               	.LM513:
 4194 0a08 0197      		sbiw r24,1
 4195               	.LM514:
 4196 0a0a 01F4      		brne .L178
 4197 0a0c 80E1      		ldi r24,lo8(10000)
 4198 0a0e 97E2      		ldi r25,hi8(10000)
 4199               	.LVL314:
 4200               	.L179:
 4201               	.LBE2895:
 4202               	.LBE2894:
 4203               	.LBB2898:
 4204               	.LBB2899:
 4205               	.LBB2900:
 4206               	.LBB2901:
 4207               	.LM515:
 4208 0a10 F801      		movw r30,r16
 4209               	.LVL315:
 4210               	/* #APP */
 4211               	 ;  105 "c:/winavr-20100110/lib/gcc/../../avr/include/util/delay_basic.h" 1
 4212 0a12 3197      		1: sbiw r30,1
 4213 0a14 01F4      		brne 1b
 4214               	 ;  0 "" 2
 4215               	/* #NOAPP */
 4216               	.LBE2901:
 4217               	.LBE2900:
 4218               	.LM516:
 4219 0a16 0197      		sbiw r24,1
 4220               	.LM517:
 4221 0a18 01F4      		brne .L179
 4222 0a1a 80E1      		ldi r24,lo8(10000)
 4223 0a1c 97E2      		ldi r25,hi8(10000)
 4224               	.LVL316:
 4225               	.L180:
 4226               	.LBE2899:
 4227               	.LBE2898:
 4228               	.LBB2902:
 4229               	.LBB2903:
 4230               	.LBB2904:
 4231               	.LBB2905:
 4232               	.LM518:
 4233 0a1e F801      		movw r30,r16
 4234               	.LVL317:
 4235               	/* #APP */
 4236               	 ;  105 "c:/winavr-20100110/lib/gcc/../../avr/include/util/delay_basic.h" 1
 4237 0a20 3197      		1: sbiw r30,1
 4238 0a22 01F4      		brne 1b
 4239               	 ;  0 "" 2
 4240               	/* #NOAPP */
 4241               	.LBE2905:
 4242               	.LBE2904:
 4243               	.LM519:
 4244 0a24 0197      		sbiw r24,1
 4245               	.LM520:
 4246 0a26 01F4      		brne .L180
 4247 0a28 80E1      		ldi r24,lo8(10000)
 4248 0a2a 97E2      		ldi r25,hi8(10000)
 4249               	.LVL318:
 4250               	.L181:
 4251               	.LBE2903:
 4252               	.LBE2902:
 4253               	.LBB2906:
 4254               	.LBB2907:
 4255               	.LBB2908:
 4256               	.LBB2909:
 4257               	.LM521:
 4258 0a2c F801      		movw r30,r16
 4259               	.LVL319:
 4260               	/* #APP */
 4261               	 ;  105 "c:/winavr-20100110/lib/gcc/../../avr/include/util/delay_basic.h" 1
 4262 0a2e 3197      		1: sbiw r30,1
 4263 0a30 01F4      		brne 1b
 4264               	 ;  0 "" 2
 4265               	/* #NOAPP */
 4266               	.LBE2909:
 4267               	.LBE2908:
 4268               	.LM522:
 4269 0a32 0197      		sbiw r24,1
 4270               	.LM523:
 4271 0a34 01F4      		brne .L181
 4272 0a36 80E1      		ldi r24,lo8(10000)
 4273 0a38 97E2      		ldi r25,hi8(10000)
 4274               	.LVL320:
 4275               	.L182:
 4276               	.LBE2907:
 4277               	.LBE2906:
 4278               	.LBB2910:
 4279               	.LBB2911:
 4280               	.LBB2912:
 4281               	.LBB2913:
 4282               	.LM524:
 4283 0a3a F801      		movw r30,r16
 4284               	.LVL321:
 4285               	/* #APP */
 4286               	 ;  105 "c:/winavr-20100110/lib/gcc/../../avr/include/util/delay_basic.h" 1
 4287 0a3c 3197      		1: sbiw r30,1
 4288 0a3e 01F4      		brne 1b
 4289               	 ;  0 "" 2
 4290               	/* #NOAPP */
 4291               	.LBE2913:
 4292               	.LBE2912:
 4293               	.LM525:
 4294 0a40 0197      		sbiw r24,1
 4295               	.LM526:
 4296 0a42 01F4      		brne .L182
 4297 0a44 80E1      		ldi r24,lo8(10000)
 4298 0a46 97E2      		ldi r25,hi8(10000)
 4299               	.LVL322:
 4300               	.L183:
 4301               	.LBE2911:
 4302               	.LBE2910:
 4303               	.LBB2914:
 4304               	.LBB2915:
 4305               	.LBB2916:
 4306               	.LBB2917:
 4307               	.LM527:
 4308 0a48 F801      		movw r30,r16
 4309               	.LVL323:
 4310               	/* #APP */
 4311               	 ;  105 "c:/winavr-20100110/lib/gcc/../../avr/include/util/delay_basic.h" 1
 4312 0a4a 3197      		1: sbiw r30,1
 4313 0a4c 01F4      		brne 1b
 4314               	 ;  0 "" 2
 4315               	/* #NOAPP */
 4316               	.LBE2917:
 4317               	.LBE2916:
 4318               	.LM528:
 4319 0a4e 0197      		sbiw r24,1
 4320               	.LM529:
 4321 0a50 01F4      		brne .L183
 4322 0a52 80E1      		ldi r24,lo8(10000)
 4323 0a54 97E2      		ldi r25,hi8(10000)
 4324               	.LVL324:
 4325               	.L184:
 4326               	.LBE2915:
 4327               	.LBE2914:
 4328               	.LBB2918:
 4329               	.LBB2919:
 4330               	.LBB2920:
 4331               	.LBB2921:
 4332               	.LM530:
 4333 0a56 F801      		movw r30,r16
 4334               	.LVL325:
 4335               	/* #APP */
 4336               	 ;  105 "c:/winavr-20100110/lib/gcc/../../avr/include/util/delay_basic.h" 1
 4337 0a58 3197      		1: sbiw r30,1
 4338 0a5a 01F4      		brne 1b
 4339               	 ;  0 "" 2
 4340               	/* #NOAPP */
 4341               	.LBE2921:
 4342               	.LBE2920:
 4343               	.LM531:
 4344 0a5c 0197      		sbiw r24,1
 4345               	.LM532:
 4346 0a5e 01F4      		brne .L184
 4347 0a60 80E1      		ldi r24,lo8(10000)
 4348 0a62 97E2      		ldi r25,hi8(10000)
 4349               	.LVL326:
 4350               	.L185:
 4351               	.LBE2919:
 4352               	.LBE2918:
 4353               	.LBB2922:
 4354               	.LBB2923:
 4355               	.LBB2924:
 4356               	.LBB2925:
 4357               	.LM533:
 4358 0a64 F801      		movw r30,r16
 4359               	.LVL327:
 4360               	/* #APP */
 4361               	 ;  105 "c:/winavr-20100110/lib/gcc/../../avr/include/util/delay_basic.h" 1
 4362 0a66 3197      		1: sbiw r30,1
 4363 0a68 01F4      		brne 1b
 4364               	 ;  0 "" 2
 4365               	/* #NOAPP */
 4366               	.LBE2925:
 4367               	.LBE2924:
 4368               	.LM534:
 4369 0a6a 0197      		sbiw r24,1
 4370               	.LM535:
 4371 0a6c 01F4      		brne .L185
 4372 0a6e 80E1      		ldi r24,lo8(10000)
 4373 0a70 97E2      		ldi r25,hi8(10000)
 4374               	.LVL328:
 4375               	.L186:
 4376               	.LBE2923:
 4377               	.LBE2922:
 4378               	.LBB2926:
 4379               	.LBB2927:
 4380               	.LBB2928:
 4381               	.LBB2929:
 4382               	.LM536:
 4383 0a72 F801      		movw r30,r16
 4384               	.LVL329:
 4385               	/* #APP */
 4386               	 ;  105 "c:/winavr-20100110/lib/gcc/../../avr/include/util/delay_basic.h" 1
 4387 0a74 3197      		1: sbiw r30,1
 4388 0a76 01F4      		brne 1b
 4389               	 ;  0 "" 2
 4390               	/* #NOAPP */
 4391               	.LBE2929:
 4392               	.LBE2928:
 4393               	.LM537:
 4394 0a78 0197      		sbiw r24,1
 4395               	.LM538:
 4396 0a7a 01F4      		brne .L186
 4397 0a7c 80E1      		ldi r24,lo8(10000)
 4398 0a7e 97E2      		ldi r25,hi8(10000)
 4399               	.LVL330:
 4400               	.L187:
 4401               	.LBE2927:
 4402               	.LBE2926:
 4403               	.LBB2930:
 4404               	.LBB2931:
 4405               	.LBB2932:
 4406               	.LBB2933:
 4407               	.LM539:
 4408 0a80 F801      		movw r30,r16
 4409               	.LVL331:
 4410               	/* #APP */
 4411               	 ;  105 "c:/winavr-20100110/lib/gcc/../../avr/include/util/delay_basic.h" 1
 4412 0a82 3197      		1: sbiw r30,1
 4413 0a84 01F4      		brne 1b
 4414               	 ;  0 "" 2
 4415               	/* #NOAPP */
 4416               	.LBE2933:
 4417               	.LBE2932:
 4418               	.LM540:
 4419 0a86 0197      		sbiw r24,1
 4420               	.LM541:
 4421 0a88 01F4      		brne .L187
 4422 0a8a 80E1      		ldi r24,lo8(10000)
 4423 0a8c 97E2      		ldi r25,hi8(10000)
 4424               	.LVL332:
 4425               	.L188:
 4426               	.LBE2931:
 4427               	.LBE2930:
 4428               	.LBB2934:
 4429               	.LBB2935:
 4430               	.LBB2936:
 4431               	.LBB2937:
 4432               	.LM542:
 4433 0a8e F801      		movw r30,r16
 4434               	.LVL333:
 4435               	/* #APP */
 4436               	 ;  105 "c:/winavr-20100110/lib/gcc/../../avr/include/util/delay_basic.h" 1
 4437 0a90 3197      		1: sbiw r30,1
 4438 0a92 01F4      		brne 1b
 4439               	 ;  0 "" 2
 4440               	/* #NOAPP */
 4441               	.LBE2937:
 4442               	.LBE2936:
 4443               	.LM543:
 4444 0a94 0197      		sbiw r24,1
 4445               	.LM544:
 4446 0a96 01F4      		brne .L188
 4447 0a98 80E1      		ldi r24,lo8(10000)
 4448 0a9a 97E2      		ldi r25,hi8(10000)
 4449               	.LVL334:
 4450               	.L189:
 4451               	.LBE2935:
 4452               	.LBE2934:
 4453               	.LBB2938:
 4454               	.LBB2939:
 4455               	.LBB2940:
 4456               	.LBB2941:
 4457               	.LM545:
 4458 0a9c F801      		movw r30,r16
 4459               	.LVL335:
 4460               	/* #APP */
 4461               	 ;  105 "c:/winavr-20100110/lib/gcc/../../avr/include/util/delay_basic.h" 1
 4462 0a9e 3197      		1: sbiw r30,1
 4463 0aa0 01F4      		brne 1b
 4464               	 ;  0 "" 2
 4465               	/* #NOAPP */
 4466               	.LBE2941:
 4467               	.LBE2940:
 4468               	.LM546:
 4469 0aa2 0197      		sbiw r24,1
 4470               	.LM547:
 4471 0aa4 01F4      		brne .L189
 4472 0aa6 80E1      		ldi r24,lo8(10000)
 4473 0aa8 97E2      		ldi r25,hi8(10000)
 4474               	.LVL336:
 4475               	.L190:
 4476               	.LBE2939:
 4477               	.LBE2938:
 4478               	.LBB2942:
 4479               	.LBB2943:
 4480               	.LBB2944:
 4481               	.LBB2945:
 4482               	.LM548:
 4483 0aaa F801      		movw r30,r16
 4484               	.LVL337:
 4485               	/* #APP */
 4486               	 ;  105 "c:/winavr-20100110/lib/gcc/../../avr/include/util/delay_basic.h" 1
 4487 0aac 3197      		1: sbiw r30,1
 4488 0aae 01F4      		brne 1b
 4489               	 ;  0 "" 2
 4490               	/* #NOAPP */
 4491               	.LBE2945:
 4492               	.LBE2944:
 4493               	.LM549:
 4494 0ab0 0197      		sbiw r24,1
 4495               	.LM550:
 4496 0ab2 01F4      		brne .L190
 4497 0ab4 80E1      		ldi r24,lo8(10000)
 4498 0ab6 97E2      		ldi r25,hi8(10000)
 4499               	.LVL338:
 4500               	.L191:
 4501               	.LBE2943:
 4502               	.LBE2942:
 4503               	.LBB2946:
 4504               	.LBB2947:
 4505               	.LBB2948:
 4506               	.LBB2949:
 4507               	.LM551:
 4508 0ab8 F801      		movw r30,r16
 4509               	.LVL339:
 4510               	/* #APP */
 4511               	 ;  105 "c:/winavr-20100110/lib/gcc/../../avr/include/util/delay_basic.h" 1
 4512 0aba 3197      		1: sbiw r30,1
 4513 0abc 01F4      		brne 1b
 4514               	 ;  0 "" 2
 4515               	/* #NOAPP */
 4516               	.LBE2949:
 4517               	.LBE2948:
 4518               	.LM552:
 4519 0abe 0197      		sbiw r24,1
 4520               	.LM553:
 4521 0ac0 01F4      		brne .L191
 4522 0ac2 80E1      		ldi r24,lo8(10000)
 4523 0ac4 97E2      		ldi r25,hi8(10000)
 4524               	.LVL340:
 4525               	.L192:
 4526               	.LBE2947:
 4527               	.LBE2946:
 4528               	.LBB2950:
 4529               	.LBB2951:
 4530               	.LBB2952:
 4531               	.LBB2953:
 4532               	.LM554:
 4533 0ac6 F801      		movw r30,r16
 4534               	.LVL341:
 4535               	/* #APP */
 4536               	 ;  105 "c:/winavr-20100110/lib/gcc/../../avr/include/util/delay_basic.h" 1
 4537 0ac8 3197      		1: sbiw r30,1
 4538 0aca 01F4      		brne 1b
 4539               	 ;  0 "" 2
 4540               	/* #NOAPP */
 4541               	.LBE2953:
 4542               	.LBE2952:
 4543               	.LM555:
 4544 0acc 0197      		sbiw r24,1
 4545               	.LM556:
 4546 0ace 01F4      		brne .L192
 4547 0ad0 80E1      		ldi r24,lo8(10000)
 4548 0ad2 97E2      		ldi r25,hi8(10000)
 4549               	.LVL342:
 4550               	.L193:
 4551               	.LBE2951:
 4552               	.LBE2950:
 4553               	.LBB2954:
 4554               	.LBB2955:
 4555               	.LBB2956:
 4556               	.LBB2957:
 4557               	.LM557:
 4558 0ad4 F801      		movw r30,r16
 4559               	.LVL343:
 4560               	/* #APP */
 4561               	 ;  105 "c:/winavr-20100110/lib/gcc/../../avr/include/util/delay_basic.h" 1
 4562 0ad6 3197      		1: sbiw r30,1
 4563 0ad8 01F4      		brne 1b
 4564               	 ;  0 "" 2
 4565               	/* #NOAPP */
 4566               	.LBE2957:
 4567               	.LBE2956:
 4568               	.LM558:
 4569 0ada 0197      		sbiw r24,1
 4570               	.LM559:
 4571 0adc 01F4      		brne .L193
 4572 0ade 80E1      		ldi r24,lo8(10000)
 4573 0ae0 97E2      		ldi r25,hi8(10000)
 4574               	.LVL344:
 4575               	.L194:
 4576               	.LBE2955:
 4577               	.LBE2954:
 4578               	.LBB2958:
 4579               	.LBB2959:
 4580               	.LBB2960:
 4581               	.LBB2961:
 4582               	.LM560:
 4583 0ae2 F801      		movw r30,r16
 4584               	.LVL345:
 4585               	/* #APP */
 4586               	 ;  105 "c:/winavr-20100110/lib/gcc/../../avr/include/util/delay_basic.h" 1
 4587 0ae4 3197      		1: sbiw r30,1
 4588 0ae6 01F4      		brne 1b
 4589               	 ;  0 "" 2
 4590               	/* #NOAPP */
 4591               	.LBE2961:
 4592               	.LBE2960:
 4593               	.LM561:
 4594 0ae8 0197      		sbiw r24,1
 4595               	.LM562:
 4596 0aea 01F4      		brne .L194
 4597 0aec 80E1      		ldi r24,lo8(10000)
 4598 0aee 97E2      		ldi r25,hi8(10000)
 4599               	.LVL346:
 4600               	.L195:
 4601               	.LBE2959:
 4602               	.LBE2958:
 4603               	.LBB2962:
 4604               	.LBB2963:
 4605               	.LBB2964:
 4606               	.LBB2965:
 4607               	.LM563:
 4608 0af0 F801      		movw r30,r16
 4609               	.LVL347:
 4610               	/* #APP */
 4611               	 ;  105 "c:/winavr-20100110/lib/gcc/../../avr/include/util/delay_basic.h" 1
 4612 0af2 3197      		1: sbiw r30,1
 4613 0af4 01F4      		brne 1b
 4614               	 ;  0 "" 2
 4615               	/* #NOAPP */
 4616               	.LBE2965:
 4617               	.LBE2964:
 4618               	.LM564:
 4619 0af6 0197      		sbiw r24,1
 4620               	.LM565:
 4621 0af8 01F4      		brne .L195
 4622 0afa 80E1      		ldi r24,lo8(10000)
 4623 0afc 97E2      		ldi r25,hi8(10000)
 4624               	.LVL348:
 4625               	.L196:
 4626               	.LBE2963:
 4627               	.LBE2962:
 4628               	.LBB2966:
 4629               	.LBB2967:
 4630               	.LBB2968:
 4631               	.LBB2969:
 4632               	.LM566:
 4633 0afe F801      		movw r30,r16
 4634               	.LVL349:
 4635               	/* #APP */
 4636               	 ;  105 "c:/winavr-20100110/lib/gcc/../../avr/include/util/delay_basic.h" 1
 4637 0b00 3197      		1: sbiw r30,1
 4638 0b02 01F4      		brne 1b
 4639               	 ;  0 "" 2
 4640               	/* #NOAPP */
 4641               	.LBE2969:
 4642               	.LBE2968:
 4643               	.LM567:
 4644 0b04 0197      		sbiw r24,1
 4645               	.LM568:
 4646 0b06 01F4      		brne .L196
 4647 0b08 80E1      		ldi r24,lo8(10000)
 4648 0b0a 97E2      		ldi r25,hi8(10000)
 4649               	.LVL350:
 4650               	.L197:
 4651               	.LBE2967:
 4652               	.LBE2966:
 4653               	.LBB2970:
 4654               	.LBB2971:
 4655               	.LBB2972:
 4656               	.LBB2973:
 4657               	.LM569:
 4658 0b0c F801      		movw r30,r16
 4659               	.LVL351:
 4660               	/* #APP */
 4661               	 ;  105 "c:/winavr-20100110/lib/gcc/../../avr/include/util/delay_basic.h" 1
 4662 0b0e 3197      		1: sbiw r30,1
 4663 0b10 01F4      		brne 1b
 4664               	 ;  0 "" 2
 4665               	/* #NOAPP */
 4666               	.LBE2973:
 4667               	.LBE2972:
 4668               	.LM570:
 4669 0b12 0197      		sbiw r24,1
 4670               	.LM571:
 4671 0b14 01F4      		brne .L197
 4672 0b16 80E1      		ldi r24,lo8(10000)
 4673 0b18 97E2      		ldi r25,hi8(10000)
 4674               	.LVL352:
 4675               	.L198:
 4676               	.LBE2971:
 4677               	.LBE2970:
 4678               	.LBB2974:
 4679               	.LBB2975:
 4680               	.LBB2976:
 4681               	.LBB2977:
 4682               	.LM572:
 4683 0b1a F801      		movw r30,r16
 4684               	.LVL353:
 4685               	/* #APP */
 4686               	 ;  105 "c:/winavr-20100110/lib/gcc/../../avr/include/util/delay_basic.h" 1
 4687 0b1c 3197      		1: sbiw r30,1
 4688 0b1e 01F4      		brne 1b
 4689               	 ;  0 "" 2
 4690               	/* #NOAPP */
 4691               	.LBE2977:
 4692               	.LBE2976:
 4693               	.LM573:
 4694 0b20 0197      		sbiw r24,1
 4695               	.LM574:
 4696 0b22 01F4      		brne .L198
 4697 0b24 80E1      		ldi r24,lo8(10000)
 4698 0b26 97E2      		ldi r25,hi8(10000)
 4699               	.LVL354:
 4700               	.L199:
 4701               	.LBE2975:
 4702               	.LBE2974:
 4703               	.LBB2978:
 4704               	.LBB2979:
 4705               	.LBB2980:
 4706               	.LBB2981:
 4707               	.LM575:
 4708 0b28 F801      		movw r30,r16
 4709               	.LVL355:
 4710               	/* #APP */
 4711               	 ;  105 "c:/winavr-20100110/lib/gcc/../../avr/include/util/delay_basic.h" 1
 4712 0b2a 3197      		1: sbiw r30,1
 4713 0b2c 01F4      		brne 1b
 4714               	 ;  0 "" 2
 4715               	/* #NOAPP */
 4716               	.LBE2981:
 4717               	.LBE2980:
 4718               	.LM576:
 4719 0b2e 0197      		sbiw r24,1
 4720               	.LM577:
 4721 0b30 01F4      		brne .L199
 4722 0b32 80E1      		ldi r24,lo8(10000)
 4723 0b34 97E2      		ldi r25,hi8(10000)
 4724               	.LVL356:
 4725               	.L200:
 4726               	.LBE2979:
 4727               	.LBE2978:
 4728               	.LBB2982:
 4729               	.LBB2983:
 4730               	.LBB2984:
 4731               	.LBB2985:
 4732               	.LM578:
 4733 0b36 F801      		movw r30,r16
 4734               	.LVL357:
 4735               	/* #APP */
 4736               	 ;  105 "c:/winavr-20100110/lib/gcc/../../avr/include/util/delay_basic.h" 1
 4737 0b38 3197      		1: sbiw r30,1
 4738 0b3a 01F4      		brne 1b
 4739               	 ;  0 "" 2
 4740               	/* #NOAPP */
 4741               	.LBE2985:
 4742               	.LBE2984:
 4743               	.LM579:
 4744 0b3c 0197      		sbiw r24,1
 4745               	.LM580:
 4746 0b3e 01F4      		brne .L200
 4747 0b40 80E1      		ldi r24,lo8(10000)
 4748 0b42 97E2      		ldi r25,hi8(10000)
 4749               	.LVL358:
 4750               	.L201:
 4751               	.LBE2983:
 4752               	.LBE2982:
 4753               	.LBB2986:
 4754               	.LBB2987:
 4755               	.LBB2988:
 4756               	.LBB2989:
 4757               	.LM581:
 4758 0b44 F801      		movw r30,r16
 4759               	.LVL359:
 4760               	/* #APP */
 4761               	 ;  105 "c:/winavr-20100110/lib/gcc/../../avr/include/util/delay_basic.h" 1
 4762 0b46 3197      		1: sbiw r30,1
 4763 0b48 01F4      		brne 1b
 4764               	 ;  0 "" 2
 4765               	/* #NOAPP */
 4766               	.LBE2989:
 4767               	.LBE2988:
 4768               	.LM582:
 4769 0b4a 0197      		sbiw r24,1
 4770               	.LM583:
 4771 0b4c 01F4      		brne .L201
 4772 0b4e 80E1      		ldi r24,lo8(10000)
 4773 0b50 97E2      		ldi r25,hi8(10000)
 4774               	.LVL360:
 4775               	.L202:
 4776               	.LBE2987:
 4777               	.LBE2986:
 4778               	.LBB2990:
 4779               	.LBB2991:
 4780               	.LBB2992:
 4781               	.LBB2993:
 4782               	.LM584:
 4783 0b52 F801      		movw r30,r16
 4784               	.LVL361:
 4785               	/* #APP */
 4786               	 ;  105 "c:/winavr-20100110/lib/gcc/../../avr/include/util/delay_basic.h" 1
 4787 0b54 3197      		1: sbiw r30,1
 4788 0b56 01F4      		brne 1b
 4789               	 ;  0 "" 2
 4790               	/* #NOAPP */
 4791               	.LBE2993:
 4792               	.LBE2992:
 4793               	.LM585:
 4794 0b58 0197      		sbiw r24,1
 4795               	.LM586:
 4796 0b5a 01F4      		brne .L202
 4797               	.L160:
 4798               	.LBE2991:
 4799               	.LBE2990:
 4800               	.LM587:
 4801 0b5c C701      		movw r24,r14
 4802 0b5e B601      		movw r22,r12
 4803 0b60 20E0      		ldi r18,lo8(0x41300000)
 4804 0b62 30E0      		ldi r19,hi8(0x41300000)
 4805 0b64 40E3      		ldi r20,hlo8(0x41300000)
 4806 0b66 51E4      		ldi r21,hhi8(0x41300000)
 4807 0b68 0E94 0000 		call __gesf2
 4808               	.LVL362:
 4809 0b6c 8823      		tst r24
 4810 0b6e 04F4      		brge .+2
 4811 0b70 00C0      		rjmp .L203
 4812 0b72 C701      		movw r24,r14
 4813 0b74 B601      		movw r22,r12
 4814 0b76 20E0      		ldi r18,lo8(0x41400000)
 4815 0b78 30E0      		ldi r19,hi8(0x41400000)
 4816 0b7a 40E4      		ldi r20,hlo8(0x41400000)
 4817 0b7c 51E4      		ldi r21,hhi8(0x41400000)
 4818 0b7e 0E94 0000 		call __ltsf2
 4819 0b82 8823      		tst r24
 4820 0b84 04F0      		brlt .+2
 4821 0b86 00C0      		rjmp .L203
 4822               	.LM588:
 4823 0b88 28BA      		out 56-32,r2
 4824 0b8a 80E1      		ldi r24,lo8(10000)
 4825 0b8c 97E2      		ldi r25,hi8(10000)
 4826               	.LVL363:
 4827               	.L206:
 4828               	.LBB2994:
 4829               	.LBB2995:
 4830               	.LBB2996:
 4831               	.LBB2997:
 4832               	.LM589:
 4833 0b8e F801      		movw r30,r16
 4834               	.LVL364:
 4835               	/* #APP */
 4836               	 ;  105 "c:/winavr-20100110/lib/gcc/../../avr/include/util/delay_basic.h" 1
 4837 0b90 3197      		1: sbiw r30,1
 4838 0b92 01F4      		brne 1b
 4839               	 ;  0 "" 2
 4840               	/* #NOAPP */
 4841               	.LBE2997:
 4842               	.LBE2996:
 4843               	.LM590:
 4844 0b94 0197      		sbiw r24,1
 4845               	.LM591:
 4846 0b96 01F4      		brne .L206
 4847 0b98 80E1      		ldi r24,lo8(10000)
 4848 0b9a 97E2      		ldi r25,hi8(10000)
 4849               	.LVL365:
 4850               	.L207:
 4851               	.LBE2995:
 4852               	.LBE2994:
 4853               	.LBB2998:
 4854               	.LBB2999:
 4855               	.LBB3000:
 4856               	.LBB3001:
 4857               	.LM592:
 4858 0b9c F801      		movw r30,r16
 4859               	.LVL366:
 4860               	/* #APP */
 4861               	 ;  105 "c:/winavr-20100110/lib/gcc/../../avr/include/util/delay_basic.h" 1
 4862 0b9e 3197      		1: sbiw r30,1
 4863 0ba0 01F4      		brne 1b
 4864               	 ;  0 "" 2
 4865               	/* #NOAPP */
 4866               	.LBE3001:
 4867               	.LBE3000:
 4868               	.LM593:
 4869 0ba2 0197      		sbiw r24,1
 4870               	.LM594:
 4871 0ba4 01F4      		brne .L207
 4872 0ba6 80E1      		ldi r24,lo8(10000)
 4873 0ba8 97E2      		ldi r25,hi8(10000)
 4874               	.LVL367:
 4875               	.L208:
 4876               	.LBE2999:
 4877               	.LBE2998:
 4878               	.LBB3002:
 4879               	.LBB3003:
 4880               	.LBB3004:
 4881               	.LBB3005:
 4882               	.LM595:
 4883 0baa F801      		movw r30,r16
 4884               	.LVL368:
 4885               	/* #APP */
 4886               	 ;  105 "c:/winavr-20100110/lib/gcc/../../avr/include/util/delay_basic.h" 1
 4887 0bac 3197      		1: sbiw r30,1
 4888 0bae 01F4      		brne 1b
 4889               	 ;  0 "" 2
 4890               	/* #NOAPP */
 4891               	.LBE3005:
 4892               	.LBE3004:
 4893               	.LM596:
 4894 0bb0 0197      		sbiw r24,1
 4895               	.LM597:
 4896 0bb2 01F4      		brne .L208
 4897 0bb4 80E1      		ldi r24,lo8(10000)
 4898 0bb6 97E2      		ldi r25,hi8(10000)
 4899               	.LVL369:
 4900               	.L209:
 4901               	.LBE3003:
 4902               	.LBE3002:
 4903               	.LBB3006:
 4904               	.LBB3007:
 4905               	.LBB3008:
 4906               	.LBB3009:
 4907               	.LM598:
 4908 0bb8 F801      		movw r30,r16
 4909               	.LVL370:
 4910               	/* #APP */
 4911               	 ;  105 "c:/winavr-20100110/lib/gcc/../../avr/include/util/delay_basic.h" 1
 4912 0bba 3197      		1: sbiw r30,1
 4913 0bbc 01F4      		brne 1b
 4914               	 ;  0 "" 2
 4915               	/* #NOAPP */
 4916               	.LBE3009:
 4917               	.LBE3008:
 4918               	.LM599:
 4919 0bbe 0197      		sbiw r24,1
 4920               	.LM600:
 4921 0bc0 01F4      		brne .L209
 4922 0bc2 80E1      		ldi r24,lo8(10000)
 4923 0bc4 97E2      		ldi r25,hi8(10000)
 4924               	.LVL371:
 4925               	.L210:
 4926               	.LBE3007:
 4927               	.LBE3006:
 4928               	.LBB3010:
 4929               	.LBB3011:
 4930               	.LBB3012:
 4931               	.LBB3013:
 4932               	.LM601:
 4933 0bc6 F801      		movw r30,r16
 4934               	.LVL372:
 4935               	/* #APP */
 4936               	 ;  105 "c:/winavr-20100110/lib/gcc/../../avr/include/util/delay_basic.h" 1
 4937 0bc8 3197      		1: sbiw r30,1
 4938 0bca 01F4      		brne 1b
 4939               	 ;  0 "" 2
 4940               	/* #NOAPP */
 4941               	.LBE3013:
 4942               	.LBE3012:
 4943               	.LM602:
 4944 0bcc 0197      		sbiw r24,1
 4945               	.LM603:
 4946 0bce 01F4      		brne .L210
 4947 0bd0 80E1      		ldi r24,lo8(10000)
 4948 0bd2 97E2      		ldi r25,hi8(10000)
 4949               	.LVL373:
 4950               	.L211:
 4951               	.LBE3011:
 4952               	.LBE3010:
 4953               	.LBB3014:
 4954               	.LBB3015:
 4955               	.LBB3016:
 4956               	.LBB3017:
 4957               	.LM604:
 4958 0bd4 F801      		movw r30,r16
 4959               	.LVL374:
 4960               	/* #APP */
 4961               	 ;  105 "c:/winavr-20100110/lib/gcc/../../avr/include/util/delay_basic.h" 1
 4962 0bd6 3197      		1: sbiw r30,1
 4963 0bd8 01F4      		brne 1b
 4964               	 ;  0 "" 2
 4965               	/* #NOAPP */
 4966               	.LBE3017:
 4967               	.LBE3016:
 4968               	.LM605:
 4969 0bda 0197      		sbiw r24,1
 4970               	.LM606:
 4971 0bdc 01F4      		brne .L211
 4972 0bde 80E1      		ldi r24,lo8(10000)
 4973 0be0 97E2      		ldi r25,hi8(10000)
 4974               	.LVL375:
 4975               	.L212:
 4976               	.LBE3015:
 4977               	.LBE3014:
 4978               	.LBB3018:
 4979               	.LBB3019:
 4980               	.LBB3020:
 4981               	.LBB3021:
 4982               	.LM607:
 4983 0be2 F801      		movw r30,r16
 4984               	.LVL376:
 4985               	/* #APP */
 4986               	 ;  105 "c:/winavr-20100110/lib/gcc/../../avr/include/util/delay_basic.h" 1
 4987 0be4 3197      		1: sbiw r30,1
 4988 0be6 01F4      		brne 1b
 4989               	 ;  0 "" 2
 4990               	/* #NOAPP */
 4991               	.LBE3021:
 4992               	.LBE3020:
 4993               	.LM608:
 4994 0be8 0197      		sbiw r24,1
 4995               	.LM609:
 4996 0bea 01F4      		brne .L212
 4997 0bec 80E1      		ldi r24,lo8(10000)
 4998 0bee 97E2      		ldi r25,hi8(10000)
 4999               	.LVL377:
 5000               	.L213:
 5001               	.LBE3019:
 5002               	.LBE3018:
 5003               	.LBB3022:
 5004               	.LBB3023:
 5005               	.LBB3024:
 5006               	.LBB3025:
 5007               	.LM610:
 5008 0bf0 F801      		movw r30,r16
 5009               	.LVL378:
 5010               	/* #APP */
 5011               	 ;  105 "c:/winavr-20100110/lib/gcc/../../avr/include/util/delay_basic.h" 1
 5012 0bf2 3197      		1: sbiw r30,1
 5013 0bf4 01F4      		brne 1b
 5014               	 ;  0 "" 2
 5015               	/* #NOAPP */
 5016               	.LBE3025:
 5017               	.LBE3024:
 5018               	.LM611:
 5019 0bf6 0197      		sbiw r24,1
 5020               	.LM612:
 5021 0bf8 01F4      		brne .L213
 5022 0bfa 80E1      		ldi r24,lo8(10000)
 5023 0bfc 97E2      		ldi r25,hi8(10000)
 5024               	.LVL379:
 5025               	.L214:
 5026               	.LBE3023:
 5027               	.LBE3022:
 5028               	.LBB3026:
 5029               	.LBB3027:
 5030               	.LBB3028:
 5031               	.LBB3029:
 5032               	.LM613:
 5033 0bfe F801      		movw r30,r16
 5034               	.LVL380:
 5035               	/* #APP */
 5036               	 ;  105 "c:/winavr-20100110/lib/gcc/../../avr/include/util/delay_basic.h" 1
 5037 0c00 3197      		1: sbiw r30,1
 5038 0c02 01F4      		brne 1b
 5039               	 ;  0 "" 2
 5040               	/* #NOAPP */
 5041               	.LBE3029:
 5042               	.LBE3028:
 5043               	.LM614:
 5044 0c04 0197      		sbiw r24,1
 5045               	.LM615:
 5046 0c06 01F4      		brne .L214
 5047 0c08 80E1      		ldi r24,lo8(10000)
 5048 0c0a 97E2      		ldi r25,hi8(10000)
 5049               	.LVL381:
 5050               	.L215:
 5051               	.LBE3027:
 5052               	.LBE3026:
 5053               	.LBB3030:
 5054               	.LBB3031:
 5055               	.LBB3032:
 5056               	.LBB3033:
 5057               	.LM616:
 5058 0c0c F801      		movw r30,r16
 5059               	.LVL382:
 5060               	/* #APP */
 5061               	 ;  105 "c:/winavr-20100110/lib/gcc/../../avr/include/util/delay_basic.h" 1
 5062 0c0e 3197      		1: sbiw r30,1
 5063 0c10 01F4      		brne 1b
 5064               	 ;  0 "" 2
 5065               	/* #NOAPP */
 5066               	.LBE3033:
 5067               	.LBE3032:
 5068               	.LM617:
 5069 0c12 0197      		sbiw r24,1
 5070               	.LM618:
 5071 0c14 01F4      		brne .L215
 5072 0c16 80E1      		ldi r24,lo8(10000)
 5073 0c18 97E2      		ldi r25,hi8(10000)
 5074               	.LVL383:
 5075               	.L216:
 5076               	.LBE3031:
 5077               	.LBE3030:
 5078               	.LBB3034:
 5079               	.LBB3035:
 5080               	.LBB3036:
 5081               	.LBB3037:
 5082               	.LM619:
 5083 0c1a F801      		movw r30,r16
 5084               	.LVL384:
 5085               	/* #APP */
 5086               	 ;  105 "c:/winavr-20100110/lib/gcc/../../avr/include/util/delay_basic.h" 1
 5087 0c1c 3197      		1: sbiw r30,1
 5088 0c1e 01F4      		brne 1b
 5089               	 ;  0 "" 2
 5090               	/* #NOAPP */
 5091               	.LBE3037:
 5092               	.LBE3036:
 5093               	.LM620:
 5094 0c20 0197      		sbiw r24,1
 5095               	.LM621:
 5096 0c22 01F4      		brne .L216
 5097 0c24 80E1      		ldi r24,lo8(10000)
 5098 0c26 97E2      		ldi r25,hi8(10000)
 5099               	.LVL385:
 5100               	.L217:
 5101               	.LBE3035:
 5102               	.LBE3034:
 5103               	.LBB3038:
 5104               	.LBB3039:
 5105               	.LBB3040:
 5106               	.LBB3041:
 5107               	.LM622:
 5108 0c28 F801      		movw r30,r16
 5109               	.LVL386:
 5110               	/* #APP */
 5111               	 ;  105 "c:/winavr-20100110/lib/gcc/../../avr/include/util/delay_basic.h" 1
 5112 0c2a 3197      		1: sbiw r30,1
 5113 0c2c 01F4      		brne 1b
 5114               	 ;  0 "" 2
 5115               	/* #NOAPP */
 5116               	.LBE3041:
 5117               	.LBE3040:
 5118               	.LM623:
 5119 0c2e 0197      		sbiw r24,1
 5120               	.LM624:
 5121 0c30 01F4      		brne .L217
 5122 0c32 80E1      		ldi r24,lo8(10000)
 5123 0c34 97E2      		ldi r25,hi8(10000)
 5124               	.LVL387:
 5125               	.L218:
 5126               	.LBE3039:
 5127               	.LBE3038:
 5128               	.LBB3042:
 5129               	.LBB3043:
 5130               	.LBB3044:
 5131               	.LBB3045:
 5132               	.LM625:
 5133 0c36 F801      		movw r30,r16
 5134               	.LVL388:
 5135               	/* #APP */
 5136               	 ;  105 "c:/winavr-20100110/lib/gcc/../../avr/include/util/delay_basic.h" 1
 5137 0c38 3197      		1: sbiw r30,1
 5138 0c3a 01F4      		brne 1b
 5139               	 ;  0 "" 2
 5140               	/* #NOAPP */
 5141               	.LBE3045:
 5142               	.LBE3044:
 5143               	.LM626:
 5144 0c3c 0197      		sbiw r24,1
 5145               	.LM627:
 5146 0c3e 01F4      		brne .L218
 5147 0c40 80E1      		ldi r24,lo8(10000)
 5148 0c42 97E2      		ldi r25,hi8(10000)
 5149               	.LVL389:
 5150               	.L219:
 5151               	.LBE3043:
 5152               	.LBE3042:
 5153               	.LBB3046:
 5154               	.LBB3047:
 5155               	.LBB3048:
 5156               	.LBB3049:
 5157               	.LM628:
 5158 0c44 F801      		movw r30,r16
 5159               	.LVL390:
 5160               	/* #APP */
 5161               	 ;  105 "c:/winavr-20100110/lib/gcc/../../avr/include/util/delay_basic.h" 1
 5162 0c46 3197      		1: sbiw r30,1
 5163 0c48 01F4      		brne 1b
 5164               	 ;  0 "" 2
 5165               	/* #NOAPP */
 5166               	.LBE3049:
 5167               	.LBE3048:
 5168               	.LM629:
 5169 0c4a 0197      		sbiw r24,1
 5170               	.LM630:
 5171 0c4c 01F4      		brne .L219
 5172 0c4e 80E1      		ldi r24,lo8(10000)
 5173 0c50 97E2      		ldi r25,hi8(10000)
 5174               	.LVL391:
 5175               	.L220:
 5176               	.LBE3047:
 5177               	.LBE3046:
 5178               	.LBB3050:
 5179               	.LBB3051:
 5180               	.LBB3052:
 5181               	.LBB3053:
 5182               	.LM631:
 5183 0c52 F801      		movw r30,r16
 5184               	.LVL392:
 5185               	/* #APP */
 5186               	 ;  105 "c:/winavr-20100110/lib/gcc/../../avr/include/util/delay_basic.h" 1
 5187 0c54 3197      		1: sbiw r30,1
 5188 0c56 01F4      		brne 1b
 5189               	 ;  0 "" 2
 5190               	/* #NOAPP */
 5191               	.LBE3053:
 5192               	.LBE3052:
 5193               	.LM632:
 5194 0c58 0197      		sbiw r24,1
 5195               	.LM633:
 5196 0c5a 01F4      		brne .L220
 5197 0c5c 80E1      		ldi r24,lo8(10000)
 5198 0c5e 97E2      		ldi r25,hi8(10000)
 5199               	.LVL393:
 5200               	.L221:
 5201               	.LBE3051:
 5202               	.LBE3050:
 5203               	.LBB3054:
 5204               	.LBB3055:
 5205               	.LBB3056:
 5206               	.LBB3057:
 5207               	.LM634:
 5208 0c60 F801      		movw r30,r16
 5209               	.LVL394:
 5210               	/* #APP */
 5211               	 ;  105 "c:/winavr-20100110/lib/gcc/../../avr/include/util/delay_basic.h" 1
 5212 0c62 3197      		1: sbiw r30,1
 5213 0c64 01F4      		brne 1b
 5214               	 ;  0 "" 2
 5215               	/* #NOAPP */
 5216               	.LBE3057:
 5217               	.LBE3056:
 5218               	.LM635:
 5219 0c66 0197      		sbiw r24,1
 5220               	.LM636:
 5221 0c68 01F4      		brne .L221
 5222 0c6a 80E1      		ldi r24,lo8(10000)
 5223 0c6c 97E2      		ldi r25,hi8(10000)
 5224               	.LVL395:
 5225               	.L222:
 5226               	.LBE3055:
 5227               	.LBE3054:
 5228               	.LBB3058:
 5229               	.LBB3059:
 5230               	.LBB3060:
 5231               	.LBB3061:
 5232               	.LM637:
 5233 0c6e F801      		movw r30,r16
 5234               	.LVL396:
 5235               	/* #APP */
 5236               	 ;  105 "c:/winavr-20100110/lib/gcc/../../avr/include/util/delay_basic.h" 1
 5237 0c70 3197      		1: sbiw r30,1
 5238 0c72 01F4      		brne 1b
 5239               	 ;  0 "" 2
 5240               	/* #NOAPP */
 5241               	.LBE3061:
 5242               	.LBE3060:
 5243               	.LM638:
 5244 0c74 0197      		sbiw r24,1
 5245               	.LM639:
 5246 0c76 01F4      		brne .L222
 5247 0c78 80E1      		ldi r24,lo8(10000)
 5248 0c7a 97E2      		ldi r25,hi8(10000)
 5249               	.LVL397:
 5250               	.L223:
 5251               	.LBE3059:
 5252               	.LBE3058:
 5253               	.LBB3062:
 5254               	.LBB3063:
 5255               	.LBB3064:
 5256               	.LBB3065:
 5257               	.LM640:
 5258 0c7c F801      		movw r30,r16
 5259               	.LVL398:
 5260               	/* #APP */
 5261               	 ;  105 "c:/winavr-20100110/lib/gcc/../../avr/include/util/delay_basic.h" 1
 5262 0c7e 3197      		1: sbiw r30,1
 5263 0c80 01F4      		brne 1b
 5264               	 ;  0 "" 2
 5265               	/* #NOAPP */
 5266               	.LBE3065:
 5267               	.LBE3064:
 5268               	.LM641:
 5269 0c82 0197      		sbiw r24,1
 5270               	.LM642:
 5271 0c84 01F4      		brne .L223
 5272 0c86 80E1      		ldi r24,lo8(10000)
 5273 0c88 97E2      		ldi r25,hi8(10000)
 5274               	.LVL399:
 5275               	.L224:
 5276               	.LBE3063:
 5277               	.LBE3062:
 5278               	.LBB3066:
 5279               	.LBB3067:
 5280               	.LBB3068:
 5281               	.LBB3069:
 5282               	.LM643:
 5283 0c8a F801      		movw r30,r16
 5284               	.LVL400:
 5285               	/* #APP */
 5286               	 ;  105 "c:/winavr-20100110/lib/gcc/../../avr/include/util/delay_basic.h" 1
 5287 0c8c 3197      		1: sbiw r30,1
 5288 0c8e 01F4      		brne 1b
 5289               	 ;  0 "" 2
 5290               	/* #NOAPP */
 5291               	.LBE3069:
 5292               	.LBE3068:
 5293               	.LM644:
 5294 0c90 0197      		sbiw r24,1
 5295               	.LM645:
 5296 0c92 01F4      		brne .L224
 5297 0c94 80E1      		ldi r24,lo8(10000)
 5298 0c96 97E2      		ldi r25,hi8(10000)
 5299               	.LVL401:
 5300               	.L225:
 5301               	.LBE3067:
 5302               	.LBE3066:
 5303               	.LBB3070:
 5304               	.LBB3071:
 5305               	.LBB3072:
 5306               	.LBB3073:
 5307               	.LM646:
 5308 0c98 F801      		movw r30,r16
 5309               	.LVL402:
 5310               	/* #APP */
 5311               	 ;  105 "c:/winavr-20100110/lib/gcc/../../avr/include/util/delay_basic.h" 1
 5312 0c9a 3197      		1: sbiw r30,1
 5313 0c9c 01F4      		brne 1b
 5314               	 ;  0 "" 2
 5315               	/* #NOAPP */
 5316               	.LBE3073:
 5317               	.LBE3072:
 5318               	.LM647:
 5319 0c9e 0197      		sbiw r24,1
 5320               	.LM648:
 5321 0ca0 01F4      		brne .L225
 5322 0ca2 80E1      		ldi r24,lo8(10000)
 5323 0ca4 97E2      		ldi r25,hi8(10000)
 5324               	.LVL403:
 5325               	.L226:
 5326               	.LBE3071:
 5327               	.LBE3070:
 5328               	.LBB3074:
 5329               	.LBB3075:
 5330               	.LBB3076:
 5331               	.LBB3077:
 5332               	.LM649:
 5333 0ca6 F801      		movw r30,r16
 5334               	.LVL404:
 5335               	/* #APP */
 5336               	 ;  105 "c:/winavr-20100110/lib/gcc/../../avr/include/util/delay_basic.h" 1
 5337 0ca8 3197      		1: sbiw r30,1
 5338 0caa 01F4      		brne 1b
 5339               	 ;  0 "" 2
 5340               	/* #NOAPP */
 5341               	.LBE3077:
 5342               	.LBE3076:
 5343               	.LM650:
 5344 0cac 0197      		sbiw r24,1
 5345               	.LM651:
 5346 0cae 01F4      		brne .L226
 5347 0cb0 80E1      		ldi r24,lo8(10000)
 5348 0cb2 97E2      		ldi r25,hi8(10000)
 5349               	.LVL405:
 5350               	.L227:
 5351               	.LBE3075:
 5352               	.LBE3074:
 5353               	.LBB3078:
 5354               	.LBB3079:
 5355               	.LBB3080:
 5356               	.LBB3081:
 5357               	.LM652:
 5358 0cb4 F801      		movw r30,r16
 5359               	.LVL406:
 5360               	/* #APP */
 5361               	 ;  105 "c:/winavr-20100110/lib/gcc/../../avr/include/util/delay_basic.h" 1
 5362 0cb6 3197      		1: sbiw r30,1
 5363 0cb8 01F4      		brne 1b
 5364               	 ;  0 "" 2
 5365               	/* #NOAPP */
 5366               	.LBE3081:
 5367               	.LBE3080:
 5368               	.LM653:
 5369 0cba 0197      		sbiw r24,1
 5370               	.LM654:
 5371 0cbc 01F4      		brne .L227
 5372 0cbe 80E1      		ldi r24,lo8(10000)
 5373 0cc0 97E2      		ldi r25,hi8(10000)
 5374               	.LVL407:
 5375               	.L228:
 5376               	.LBE3079:
 5377               	.LBE3078:
 5378               	.LBB3082:
 5379               	.LBB3083:
 5380               	.LBB3084:
 5381               	.LBB3085:
 5382               	.LM655:
 5383 0cc2 F801      		movw r30,r16
 5384               	.LVL408:
 5385               	/* #APP */
 5386               	 ;  105 "c:/winavr-20100110/lib/gcc/../../avr/include/util/delay_basic.h" 1
 5387 0cc4 3197      		1: sbiw r30,1
 5388 0cc6 01F4      		brne 1b
 5389               	 ;  0 "" 2
 5390               	/* #NOAPP */
 5391               	.LBE3085:
 5392               	.LBE3084:
 5393               	.LM656:
 5394 0cc8 0197      		sbiw r24,1
 5395               	.LM657:
 5396 0cca 01F4      		brne .L228
 5397 0ccc 80E1      		ldi r24,lo8(10000)
 5398 0cce 97E2      		ldi r25,hi8(10000)
 5399               	.LVL409:
 5400               	.L229:
 5401               	.LBE3083:
 5402               	.LBE3082:
 5403               	.LBB3086:
 5404               	.LBB3087:
 5405               	.LBB3088:
 5406               	.LBB3089:
 5407               	.LM658:
 5408 0cd0 F801      		movw r30,r16
 5409               	.LVL410:
 5410               	/* #APP */
 5411               	 ;  105 "c:/winavr-20100110/lib/gcc/../../avr/include/util/delay_basic.h" 1
 5412 0cd2 3197      		1: sbiw r30,1
 5413 0cd4 01F4      		brne 1b
 5414               	 ;  0 "" 2
 5415               	/* #NOAPP */
 5416               	.LBE3089:
 5417               	.LBE3088:
 5418               	.LM659:
 5419 0cd6 0197      		sbiw r24,1
 5420               	.LM660:
 5421 0cd8 01F4      		brne .L229
 5422 0cda 80E1      		ldi r24,lo8(10000)
 5423 0cdc 97E2      		ldi r25,hi8(10000)
 5424               	.LVL411:
 5425               	.L230:
 5426               	.LBE3087:
 5427               	.LBE3086:
 5428               	.LBB3090:
 5429               	.LBB3091:
 5430               	.LBB3092:
 5431               	.LBB3093:
 5432               	.LM661:
 5433 0cde F801      		movw r30,r16
 5434               	.LVL412:
 5435               	/* #APP */
 5436               	 ;  105 "c:/winavr-20100110/lib/gcc/../../avr/include/util/delay_basic.h" 1
 5437 0ce0 3197      		1: sbiw r30,1
 5438 0ce2 01F4      		brne 1b
 5439               	 ;  0 "" 2
 5440               	/* #NOAPP */
 5441               	.LBE3093:
 5442               	.LBE3092:
 5443               	.LM662:
 5444 0ce4 0197      		sbiw r24,1
 5445               	.LM663:
 5446 0ce6 01F4      		brne .L230
 5447 0ce8 80E1      		ldi r24,lo8(10000)
 5448 0cea 97E2      		ldi r25,hi8(10000)
 5449               	.LVL413:
 5450               	.L231:
 5451               	.LBE3091:
 5452               	.LBE3090:
 5453               	.LBB3094:
 5454               	.LBB3095:
 5455               	.LBB3096:
 5456               	.LBB3097:
 5457               	.LM664:
 5458 0cec F801      		movw r30,r16
 5459               	.LVL414:
 5460               	/* #APP */
 5461               	 ;  105 "c:/winavr-20100110/lib/gcc/../../avr/include/util/delay_basic.h" 1
 5462 0cee 3197      		1: sbiw r30,1
 5463 0cf0 01F4      		brne 1b
 5464               	 ;  0 "" 2
 5465               	/* #NOAPP */
 5466               	.LBE3097:
 5467               	.LBE3096:
 5468               	.LM665:
 5469 0cf2 0197      		sbiw r24,1
 5470               	.LM666:
 5471 0cf4 01F4      		brne .L231
 5472 0cf6 80E1      		ldi r24,lo8(10000)
 5473 0cf8 97E2      		ldi r25,hi8(10000)
 5474               	.LVL415:
 5475               	.L232:
 5476               	.LBE3095:
 5477               	.LBE3094:
 5478               	.LBB3098:
 5479               	.LBB3099:
 5480               	.LBB3100:
 5481               	.LBB3101:
 5482               	.LM667:
 5483 0cfa F801      		movw r30,r16
 5484               	.LVL416:
 5485               	/* #APP */
 5486               	 ;  105 "c:/winavr-20100110/lib/gcc/../../avr/include/util/delay_basic.h" 1
 5487 0cfc 3197      		1: sbiw r30,1
 5488 0cfe 01F4      		brne 1b
 5489               	 ;  0 "" 2
 5490               	/* #NOAPP */
 5491               	.LBE3101:
 5492               	.LBE3100:
 5493               	.LM668:
 5494 0d00 0197      		sbiw r24,1
 5495               	.LM669:
 5496 0d02 01F4      		brne .L232
 5497 0d04 80E1      		ldi r24,lo8(10000)
 5498 0d06 97E2      		ldi r25,hi8(10000)
 5499               	.LVL417:
 5500               	.L233:
 5501               	.LBE3099:
 5502               	.LBE3098:
 5503               	.LBB3102:
 5504               	.LBB3103:
 5505               	.LBB3104:
 5506               	.LBB3105:
 5507               	.LM670:
 5508 0d08 F801      		movw r30,r16
 5509               	.LVL418:
 5510               	/* #APP */
 5511               	 ;  105 "c:/winavr-20100110/lib/gcc/../../avr/include/util/delay_basic.h" 1
 5512 0d0a 3197      		1: sbiw r30,1
 5513 0d0c 01F4      		brne 1b
 5514               	 ;  0 "" 2
 5515               	/* #NOAPP */
 5516               	.LBE3105:
 5517               	.LBE3104:
 5518               	.LM671:
 5519 0d0e 0197      		sbiw r24,1
 5520               	.LM672:
 5521 0d10 01F4      		brne .L233
 5522 0d12 80E1      		ldi r24,lo8(10000)
 5523 0d14 97E2      		ldi r25,hi8(10000)
 5524               	.LVL419:
 5525               	.L234:
 5526               	.LBE3103:
 5527               	.LBE3102:
 5528               	.LBB3106:
 5529               	.LBB3107:
 5530               	.LBB3108:
 5531               	.LBB3109:
 5532               	.LM673:
 5533 0d16 F801      		movw r30,r16
 5534               	.LVL420:
 5535               	/* #APP */
 5536               	 ;  105 "c:/winavr-20100110/lib/gcc/../../avr/include/util/delay_basic.h" 1
 5537 0d18 3197      		1: sbiw r30,1
 5538 0d1a 01F4      		brne 1b
 5539               	 ;  0 "" 2
 5540               	/* #NOAPP */
 5541               	.LBE3109:
 5542               	.LBE3108:
 5543               	.LM674:
 5544 0d1c 0197      		sbiw r24,1
 5545               	.LM675:
 5546 0d1e 01F4      		brne .L234
 5547 0d20 80E1      		ldi r24,lo8(10000)
 5548 0d22 97E2      		ldi r25,hi8(10000)
 5549               	.LVL421:
 5550               	.L235:
 5551               	.LBE3107:
 5552               	.LBE3106:
 5553               	.LBB3110:
 5554               	.LBB3111:
 5555               	.LBB3112:
 5556               	.LBB3113:
 5557               	.LM676:
 5558 0d24 F801      		movw r30,r16
 5559               	.LVL422:
 5560               	/* #APP */
 5561               	 ;  105 "c:/winavr-20100110/lib/gcc/../../avr/include/util/delay_basic.h" 1
 5562 0d26 3197      		1: sbiw r30,1
 5563 0d28 01F4      		brne 1b
 5564               	 ;  0 "" 2
 5565               	/* #NOAPP */
 5566               	.LBE3113:
 5567               	.LBE3112:
 5568               	.LM677:
 5569 0d2a 0197      		sbiw r24,1
 5570               	.LM678:
 5571 0d2c 01F4      		brne .L235
 5572 0d2e 80E1      		ldi r24,lo8(10000)
 5573 0d30 97E2      		ldi r25,hi8(10000)
 5574               	.LVL423:
 5575               	.L236:
 5576               	.LBE3111:
 5577               	.LBE3110:
 5578               	.LBB3114:
 5579               	.LBB3115:
 5580               	.LBB3116:
 5581               	.LBB3117:
 5582               	.LM679:
 5583 0d32 F801      		movw r30,r16
 5584               	.LVL424:
 5585               	/* #APP */
 5586               	 ;  105 "c:/winavr-20100110/lib/gcc/../../avr/include/util/delay_basic.h" 1
 5587 0d34 3197      		1: sbiw r30,1
 5588 0d36 01F4      		brne 1b
 5589               	 ;  0 "" 2
 5590               	/* #NOAPP */
 5591               	.LBE3117:
 5592               	.LBE3116:
 5593               	.LM680:
 5594 0d38 0197      		sbiw r24,1
 5595               	.LM681:
 5596 0d3a 01F4      		brne .L236
 5597 0d3c 80E1      		ldi r24,lo8(10000)
 5598 0d3e 97E2      		ldi r25,hi8(10000)
 5599               	.LVL425:
 5600               	.L237:
 5601               	.LBE3115:
 5602               	.LBE3114:
 5603               	.LBB3118:
 5604               	.LBB3119:
 5605               	.LBB3120:
 5606               	.LBB3121:
 5607               	.LM682:
 5608 0d40 F801      		movw r30,r16
 5609               	.LVL426:
 5610               	/* #APP */
 5611               	 ;  105 "c:/winavr-20100110/lib/gcc/../../avr/include/util/delay_basic.h" 1
 5612 0d42 3197      		1: sbiw r30,1
 5613 0d44 01F4      		brne 1b
 5614               	 ;  0 "" 2
 5615               	/* #NOAPP */
 5616               	.LBE3121:
 5617               	.LBE3120:
 5618               	.LM683:
 5619 0d46 0197      		sbiw r24,1
 5620               	.LM684:
 5621 0d48 01F4      		brne .L237
 5622 0d4a 80E1      		ldi r24,lo8(10000)
 5623 0d4c 97E2      		ldi r25,hi8(10000)
 5624               	.LVL427:
 5625               	.L238:
 5626               	.LBE3119:
 5627               	.LBE3118:
 5628               	.LBB3122:
 5629               	.LBB3123:
 5630               	.LBB3124:
 5631               	.LBB3125:
 5632               	.LM685:
 5633 0d4e F801      		movw r30,r16
 5634               	.LVL428:
 5635               	/* #APP */
 5636               	 ;  105 "c:/winavr-20100110/lib/gcc/../../avr/include/util/delay_basic.h" 1
 5637 0d50 3197      		1: sbiw r30,1
 5638 0d52 01F4      		brne 1b
 5639               	 ;  0 "" 2
 5640               	/* #NOAPP */
 5641               	.LBE3125:
 5642               	.LBE3124:
 5643               	.LM686:
 5644 0d54 0197      		sbiw r24,1
 5645               	.LM687:
 5646 0d56 01F4      		brne .L238
 5647 0d58 80E1      		ldi r24,lo8(10000)
 5648 0d5a 97E2      		ldi r25,hi8(10000)
 5649               	.LVL429:
 5650               	.L239:
 5651               	.LBE3123:
 5652               	.LBE3122:
 5653               	.LBB3126:
 5654               	.LBB3127:
 5655               	.LBB3128:
 5656               	.LBB3129:
 5657               	.LM688:
 5658 0d5c F801      		movw r30,r16
 5659               	.LVL430:
 5660               	/* #APP */
 5661               	 ;  105 "c:/winavr-20100110/lib/gcc/../../avr/include/util/delay_basic.h" 1
 5662 0d5e 3197      		1: sbiw r30,1
 5663 0d60 01F4      		brne 1b
 5664               	 ;  0 "" 2
 5665               	/* #NOAPP */
 5666               	.LBE3129:
 5667               	.LBE3128:
 5668               	.LM689:
 5669 0d62 0197      		sbiw r24,1
 5670               	.LM690:
 5671 0d64 01F4      		brne .L239
 5672 0d66 80E1      		ldi r24,lo8(10000)
 5673 0d68 97E2      		ldi r25,hi8(10000)
 5674               	.LVL431:
 5675               	.L240:
 5676               	.LBE3127:
 5677               	.LBE3126:
 5678               	.LBB3130:
 5679               	.LBB3131:
 5680               	.LBB3132:
 5681               	.LBB3133:
 5682               	.LM691:
 5683 0d6a F801      		movw r30,r16
 5684               	.LVL432:
 5685               	/* #APP */
 5686               	 ;  105 "c:/winavr-20100110/lib/gcc/../../avr/include/util/delay_basic.h" 1
 5687 0d6c 3197      		1: sbiw r30,1
 5688 0d6e 01F4      		brne 1b
 5689               	 ;  0 "" 2
 5690               	/* #NOAPP */
 5691               	.LBE3133:
 5692               	.LBE3132:
 5693               	.LM692:
 5694 0d70 0197      		sbiw r24,1
 5695               	.LM693:
 5696 0d72 01F4      		brne .L240
 5697 0d74 80E1      		ldi r24,lo8(10000)
 5698 0d76 97E2      		ldi r25,hi8(10000)
 5699               	.LVL433:
 5700               	.L241:
 5701               	.LBE3131:
 5702               	.LBE3130:
 5703               	.LBB3134:
 5704               	.LBB3135:
 5705               	.LBB3136:
 5706               	.LBB3137:
 5707               	.LM694:
 5708 0d78 F801      		movw r30,r16
 5709               	.LVL434:
 5710               	/* #APP */
 5711               	 ;  105 "c:/winavr-20100110/lib/gcc/../../avr/include/util/delay_basic.h" 1
 5712 0d7a 3197      		1: sbiw r30,1
 5713 0d7c 01F4      		brne 1b
 5714               	 ;  0 "" 2
 5715               	/* #NOAPP */
 5716               	.LBE3137:
 5717               	.LBE3136:
 5718               	.LM695:
 5719 0d7e 0197      		sbiw r24,1
 5720               	.LM696:
 5721 0d80 01F4      		brne .L241
 5722 0d82 80E1      		ldi r24,lo8(10000)
 5723 0d84 97E2      		ldi r25,hi8(10000)
 5724               	.LVL435:
 5725               	.L242:
 5726               	.LBE3135:
 5727               	.LBE3134:
 5728               	.LBB3138:
 5729               	.LBB3139:
 5730               	.LBB3140:
 5731               	.LBB3141:
 5732               	.LM697:
 5733 0d86 F801      		movw r30,r16
 5734               	.LVL436:
 5735               	/* #APP */
 5736               	 ;  105 "c:/winavr-20100110/lib/gcc/../../avr/include/util/delay_basic.h" 1
 5737 0d88 3197      		1: sbiw r30,1
 5738 0d8a 01F4      		brne 1b
 5739               	 ;  0 "" 2
 5740               	/* #NOAPP */
 5741               	.LBE3141:
 5742               	.LBE3140:
 5743               	.LM698:
 5744 0d8c 0197      		sbiw r24,1
 5745               	.LM699:
 5746 0d8e 01F4      		brne .L242
 5747 0d90 80E1      		ldi r24,lo8(10000)
 5748 0d92 97E2      		ldi r25,hi8(10000)
 5749               	.LVL437:
 5750               	.L243:
 5751               	.LBE3139:
 5752               	.LBE3138:
 5753               	.LBB3142:
 5754               	.LBB3143:
 5755               	.LBB3144:
 5756               	.LBB3145:
 5757               	.LM700:
 5758 0d94 F801      		movw r30,r16
 5759               	.LVL438:
 5760               	/* #APP */
 5761               	 ;  105 "c:/winavr-20100110/lib/gcc/../../avr/include/util/delay_basic.h" 1
 5762 0d96 3197      		1: sbiw r30,1
 5763 0d98 01F4      		brne 1b
 5764               	 ;  0 "" 2
 5765               	/* #NOAPP */
 5766               	.LBE3145:
 5767               	.LBE3144:
 5768               	.LM701:
 5769 0d9a 0197      		sbiw r24,1
 5770               	.LM702:
 5771 0d9c 01F4      		brne .L243
 5772 0d9e 80E1      		ldi r24,lo8(10000)
 5773 0da0 97E2      		ldi r25,hi8(10000)
 5774               	.LVL439:
 5775               	.L244:
 5776               	.LBE3143:
 5777               	.LBE3142:
 5778               	.LBB3146:
 5779               	.LBB3147:
 5780               	.LBB3148:
 5781               	.LBB3149:
 5782               	.LM703:
 5783 0da2 F801      		movw r30,r16
 5784               	.LVL440:
 5785               	/* #APP */
 5786               	 ;  105 "c:/winavr-20100110/lib/gcc/../../avr/include/util/delay_basic.h" 1
 5787 0da4 3197      		1: sbiw r30,1
 5788 0da6 01F4      		brne 1b
 5789               	 ;  0 "" 2
 5790               	/* #NOAPP */
 5791               	.LBE3149:
 5792               	.LBE3148:
 5793               	.LM704:
 5794 0da8 0197      		sbiw r24,1
 5795               	.LM705:
 5796 0daa 01F4      		brne .L244
 5797 0dac 80E1      		ldi r24,lo8(10000)
 5798 0dae 97E2      		ldi r25,hi8(10000)
 5799               	.LVL441:
 5800               	.L245:
 5801               	.LBE3147:
 5802               	.LBE3146:
 5803               	.LBB3150:
 5804               	.LBB3151:
 5805               	.LBB3152:
 5806               	.LBB3153:
 5807               	.LM706:
 5808 0db0 F801      		movw r30,r16
 5809               	.LVL442:
 5810               	/* #APP */
 5811               	 ;  105 "c:/winavr-20100110/lib/gcc/../../avr/include/util/delay_basic.h" 1
 5812 0db2 3197      		1: sbiw r30,1
 5813 0db4 01F4      		brne 1b
 5814               	 ;  0 "" 2
 5815               	/* #NOAPP */
 5816               	.LBE3153:
 5817               	.LBE3152:
 5818               	.LM707:
 5819 0db6 0197      		sbiw r24,1
 5820               	.LM708:
 5821 0db8 01F4      		brne .L245
 5822               	.L203:
 5823               	.LBE3151:
 5824               	.LBE3150:
 5825               	.LM709:
 5826 0dba C701      		movw r24,r14
 5827 0dbc B601      		movw r22,r12
 5828 0dbe 20E0      		ldi r18,lo8(0x41400000)
 5829 0dc0 30E0      		ldi r19,hi8(0x41400000)
 5830 0dc2 40E4      		ldi r20,hlo8(0x41400000)
 5831 0dc4 51E4      		ldi r21,hhi8(0x41400000)
 5832 0dc6 0E94 0000 		call __gesf2
 5833               	.LVL443:
 5834 0dca 8823      		tst r24
 5835 0dcc 04F4      		brge .+2
 5836 0dce 00C0      		rjmp .L246
 5837 0dd0 C701      		movw r24,r14
 5838 0dd2 B601      		movw r22,r12
 5839 0dd4 20E0      		ldi r18,lo8(0x41500000)
 5840 0dd6 30E0      		ldi r19,hi8(0x41500000)
 5841 0dd8 40E5      		ldi r20,hlo8(0x41500000)
 5842 0dda 51E4      		ldi r21,hhi8(0x41500000)
 5843 0ddc 0E94 0000 		call __ltsf2
 5844 0de0 8823      		tst r24
 5845 0de2 04F0      		brlt .+2
 5846 0de4 00C0      		rjmp .L246
 5847               	.LM710:
 5848 0de6 89E2      		ldi r24,lo8(41)
 5849 0de8 88BB      		out 56-32,r24
 5850 0dea 80E1      		ldi r24,lo8(10000)
 5851 0dec 97E2      		ldi r25,hi8(10000)
 5852               	.LVL444:
 5853               	.L249:
 5854               	.LBB3154:
 5855               	.LBB3155:
 5856               	.LBB3156:
 5857               	.LBB3157:
 5858               	.LM711:
 5859 0dee F801      		movw r30,r16
 5860               	.LVL445:
 5861               	/* #APP */
 5862               	 ;  105 "c:/winavr-20100110/lib/gcc/../../avr/include/util/delay_basic.h" 1
 5863 0df0 3197      		1: sbiw r30,1
 5864 0df2 01F4      		brne 1b
 5865               	 ;  0 "" 2
 5866               	/* #NOAPP */
 5867               	.LBE3157:
 5868               	.LBE3156:
 5869               	.LM712:
 5870 0df4 0197      		sbiw r24,1
 5871               	.LM713:
 5872 0df6 01F4      		brne .L249
 5873 0df8 80E1      		ldi r24,lo8(10000)
 5874 0dfa 97E2      		ldi r25,hi8(10000)
 5875               	.LVL446:
 5876               	.L250:
 5877               	.LBE3155:
 5878               	.LBE3154:
 5879               	.LBB3158:
 5880               	.LBB3159:
 5881               	.LBB3160:
 5882               	.LBB3161:
 5883               	.LM714:
 5884 0dfc F801      		movw r30,r16
 5885               	.LVL447:
 5886               	/* #APP */
 5887               	 ;  105 "c:/winavr-20100110/lib/gcc/../../avr/include/util/delay_basic.h" 1
 5888 0dfe 3197      		1: sbiw r30,1
 5889 0e00 01F4      		brne 1b
 5890               	 ;  0 "" 2
 5891               	/* #NOAPP */
 5892               	.LBE3161:
 5893               	.LBE3160:
 5894               	.LM715:
 5895 0e02 0197      		sbiw r24,1
 5896               	.LM716:
 5897 0e04 01F4      		brne .L250
 5898 0e06 80E1      		ldi r24,lo8(10000)
 5899 0e08 97E2      		ldi r25,hi8(10000)
 5900               	.LVL448:
 5901               	.L251:
 5902               	.LBE3159:
 5903               	.LBE3158:
 5904               	.LBB3162:
 5905               	.LBB3163:
 5906               	.LBB3164:
 5907               	.LBB3165:
 5908               	.LM717:
 5909 0e0a F801      		movw r30,r16
 5910               	.LVL449:
 5911               	/* #APP */
 5912               	 ;  105 "c:/winavr-20100110/lib/gcc/../../avr/include/util/delay_basic.h" 1
 5913 0e0c 3197      		1: sbiw r30,1
 5914 0e0e 01F4      		brne 1b
 5915               	 ;  0 "" 2
 5916               	/* #NOAPP */
 5917               	.LBE3165:
 5918               	.LBE3164:
 5919               	.LM718:
 5920 0e10 0197      		sbiw r24,1
 5921               	.LM719:
 5922 0e12 01F4      		brne .L251
 5923 0e14 80E1      		ldi r24,lo8(10000)
 5924 0e16 97E2      		ldi r25,hi8(10000)
 5925               	.LVL450:
 5926               	.L252:
 5927               	.LBE3163:
 5928               	.LBE3162:
 5929               	.LBB3166:
 5930               	.LBB3167:
 5931               	.LBB3168:
 5932               	.LBB3169:
 5933               	.LM720:
 5934 0e18 F801      		movw r30,r16
 5935               	.LVL451:
 5936               	/* #APP */
 5937               	 ;  105 "c:/winavr-20100110/lib/gcc/../../avr/include/util/delay_basic.h" 1
 5938 0e1a 3197      		1: sbiw r30,1
 5939 0e1c 01F4      		brne 1b
 5940               	 ;  0 "" 2
 5941               	/* #NOAPP */
 5942               	.LBE3169:
 5943               	.LBE3168:
 5944               	.LM721:
 5945 0e1e 0197      		sbiw r24,1
 5946               	.LM722:
 5947 0e20 01F4      		brne .L252
 5948 0e22 80E1      		ldi r24,lo8(10000)
 5949 0e24 97E2      		ldi r25,hi8(10000)
 5950               	.LVL452:
 5951               	.L253:
 5952               	.LBE3167:
 5953               	.LBE3166:
 5954               	.LBB3170:
 5955               	.LBB3171:
 5956               	.LBB3172:
 5957               	.LBB3173:
 5958               	.LM723:
 5959 0e26 F801      		movw r30,r16
 5960               	.LVL453:
 5961               	/* #APP */
 5962               	 ;  105 "c:/winavr-20100110/lib/gcc/../../avr/include/util/delay_basic.h" 1
 5963 0e28 3197      		1: sbiw r30,1
 5964 0e2a 01F4      		brne 1b
 5965               	 ;  0 "" 2
 5966               	/* #NOAPP */
 5967               	.LBE3173:
 5968               	.LBE3172:
 5969               	.LM724:
 5970 0e2c 0197      		sbiw r24,1
 5971               	.LM725:
 5972 0e2e 01F4      		brne .L253
 5973 0e30 80E1      		ldi r24,lo8(10000)
 5974 0e32 97E2      		ldi r25,hi8(10000)
 5975               	.LVL454:
 5976               	.L254:
 5977               	.LBE3171:
 5978               	.LBE3170:
 5979               	.LBB3174:
 5980               	.LBB3175:
 5981               	.LBB3176:
 5982               	.LBB3177:
 5983               	.LM726:
 5984 0e34 F801      		movw r30,r16
 5985               	.LVL455:
 5986               	/* #APP */
 5987               	 ;  105 "c:/winavr-20100110/lib/gcc/../../avr/include/util/delay_basic.h" 1
 5988 0e36 3197      		1: sbiw r30,1
 5989 0e38 01F4      		brne 1b
 5990               	 ;  0 "" 2
 5991               	/* #NOAPP */
 5992               	.LBE3177:
 5993               	.LBE3176:
 5994               	.LM727:
 5995 0e3a 0197      		sbiw r24,1
 5996               	.LM728:
 5997 0e3c 01F4      		brne .L254
 5998 0e3e 80E1      		ldi r24,lo8(10000)
 5999 0e40 97E2      		ldi r25,hi8(10000)
 6000               	.LVL456:
 6001               	.L255:
 6002               	.LBE3175:
 6003               	.LBE3174:
 6004               	.LBB3178:
 6005               	.LBB3179:
 6006               	.LBB3180:
 6007               	.LBB3181:
 6008               	.LM729:
 6009 0e42 F801      		movw r30,r16
 6010               	.LVL457:
 6011               	/* #APP */
 6012               	 ;  105 "c:/winavr-20100110/lib/gcc/../../avr/include/util/delay_basic.h" 1
 6013 0e44 3197      		1: sbiw r30,1
 6014 0e46 01F4      		brne 1b
 6015               	 ;  0 "" 2
 6016               	/* #NOAPP */
 6017               	.LBE3181:
 6018               	.LBE3180:
 6019               	.LM730:
 6020 0e48 0197      		sbiw r24,1
 6021               	.LM731:
 6022 0e4a 01F4      		brne .L255
 6023 0e4c 80E1      		ldi r24,lo8(10000)
 6024 0e4e 97E2      		ldi r25,hi8(10000)
 6025               	.LVL458:
 6026               	.L256:
 6027               	.LBE3179:
 6028               	.LBE3178:
 6029               	.LBB3182:
 6030               	.LBB3183:
 6031               	.LBB3184:
 6032               	.LBB3185:
 6033               	.LM732:
 6034 0e50 F801      		movw r30,r16
 6035               	.LVL459:
 6036               	/* #APP */
 6037               	 ;  105 "c:/winavr-20100110/lib/gcc/../../avr/include/util/delay_basic.h" 1
 6038 0e52 3197      		1: sbiw r30,1
 6039 0e54 01F4      		brne 1b
 6040               	 ;  0 "" 2
 6041               	/* #NOAPP */
 6042               	.LBE3185:
 6043               	.LBE3184:
 6044               	.LM733:
 6045 0e56 0197      		sbiw r24,1
 6046               	.LM734:
 6047 0e58 01F4      		brne .L256
 6048 0e5a 80E1      		ldi r24,lo8(10000)
 6049 0e5c 97E2      		ldi r25,hi8(10000)
 6050               	.LVL460:
 6051               	.L257:
 6052               	.LBE3183:
 6053               	.LBE3182:
 6054               	.LBB3186:
 6055               	.LBB3187:
 6056               	.LBB3188:
 6057               	.LBB3189:
 6058               	.LM735:
 6059 0e5e F801      		movw r30,r16
 6060               	.LVL461:
 6061               	/* #APP */
 6062               	 ;  105 "c:/winavr-20100110/lib/gcc/../../avr/include/util/delay_basic.h" 1
 6063 0e60 3197      		1: sbiw r30,1
 6064 0e62 01F4      		brne 1b
 6065               	 ;  0 "" 2
 6066               	/* #NOAPP */
 6067               	.LBE3189:
 6068               	.LBE3188:
 6069               	.LM736:
 6070 0e64 0197      		sbiw r24,1
 6071               	.LM737:
 6072 0e66 01F4      		brne .L257
 6073 0e68 80E1      		ldi r24,lo8(10000)
 6074 0e6a 97E2      		ldi r25,hi8(10000)
 6075               	.LVL462:
 6076               	.L258:
 6077               	.LBE3187:
 6078               	.LBE3186:
 6079               	.LBB3190:
 6080               	.LBB3191:
 6081               	.LBB3192:
 6082               	.LBB3193:
 6083               	.LM738:
 6084 0e6c F801      		movw r30,r16
 6085               	.LVL463:
 6086               	/* #APP */
 6087               	 ;  105 "c:/winavr-20100110/lib/gcc/../../avr/include/util/delay_basic.h" 1
 6088 0e6e 3197      		1: sbiw r30,1
 6089 0e70 01F4      		brne 1b
 6090               	 ;  0 "" 2
 6091               	/* #NOAPP */
 6092               	.LBE3193:
 6093               	.LBE3192:
 6094               	.LM739:
 6095 0e72 0197      		sbiw r24,1
 6096               	.LM740:
 6097 0e74 01F4      		brne .L258
 6098 0e76 80E1      		ldi r24,lo8(10000)
 6099 0e78 97E2      		ldi r25,hi8(10000)
 6100               	.LVL464:
 6101               	.L259:
 6102               	.LBE3191:
 6103               	.LBE3190:
 6104               	.LBB3194:
 6105               	.LBB3195:
 6106               	.LBB3196:
 6107               	.LBB3197:
 6108               	.LM741:
 6109 0e7a F801      		movw r30,r16
 6110               	.LVL465:
 6111               	/* #APP */
 6112               	 ;  105 "c:/winavr-20100110/lib/gcc/../../avr/include/util/delay_basic.h" 1
 6113 0e7c 3197      		1: sbiw r30,1
 6114 0e7e 01F4      		brne 1b
 6115               	 ;  0 "" 2
 6116               	/* #NOAPP */
 6117               	.LBE3197:
 6118               	.LBE3196:
 6119               	.LM742:
 6120 0e80 0197      		sbiw r24,1
 6121               	.LM743:
 6122 0e82 01F4      		brne .L259
 6123 0e84 80E1      		ldi r24,lo8(10000)
 6124 0e86 97E2      		ldi r25,hi8(10000)
 6125               	.LVL466:
 6126               	.L260:
 6127               	.LBE3195:
 6128               	.LBE3194:
 6129               	.LBB3198:
 6130               	.LBB3199:
 6131               	.LBB3200:
 6132               	.LBB3201:
 6133               	.LM744:
 6134 0e88 F801      		movw r30,r16
 6135               	.LVL467:
 6136               	/* #APP */
 6137               	 ;  105 "c:/winavr-20100110/lib/gcc/../../avr/include/util/delay_basic.h" 1
 6138 0e8a 3197      		1: sbiw r30,1
 6139 0e8c 01F4      		brne 1b
 6140               	 ;  0 "" 2
 6141               	/* #NOAPP */
 6142               	.LBE3201:
 6143               	.LBE3200:
 6144               	.LM745:
 6145 0e8e 0197      		sbiw r24,1
 6146               	.LM746:
 6147 0e90 01F4      		brne .L260
 6148 0e92 80E1      		ldi r24,lo8(10000)
 6149 0e94 97E2      		ldi r25,hi8(10000)
 6150               	.LVL468:
 6151               	.L261:
 6152               	.LBE3199:
 6153               	.LBE3198:
 6154               	.LBB3202:
 6155               	.LBB3203:
 6156               	.LBB3204:
 6157               	.LBB3205:
 6158               	.LM747:
 6159 0e96 F801      		movw r30,r16
 6160               	.LVL469:
 6161               	/* #APP */
 6162               	 ;  105 "c:/winavr-20100110/lib/gcc/../../avr/include/util/delay_basic.h" 1
 6163 0e98 3197      		1: sbiw r30,1
 6164 0e9a 01F4      		brne 1b
 6165               	 ;  0 "" 2
 6166               	/* #NOAPP */
 6167               	.LBE3205:
 6168               	.LBE3204:
 6169               	.LM748:
 6170 0e9c 0197      		sbiw r24,1
 6171               	.LM749:
 6172 0e9e 01F4      		brne .L261
 6173 0ea0 80E1      		ldi r24,lo8(10000)
 6174 0ea2 97E2      		ldi r25,hi8(10000)
 6175               	.LVL470:
 6176               	.L262:
 6177               	.LBE3203:
 6178               	.LBE3202:
 6179               	.LBB3206:
 6180               	.LBB3207:
 6181               	.LBB3208:
 6182               	.LBB3209:
 6183               	.LM750:
 6184 0ea4 F801      		movw r30,r16
 6185               	.LVL471:
 6186               	/* #APP */
 6187               	 ;  105 "c:/winavr-20100110/lib/gcc/../../avr/include/util/delay_basic.h" 1
 6188 0ea6 3197      		1: sbiw r30,1
 6189 0ea8 01F4      		brne 1b
 6190               	 ;  0 "" 2
 6191               	/* #NOAPP */
 6192               	.LBE3209:
 6193               	.LBE3208:
 6194               	.LM751:
 6195 0eaa 0197      		sbiw r24,1
 6196               	.LM752:
 6197 0eac 01F4      		brne .L262
 6198 0eae 80E1      		ldi r24,lo8(10000)
 6199 0eb0 97E2      		ldi r25,hi8(10000)
 6200               	.LVL472:
 6201               	.L263:
 6202               	.LBE3207:
 6203               	.LBE3206:
 6204               	.LBB3210:
 6205               	.LBB3211:
 6206               	.LBB3212:
 6207               	.LBB3213:
 6208               	.LM753:
 6209 0eb2 F801      		movw r30,r16
 6210               	.LVL473:
 6211               	/* #APP */
 6212               	 ;  105 "c:/winavr-20100110/lib/gcc/../../avr/include/util/delay_basic.h" 1
 6213 0eb4 3197      		1: sbiw r30,1
 6214 0eb6 01F4      		brne 1b
 6215               	 ;  0 "" 2
 6216               	/* #NOAPP */
 6217               	.LBE3213:
 6218               	.LBE3212:
 6219               	.LM754:
 6220 0eb8 0197      		sbiw r24,1
 6221               	.LM755:
 6222 0eba 01F4      		brne .L263
 6223 0ebc 80E1      		ldi r24,lo8(10000)
 6224 0ebe 97E2      		ldi r25,hi8(10000)
 6225               	.LVL474:
 6226               	.L264:
 6227               	.LBE3211:
 6228               	.LBE3210:
 6229               	.LBB3214:
 6230               	.LBB3215:
 6231               	.LBB3216:
 6232               	.LBB3217:
 6233               	.LM756:
 6234 0ec0 F801      		movw r30,r16
 6235               	.LVL475:
 6236               	/* #APP */
 6237               	 ;  105 "c:/winavr-20100110/lib/gcc/../../avr/include/util/delay_basic.h" 1
 6238 0ec2 3197      		1: sbiw r30,1
 6239 0ec4 01F4      		brne 1b
 6240               	 ;  0 "" 2
 6241               	/* #NOAPP */
 6242               	.LBE3217:
 6243               	.LBE3216:
 6244               	.LM757:
 6245 0ec6 0197      		sbiw r24,1
 6246               	.LM758:
 6247 0ec8 01F4      		brne .L264
 6248 0eca 80E1      		ldi r24,lo8(10000)
 6249 0ecc 97E2      		ldi r25,hi8(10000)
 6250               	.LVL476:
 6251               	.L265:
 6252               	.LBE3215:
 6253               	.LBE3214:
 6254               	.LBB3218:
 6255               	.LBB3219:
 6256               	.LBB3220:
 6257               	.LBB3221:
 6258               	.LM759:
 6259 0ece F801      		movw r30,r16
 6260               	.LVL477:
 6261               	/* #APP */
 6262               	 ;  105 "c:/winavr-20100110/lib/gcc/../../avr/include/util/delay_basic.h" 1
 6263 0ed0 3197      		1: sbiw r30,1
 6264 0ed2 01F4      		brne 1b
 6265               	 ;  0 "" 2
 6266               	/* #NOAPP */
 6267               	.LBE3221:
 6268               	.LBE3220:
 6269               	.LM760:
 6270 0ed4 0197      		sbiw r24,1
 6271               	.LM761:
 6272 0ed6 01F4      		brne .L265
 6273 0ed8 80E1      		ldi r24,lo8(10000)
 6274 0eda 97E2      		ldi r25,hi8(10000)
 6275               	.LVL478:
 6276               	.L266:
 6277               	.LBE3219:
 6278               	.LBE3218:
 6279               	.LBB3222:
 6280               	.LBB3223:
 6281               	.LBB3224:
 6282               	.LBB3225:
 6283               	.LM762:
 6284 0edc F801      		movw r30,r16
 6285               	.LVL479:
 6286               	/* #APP */
 6287               	 ;  105 "c:/winavr-20100110/lib/gcc/../../avr/include/util/delay_basic.h" 1
 6288 0ede 3197      		1: sbiw r30,1
 6289 0ee0 01F4      		brne 1b
 6290               	 ;  0 "" 2
 6291               	/* #NOAPP */
 6292               	.LBE3225:
 6293               	.LBE3224:
 6294               	.LM763:
 6295 0ee2 0197      		sbiw r24,1
 6296               	.LM764:
 6297 0ee4 01F4      		brne .L266
 6298 0ee6 80E1      		ldi r24,lo8(10000)
 6299 0ee8 97E2      		ldi r25,hi8(10000)
 6300               	.LVL480:
 6301               	.L267:
 6302               	.LBE3223:
 6303               	.LBE3222:
 6304               	.LBB3226:
 6305               	.LBB3227:
 6306               	.LBB3228:
 6307               	.LBB3229:
 6308               	.LM765:
 6309 0eea F801      		movw r30,r16
 6310               	.LVL481:
 6311               	/* #APP */
 6312               	 ;  105 "c:/winavr-20100110/lib/gcc/../../avr/include/util/delay_basic.h" 1
 6313 0eec 3197      		1: sbiw r30,1
 6314 0eee 01F4      		brne 1b
 6315               	 ;  0 "" 2
 6316               	/* #NOAPP */
 6317               	.LBE3229:
 6318               	.LBE3228:
 6319               	.LM766:
 6320 0ef0 0197      		sbiw r24,1
 6321               	.LM767:
 6322 0ef2 01F4      		brne .L267
 6323 0ef4 80E1      		ldi r24,lo8(10000)
 6324 0ef6 97E2      		ldi r25,hi8(10000)
 6325               	.LVL482:
 6326               	.L268:
 6327               	.LBE3227:
 6328               	.LBE3226:
 6329               	.LBB3230:
 6330               	.LBB3231:
 6331               	.LBB3232:
 6332               	.LBB3233:
 6333               	.LM768:
 6334 0ef8 F801      		movw r30,r16
 6335               	.LVL483:
 6336               	/* #APP */
 6337               	 ;  105 "c:/winavr-20100110/lib/gcc/../../avr/include/util/delay_basic.h" 1
 6338 0efa 3197      		1: sbiw r30,1
 6339 0efc 01F4      		brne 1b
 6340               	 ;  0 "" 2
 6341               	/* #NOAPP */
 6342               	.LBE3233:
 6343               	.LBE3232:
 6344               	.LM769:
 6345 0efe 0197      		sbiw r24,1
 6346               	.LM770:
 6347 0f00 01F4      		brne .L268
 6348 0f02 80E1      		ldi r24,lo8(10000)
 6349 0f04 97E2      		ldi r25,hi8(10000)
 6350               	.LVL484:
 6351               	.L269:
 6352               	.LBE3231:
 6353               	.LBE3230:
 6354               	.LBB3234:
 6355               	.LBB3235:
 6356               	.LBB3236:
 6357               	.LBB3237:
 6358               	.LM771:
 6359 0f06 F801      		movw r30,r16
 6360               	.LVL485:
 6361               	/* #APP */
 6362               	 ;  105 "c:/winavr-20100110/lib/gcc/../../avr/include/util/delay_basic.h" 1
 6363 0f08 3197      		1: sbiw r30,1
 6364 0f0a 01F4      		brne 1b
 6365               	 ;  0 "" 2
 6366               	/* #NOAPP */
 6367               	.LBE3237:
 6368               	.LBE3236:
 6369               	.LM772:
 6370 0f0c 0197      		sbiw r24,1
 6371               	.LM773:
 6372 0f0e 01F4      		brne .L269
 6373 0f10 80E1      		ldi r24,lo8(10000)
 6374 0f12 97E2      		ldi r25,hi8(10000)
 6375               	.LVL486:
 6376               	.L270:
 6377               	.LBE3235:
 6378               	.LBE3234:
 6379               	.LBB3238:
 6380               	.LBB3239:
 6381               	.LBB3240:
 6382               	.LBB3241:
 6383               	.LM774:
 6384 0f14 F801      		movw r30,r16
 6385               	.LVL487:
 6386               	/* #APP */
 6387               	 ;  105 "c:/winavr-20100110/lib/gcc/../../avr/include/util/delay_basic.h" 1
 6388 0f16 3197      		1: sbiw r30,1
 6389 0f18 01F4      		brne 1b
 6390               	 ;  0 "" 2
 6391               	/* #NOAPP */
 6392               	.LBE3241:
 6393               	.LBE3240:
 6394               	.LM775:
 6395 0f1a 0197      		sbiw r24,1
 6396               	.LM776:
 6397 0f1c 01F4      		brne .L270
 6398 0f1e 80E1      		ldi r24,lo8(10000)
 6399 0f20 97E2      		ldi r25,hi8(10000)
 6400               	.LVL488:
 6401               	.L271:
 6402               	.LBE3239:
 6403               	.LBE3238:
 6404               	.LBB3242:
 6405               	.LBB3243:
 6406               	.LBB3244:
 6407               	.LBB3245:
 6408               	.LM777:
 6409 0f22 F801      		movw r30,r16
 6410               	.LVL489:
 6411               	/* #APP */
 6412               	 ;  105 "c:/winavr-20100110/lib/gcc/../../avr/include/util/delay_basic.h" 1
 6413 0f24 3197      		1: sbiw r30,1
 6414 0f26 01F4      		brne 1b
 6415               	 ;  0 "" 2
 6416               	/* #NOAPP */
 6417               	.LBE3245:
 6418               	.LBE3244:
 6419               	.LM778:
 6420 0f28 0197      		sbiw r24,1
 6421               	.LM779:
 6422 0f2a 01F4      		brne .L271
 6423 0f2c 80E1      		ldi r24,lo8(10000)
 6424 0f2e 97E2      		ldi r25,hi8(10000)
 6425               	.LVL490:
 6426               	.L272:
 6427               	.LBE3243:
 6428               	.LBE3242:
 6429               	.LBB3246:
 6430               	.LBB3247:
 6431               	.LBB3248:
 6432               	.LBB3249:
 6433               	.LM780:
 6434 0f30 F801      		movw r30,r16
 6435               	.LVL491:
 6436               	/* #APP */
 6437               	 ;  105 "c:/winavr-20100110/lib/gcc/../../avr/include/util/delay_basic.h" 1
 6438 0f32 3197      		1: sbiw r30,1
 6439 0f34 01F4      		brne 1b
 6440               	 ;  0 "" 2
 6441               	/* #NOAPP */
 6442               	.LBE3249:
 6443               	.LBE3248:
 6444               	.LM781:
 6445 0f36 0197      		sbiw r24,1
 6446               	.LM782:
 6447 0f38 01F4      		brne .L272
 6448 0f3a 80E1      		ldi r24,lo8(10000)
 6449 0f3c 97E2      		ldi r25,hi8(10000)
 6450               	.LVL492:
 6451               	.L273:
 6452               	.LBE3247:
 6453               	.LBE3246:
 6454               	.LBB3250:
 6455               	.LBB3251:
 6456               	.LBB3252:
 6457               	.LBB3253:
 6458               	.LM783:
 6459 0f3e F801      		movw r30,r16
 6460               	.LVL493:
 6461               	/* #APP */
 6462               	 ;  105 "c:/winavr-20100110/lib/gcc/../../avr/include/util/delay_basic.h" 1
 6463 0f40 3197      		1: sbiw r30,1
 6464 0f42 01F4      		brne 1b
 6465               	 ;  0 "" 2
 6466               	/* #NOAPP */
 6467               	.LBE3253:
 6468               	.LBE3252:
 6469               	.LM784:
 6470 0f44 0197      		sbiw r24,1
 6471               	.LM785:
 6472 0f46 01F4      		brne .L273
 6473 0f48 80E1      		ldi r24,lo8(10000)
 6474 0f4a 97E2      		ldi r25,hi8(10000)
 6475               	.LVL494:
 6476               	.L274:
 6477               	.LBE3251:
 6478               	.LBE3250:
 6479               	.LBB3254:
 6480               	.LBB3255:
 6481               	.LBB3256:
 6482               	.LBB3257:
 6483               	.LM786:
 6484 0f4c F801      		movw r30,r16
 6485               	.LVL495:
 6486               	/* #APP */
 6487               	 ;  105 "c:/winavr-20100110/lib/gcc/../../avr/include/util/delay_basic.h" 1
 6488 0f4e 3197      		1: sbiw r30,1
 6489 0f50 01F4      		brne 1b
 6490               	 ;  0 "" 2
 6491               	/* #NOAPP */
 6492               	.LBE3257:
 6493               	.LBE3256:
 6494               	.LM787:
 6495 0f52 0197      		sbiw r24,1
 6496               	.LM788:
 6497 0f54 01F4      		brne .L274
 6498 0f56 80E1      		ldi r24,lo8(10000)
 6499 0f58 97E2      		ldi r25,hi8(10000)
 6500               	.LVL496:
 6501               	.L275:
 6502               	.LBE3255:
 6503               	.LBE3254:
 6504               	.LBB3258:
 6505               	.LBB3259:
 6506               	.LBB3260:
 6507               	.LBB3261:
 6508               	.LM789:
 6509 0f5a F801      		movw r30,r16
 6510               	.LVL497:
 6511               	/* #APP */
 6512               	 ;  105 "c:/winavr-20100110/lib/gcc/../../avr/include/util/delay_basic.h" 1
 6513 0f5c 3197      		1: sbiw r30,1
 6514 0f5e 01F4      		brne 1b
 6515               	 ;  0 "" 2
 6516               	/* #NOAPP */
 6517               	.LBE3261:
 6518               	.LBE3260:
 6519               	.LM790:
 6520 0f60 0197      		sbiw r24,1
 6521               	.LM791:
 6522 0f62 01F4      		brne .L275
 6523 0f64 80E1      		ldi r24,lo8(10000)
 6524 0f66 97E2      		ldi r25,hi8(10000)
 6525               	.LVL498:
 6526               	.L276:
 6527               	.LBE3259:
 6528               	.LBE3258:
 6529               	.LBB3262:
 6530               	.LBB3263:
 6531               	.LBB3264:
 6532               	.LBB3265:
 6533               	.LM792:
 6534 0f68 F801      		movw r30,r16
 6535               	.LVL499:
 6536               	/* #APP */
 6537               	 ;  105 "c:/winavr-20100110/lib/gcc/../../avr/include/util/delay_basic.h" 1
 6538 0f6a 3197      		1: sbiw r30,1
 6539 0f6c 01F4      		brne 1b
 6540               	 ;  0 "" 2
 6541               	/* #NOAPP */
 6542               	.LBE3265:
 6543               	.LBE3264:
 6544               	.LM793:
 6545 0f6e 0197      		sbiw r24,1
 6546               	.LM794:
 6547 0f70 01F4      		brne .L276
 6548 0f72 80E1      		ldi r24,lo8(10000)
 6549 0f74 97E2      		ldi r25,hi8(10000)
 6550               	.LVL500:
 6551               	.L277:
 6552               	.LBE3263:
 6553               	.LBE3262:
 6554               	.LBB3266:
 6555               	.LBB3267:
 6556               	.LBB3268:
 6557               	.LBB3269:
 6558               	.LM795:
 6559 0f76 F801      		movw r30,r16
 6560               	.LVL501:
 6561               	/* #APP */
 6562               	 ;  105 "c:/winavr-20100110/lib/gcc/../../avr/include/util/delay_basic.h" 1
 6563 0f78 3197      		1: sbiw r30,1
 6564 0f7a 01F4      		brne 1b
 6565               	 ;  0 "" 2
 6566               	/* #NOAPP */
 6567               	.LBE3269:
 6568               	.LBE3268:
 6569               	.LM796:
 6570 0f7c 0197      		sbiw r24,1
 6571               	.LM797:
 6572 0f7e 01F4      		brne .L277
 6573 0f80 80E1      		ldi r24,lo8(10000)
 6574 0f82 97E2      		ldi r25,hi8(10000)
 6575               	.LVL502:
 6576               	.L278:
 6577               	.LBE3267:
 6578               	.LBE3266:
 6579               	.LBB3270:
 6580               	.LBB3271:
 6581               	.LBB3272:
 6582               	.LBB3273:
 6583               	.LM798:
 6584 0f84 F801      		movw r30,r16
 6585               	.LVL503:
 6586               	/* #APP */
 6587               	 ;  105 "c:/winavr-20100110/lib/gcc/../../avr/include/util/delay_basic.h" 1
 6588 0f86 3197      		1: sbiw r30,1
 6589 0f88 01F4      		brne 1b
 6590               	 ;  0 "" 2
 6591               	/* #NOAPP */
 6592               	.LBE3273:
 6593               	.LBE3272:
 6594               	.LM799:
 6595 0f8a 0197      		sbiw r24,1
 6596               	.LM800:
 6597 0f8c 01F4      		brne .L278
 6598 0f8e 80E1      		ldi r24,lo8(10000)
 6599 0f90 97E2      		ldi r25,hi8(10000)
 6600               	.LVL504:
 6601               	.L279:
 6602               	.LBE3271:
 6603               	.LBE3270:
 6604               	.LBB3274:
 6605               	.LBB3275:
 6606               	.LBB3276:
 6607               	.LBB3277:
 6608               	.LM801:
 6609 0f92 F801      		movw r30,r16
 6610               	.LVL505:
 6611               	/* #APP */
 6612               	 ;  105 "c:/winavr-20100110/lib/gcc/../../avr/include/util/delay_basic.h" 1
 6613 0f94 3197      		1: sbiw r30,1
 6614 0f96 01F4      		brne 1b
 6615               	 ;  0 "" 2
 6616               	/* #NOAPP */
 6617               	.LBE3277:
 6618               	.LBE3276:
 6619               	.LM802:
 6620 0f98 0197      		sbiw r24,1
 6621               	.LM803:
 6622 0f9a 01F4      		brne .L279
 6623 0f9c 80E1      		ldi r24,lo8(10000)
 6624 0f9e 97E2      		ldi r25,hi8(10000)
 6625               	.LVL506:
 6626               	.L280:
 6627               	.LBE3275:
 6628               	.LBE3274:
 6629               	.LBB3278:
 6630               	.LBB3279:
 6631               	.LBB3280:
 6632               	.LBB3281:
 6633               	.LM804:
 6634 0fa0 F801      		movw r30,r16
 6635               	.LVL507:
 6636               	/* #APP */
 6637               	 ;  105 "c:/winavr-20100110/lib/gcc/../../avr/include/util/delay_basic.h" 1
 6638 0fa2 3197      		1: sbiw r30,1
 6639 0fa4 01F4      		brne 1b
 6640               	 ;  0 "" 2
 6641               	/* #NOAPP */
 6642               	.LBE3281:
 6643               	.LBE3280:
 6644               	.LM805:
 6645 0fa6 0197      		sbiw r24,1
 6646               	.LM806:
 6647 0fa8 01F4      		brne .L280
 6648 0faa 80E1      		ldi r24,lo8(10000)
 6649 0fac 97E2      		ldi r25,hi8(10000)
 6650               	.LVL508:
 6651               	.L281:
 6652               	.LBE3279:
 6653               	.LBE3278:
 6654               	.LBB3282:
 6655               	.LBB3283:
 6656               	.LBB3284:
 6657               	.LBB3285:
 6658               	.LM807:
 6659 0fae F801      		movw r30,r16
 6660               	.LVL509:
 6661               	/* #APP */
 6662               	 ;  105 "c:/winavr-20100110/lib/gcc/../../avr/include/util/delay_basic.h" 1
 6663 0fb0 3197      		1: sbiw r30,1
 6664 0fb2 01F4      		brne 1b
 6665               	 ;  0 "" 2
 6666               	/* #NOAPP */
 6667               	.LBE3285:
 6668               	.LBE3284:
 6669               	.LM808:
 6670 0fb4 0197      		sbiw r24,1
 6671               	.LM809:
 6672 0fb6 01F4      		brne .L281
 6673 0fb8 80E1      		ldi r24,lo8(10000)
 6674 0fba 97E2      		ldi r25,hi8(10000)
 6675               	.LVL510:
 6676               	.L282:
 6677               	.LBE3283:
 6678               	.LBE3282:
 6679               	.LBB3286:
 6680               	.LBB3287:
 6681               	.LBB3288:
 6682               	.LBB3289:
 6683               	.LM810:
 6684 0fbc F801      		movw r30,r16
 6685               	.LVL511:
 6686               	/* #APP */
 6687               	 ;  105 "c:/winavr-20100110/lib/gcc/../../avr/include/util/delay_basic.h" 1
 6688 0fbe 3197      		1: sbiw r30,1
 6689 0fc0 01F4      		brne 1b
 6690               	 ;  0 "" 2
 6691               	/* #NOAPP */
 6692               	.LBE3289:
 6693               	.LBE3288:
 6694               	.LM811:
 6695 0fc2 0197      		sbiw r24,1
 6696               	.LM812:
 6697 0fc4 01F4      		brne .L282
 6698 0fc6 80E1      		ldi r24,lo8(10000)
 6699 0fc8 97E2      		ldi r25,hi8(10000)
 6700               	.LVL512:
 6701               	.L283:
 6702               	.LBE3287:
 6703               	.LBE3286:
 6704               	.LBB3290:
 6705               	.LBB3291:
 6706               	.LBB3292:
 6707               	.LBB3293:
 6708               	.LM813:
 6709 0fca F801      		movw r30,r16
 6710               	.LVL513:
 6711               	/* #APP */
 6712               	 ;  105 "c:/winavr-20100110/lib/gcc/../../avr/include/util/delay_basic.h" 1
 6713 0fcc 3197      		1: sbiw r30,1
 6714 0fce 01F4      		brne 1b
 6715               	 ;  0 "" 2
 6716               	/* #NOAPP */
 6717               	.LBE3293:
 6718               	.LBE3292:
 6719               	.LM814:
 6720 0fd0 0197      		sbiw r24,1
 6721               	.LM815:
 6722 0fd2 01F4      		brne .L283
 6723 0fd4 80E1      		ldi r24,lo8(10000)
 6724 0fd6 97E2      		ldi r25,hi8(10000)
 6725               	.LVL514:
 6726               	.L284:
 6727               	.LBE3291:
 6728               	.LBE3290:
 6729               	.LBB3294:
 6730               	.LBB3295:
 6731               	.LBB3296:
 6732               	.LBB3297:
 6733               	.LM816:
 6734 0fd8 F801      		movw r30,r16
 6735               	.LVL515:
 6736               	/* #APP */
 6737               	 ;  105 "c:/winavr-20100110/lib/gcc/../../avr/include/util/delay_basic.h" 1
 6738 0fda 3197      		1: sbiw r30,1
 6739 0fdc 01F4      		brne 1b
 6740               	 ;  0 "" 2
 6741               	/* #NOAPP */
 6742               	.LBE3297:
 6743               	.LBE3296:
 6744               	.LM817:
 6745 0fde 0197      		sbiw r24,1
 6746               	.LM818:
 6747 0fe0 01F4      		brne .L284
 6748 0fe2 80E1      		ldi r24,lo8(10000)
 6749 0fe4 97E2      		ldi r25,hi8(10000)
 6750               	.LVL516:
 6751               	.L285:
 6752               	.LBE3295:
 6753               	.LBE3294:
 6754               	.LBB3298:
 6755               	.LBB3299:
 6756               	.LBB3300:
 6757               	.LBB3301:
 6758               	.LM819:
 6759 0fe6 F801      		movw r30,r16
 6760               	.LVL517:
 6761               	/* #APP */
 6762               	 ;  105 "c:/winavr-20100110/lib/gcc/../../avr/include/util/delay_basic.h" 1
 6763 0fe8 3197      		1: sbiw r30,1
 6764 0fea 01F4      		brne 1b
 6765               	 ;  0 "" 2
 6766               	/* #NOAPP */
 6767               	.LBE3301:
 6768               	.LBE3300:
 6769               	.LM820:
 6770 0fec 0197      		sbiw r24,1
 6771               	.LM821:
 6772 0fee 01F4      		brne .L285
 6773 0ff0 80E1      		ldi r24,lo8(10000)
 6774 0ff2 97E2      		ldi r25,hi8(10000)
 6775               	.LVL518:
 6776               	.L286:
 6777               	.LBE3299:
 6778               	.LBE3298:
 6779               	.LBB3302:
 6780               	.LBB3303:
 6781               	.LBB3304:
 6782               	.LBB3305:
 6783               	.LM822:
 6784 0ff4 F801      		movw r30,r16
 6785               	.LVL519:
 6786               	/* #APP */
 6787               	 ;  105 "c:/winavr-20100110/lib/gcc/../../avr/include/util/delay_basic.h" 1
 6788 0ff6 3197      		1: sbiw r30,1
 6789 0ff8 01F4      		brne 1b
 6790               	 ;  0 "" 2
 6791               	/* #NOAPP */
 6792               	.LBE3305:
 6793               	.LBE3304:
 6794               	.LM823:
 6795 0ffa 0197      		sbiw r24,1
 6796               	.LM824:
 6797 0ffc 01F4      		brne .L286
 6798 0ffe 80E1      		ldi r24,lo8(10000)
 6799 1000 97E2      		ldi r25,hi8(10000)
 6800               	.LVL520:
 6801               	.L287:
 6802               	.LBE3303:
 6803               	.LBE3302:
 6804               	.LBB3306:
 6805               	.LBB3307:
 6806               	.LBB3308:
 6807               	.LBB3309:
 6808               	.LM825:
 6809 1002 F801      		movw r30,r16
 6810               	.LVL521:
 6811               	/* #APP */
 6812               	 ;  105 "c:/winavr-20100110/lib/gcc/../../avr/include/util/delay_basic.h" 1
 6813 1004 3197      		1: sbiw r30,1
 6814 1006 01F4      		brne 1b
 6815               	 ;  0 "" 2
 6816               	/* #NOAPP */
 6817               	.LBE3309:
 6818               	.LBE3308:
 6819               	.LM826:
 6820 1008 0197      		sbiw r24,1
 6821               	.LM827:
 6822 100a 01F4      		brne .L287
 6823 100c 80E1      		ldi r24,lo8(10000)
 6824 100e 97E2      		ldi r25,hi8(10000)
 6825               	.LVL522:
 6826               	.L288:
 6827               	.LBE3307:
 6828               	.LBE3306:
 6829               	.LBB3310:
 6830               	.LBB3311:
 6831               	.LBB3312:
 6832               	.LBB3313:
 6833               	.LM828:
 6834 1010 F801      		movw r30,r16
 6835               	.LVL523:
 6836               	/* #APP */
 6837               	 ;  105 "c:/winavr-20100110/lib/gcc/../../avr/include/util/delay_basic.h" 1
 6838 1012 3197      		1: sbiw r30,1
 6839 1014 01F4      		brne 1b
 6840               	 ;  0 "" 2
 6841               	/* #NOAPP */
 6842               	.LBE3313:
 6843               	.LBE3312:
 6844               	.LM829:
 6845 1016 0197      		sbiw r24,1
 6846               	.LM830:
 6847 1018 01F4      		brne .L288
 6848               	.L246:
 6849               	.LBE3311:
 6850               	.LBE3310:
 6851               	.LM831:
 6852 101a C701      		movw r24,r14
 6853 101c B601      		movw r22,r12
 6854 101e 20E0      		ldi r18,lo8(0x41500000)
 6855 1020 30E0      		ldi r19,hi8(0x41500000)
 6856 1022 40E5      		ldi r20,hlo8(0x41500000)
 6857 1024 51E4      		ldi r21,hhi8(0x41500000)
 6858 1026 0E94 0000 		call __gesf2
 6859               	.LVL524:
 6860 102a 8823      		tst r24
 6861 102c 04F4      		brge .+2
 6862 102e 00C0      		rjmp .L289
 6863 1030 C701      		movw r24,r14
 6864 1032 B601      		movw r22,r12
 6865 1034 20E0      		ldi r18,lo8(0x41600000)
 6866 1036 30E0      		ldi r19,hi8(0x41600000)
 6867 1038 40E6      		ldi r20,hlo8(0x41600000)
 6868 103a 51E4      		ldi r21,hhi8(0x41600000)
 6869 103c 0E94 0000 		call __ltsf2
 6870 1040 8823      		tst r24
 6871 1042 04F0      		brlt .+2
 6872 1044 00C0      		rjmp .L289
 6873               	.LM832:
 6874 1046 8CE2      		ldi r24,lo8(44)
 6875 1048 88BB      		out 56-32,r24
 6876 104a 80E1      		ldi r24,lo8(10000)
 6877 104c 97E2      		ldi r25,hi8(10000)
 6878               	.LVL525:
 6879               	.L292:
 6880               	.LBB3314:
 6881               	.LBB3315:
 6882               	.LBB3316:
 6883               	.LBB3317:
 6884               	.LM833:
 6885 104e F801      		movw r30,r16
 6886               	.LVL526:
 6887               	/* #APP */
 6888               	 ;  105 "c:/winavr-20100110/lib/gcc/../../avr/include/util/delay_basic.h" 1
 6889 1050 3197      		1: sbiw r30,1
 6890 1052 01F4      		brne 1b
 6891               	 ;  0 "" 2
 6892               	/* #NOAPP */
 6893               	.LBE3317:
 6894               	.LBE3316:
 6895               	.LM834:
 6896 1054 0197      		sbiw r24,1
 6897               	.LM835:
 6898 1056 01F4      		brne .L292
 6899 1058 80E1      		ldi r24,lo8(10000)
 6900 105a 97E2      		ldi r25,hi8(10000)
 6901               	.LVL527:
 6902               	.L293:
 6903               	.LBE3315:
 6904               	.LBE3314:
 6905               	.LBB3318:
 6906               	.LBB3319:
 6907               	.LBB3320:
 6908               	.LBB3321:
 6909               	.LM836:
 6910 105c F801      		movw r30,r16
 6911               	.LVL528:
 6912               	/* #APP */
 6913               	 ;  105 "c:/winavr-20100110/lib/gcc/../../avr/include/util/delay_basic.h" 1
 6914 105e 3197      		1: sbiw r30,1
 6915 1060 01F4      		brne 1b
 6916               	 ;  0 "" 2
 6917               	/* #NOAPP */
 6918               	.LBE3321:
 6919               	.LBE3320:
 6920               	.LM837:
 6921 1062 0197      		sbiw r24,1
 6922               	.LM838:
 6923 1064 01F4      		brne .L293
 6924 1066 80E1      		ldi r24,lo8(10000)
 6925 1068 97E2      		ldi r25,hi8(10000)
 6926               	.LVL529:
 6927               	.L294:
 6928               	.LBE3319:
 6929               	.LBE3318:
 6930               	.LBB3322:
 6931               	.LBB3323:
 6932               	.LBB3324:
 6933               	.LBB3325:
 6934               	.LM839:
 6935 106a F801      		movw r30,r16
 6936               	.LVL530:
 6937               	/* #APP */
 6938               	 ;  105 "c:/winavr-20100110/lib/gcc/../../avr/include/util/delay_basic.h" 1
 6939 106c 3197      		1: sbiw r30,1
 6940 106e 01F4      		brne 1b
 6941               	 ;  0 "" 2
 6942               	/* #NOAPP */
 6943               	.LBE3325:
 6944               	.LBE3324:
 6945               	.LM840:
 6946 1070 0197      		sbiw r24,1
 6947               	.LM841:
 6948 1072 01F4      		brne .L294
 6949 1074 80E1      		ldi r24,lo8(10000)
 6950 1076 97E2      		ldi r25,hi8(10000)
 6951               	.LVL531:
 6952               	.L295:
 6953               	.LBE3323:
 6954               	.LBE3322:
 6955               	.LBB3326:
 6956               	.LBB3327:
 6957               	.LBB3328:
 6958               	.LBB3329:
 6959               	.LM842:
 6960 1078 F801      		movw r30,r16
 6961               	.LVL532:
 6962               	/* #APP */
 6963               	 ;  105 "c:/winavr-20100110/lib/gcc/../../avr/include/util/delay_basic.h" 1
 6964 107a 3197      		1: sbiw r30,1
 6965 107c 01F4      		brne 1b
 6966               	 ;  0 "" 2
 6967               	/* #NOAPP */
 6968               	.LBE3329:
 6969               	.LBE3328:
 6970               	.LM843:
 6971 107e 0197      		sbiw r24,1
 6972               	.LM844:
 6973 1080 01F4      		brne .L295
 6974 1082 80E1      		ldi r24,lo8(10000)
 6975 1084 97E2      		ldi r25,hi8(10000)
 6976               	.LVL533:
 6977               	.L296:
 6978               	.LBE3327:
 6979               	.LBE3326:
 6980               	.LBB3330:
 6981               	.LBB3331:
 6982               	.LBB3332:
 6983               	.LBB3333:
 6984               	.LM845:
 6985 1086 F801      		movw r30,r16
 6986               	.LVL534:
 6987               	/* #APP */
 6988               	 ;  105 "c:/winavr-20100110/lib/gcc/../../avr/include/util/delay_basic.h" 1
 6989 1088 3197      		1: sbiw r30,1
 6990 108a 01F4      		brne 1b
 6991               	 ;  0 "" 2
 6992               	/* #NOAPP */
 6993               	.LBE3333:
 6994               	.LBE3332:
 6995               	.LM846:
 6996 108c 0197      		sbiw r24,1
 6997               	.LM847:
 6998 108e 01F4      		brne .L296
 6999 1090 80E1      		ldi r24,lo8(10000)
 7000 1092 97E2      		ldi r25,hi8(10000)
 7001               	.LVL535:
 7002               	.L297:
 7003               	.LBE3331:
 7004               	.LBE3330:
 7005               	.LBB3334:
 7006               	.LBB3335:
 7007               	.LBB3336:
 7008               	.LBB3337:
 7009               	.LM848:
 7010 1094 F801      		movw r30,r16
 7011               	.LVL536:
 7012               	/* #APP */
 7013               	 ;  105 "c:/winavr-20100110/lib/gcc/../../avr/include/util/delay_basic.h" 1
 7014 1096 3197      		1: sbiw r30,1
 7015 1098 01F4      		brne 1b
 7016               	 ;  0 "" 2
 7017               	/* #NOAPP */
 7018               	.LBE3337:
 7019               	.LBE3336:
 7020               	.LM849:
 7021 109a 0197      		sbiw r24,1
 7022               	.LM850:
 7023 109c 01F4      		brne .L297
 7024 109e 80E1      		ldi r24,lo8(10000)
 7025 10a0 97E2      		ldi r25,hi8(10000)
 7026               	.LVL537:
 7027               	.L298:
 7028               	.LBE3335:
 7029               	.LBE3334:
 7030               	.LBB3338:
 7031               	.LBB3339:
 7032               	.LBB3340:
 7033               	.LBB3341:
 7034               	.LM851:
 7035 10a2 F801      		movw r30,r16
 7036               	.LVL538:
 7037               	/* #APP */
 7038               	 ;  105 "c:/winavr-20100110/lib/gcc/../../avr/include/util/delay_basic.h" 1
 7039 10a4 3197      		1: sbiw r30,1
 7040 10a6 01F4      		brne 1b
 7041               	 ;  0 "" 2
 7042               	/* #NOAPP */
 7043               	.LBE3341:
 7044               	.LBE3340:
 7045               	.LM852:
 7046 10a8 0197      		sbiw r24,1
 7047               	.LM853:
 7048 10aa 01F4      		brne .L298
 7049 10ac 80E1      		ldi r24,lo8(10000)
 7050 10ae 97E2      		ldi r25,hi8(10000)
 7051               	.LVL539:
 7052               	.L299:
 7053               	.LBE3339:
 7054               	.LBE3338:
 7055               	.LBB3342:
 7056               	.LBB3343:
 7057               	.LBB3344:
 7058               	.LBB3345:
 7059               	.LM854:
 7060 10b0 F801      		movw r30,r16
 7061               	.LVL540:
 7062               	/* #APP */
 7063               	 ;  105 "c:/winavr-20100110/lib/gcc/../../avr/include/util/delay_basic.h" 1
 7064 10b2 3197      		1: sbiw r30,1
 7065 10b4 01F4      		brne 1b
 7066               	 ;  0 "" 2
 7067               	/* #NOAPP */
 7068               	.LBE3345:
 7069               	.LBE3344:
 7070               	.LM855:
 7071 10b6 0197      		sbiw r24,1
 7072               	.LM856:
 7073 10b8 01F4      		brne .L299
 7074 10ba 80E1      		ldi r24,lo8(10000)
 7075 10bc 97E2      		ldi r25,hi8(10000)
 7076               	.LVL541:
 7077               	.L300:
 7078               	.LBE3343:
 7079               	.LBE3342:
 7080               	.LBB3346:
 7081               	.LBB3347:
 7082               	.LBB3348:
 7083               	.LBB3349:
 7084               	.LM857:
 7085 10be F801      		movw r30,r16
 7086               	.LVL542:
 7087               	/* #APP */
 7088               	 ;  105 "c:/winavr-20100110/lib/gcc/../../avr/include/util/delay_basic.h" 1
 7089 10c0 3197      		1: sbiw r30,1
 7090 10c2 01F4      		brne 1b
 7091               	 ;  0 "" 2
 7092               	/* #NOAPP */
 7093               	.LBE3349:
 7094               	.LBE3348:
 7095               	.LM858:
 7096 10c4 0197      		sbiw r24,1
 7097               	.LM859:
 7098 10c6 01F4      		brne .L300
 7099 10c8 80E1      		ldi r24,lo8(10000)
 7100 10ca 97E2      		ldi r25,hi8(10000)
 7101               	.LVL543:
 7102               	.L301:
 7103               	.LBE3347:
 7104               	.LBE3346:
 7105               	.LBB3350:
 7106               	.LBB3351:
 7107               	.LBB3352:
 7108               	.LBB3353:
 7109               	.LM860:
 7110 10cc F801      		movw r30,r16
 7111               	.LVL544:
 7112               	/* #APP */
 7113               	 ;  105 "c:/winavr-20100110/lib/gcc/../../avr/include/util/delay_basic.h" 1
 7114 10ce 3197      		1: sbiw r30,1
 7115 10d0 01F4      		brne 1b
 7116               	 ;  0 "" 2
 7117               	/* #NOAPP */
 7118               	.LBE3353:
 7119               	.LBE3352:
 7120               	.LM861:
 7121 10d2 0197      		sbiw r24,1
 7122               	.LM862:
 7123 10d4 01F4      		brne .L301
 7124 10d6 80E1      		ldi r24,lo8(10000)
 7125 10d8 97E2      		ldi r25,hi8(10000)
 7126               	.LVL545:
 7127               	.L302:
 7128               	.LBE3351:
 7129               	.LBE3350:
 7130               	.LBB3354:
 7131               	.LBB3355:
 7132               	.LBB3356:
 7133               	.LBB3357:
 7134               	.LM863:
 7135 10da F801      		movw r30,r16
 7136               	.LVL546:
 7137               	/* #APP */
 7138               	 ;  105 "c:/winavr-20100110/lib/gcc/../../avr/include/util/delay_basic.h" 1
 7139 10dc 3197      		1: sbiw r30,1
 7140 10de 01F4      		brne 1b
 7141               	 ;  0 "" 2
 7142               	/* #NOAPP */
 7143               	.LBE3357:
 7144               	.LBE3356:
 7145               	.LM864:
 7146 10e0 0197      		sbiw r24,1
 7147               	.LM865:
 7148 10e2 01F4      		brne .L302
 7149 10e4 80E1      		ldi r24,lo8(10000)
 7150 10e6 97E2      		ldi r25,hi8(10000)
 7151               	.LVL547:
 7152               	.L303:
 7153               	.LBE3355:
 7154               	.LBE3354:
 7155               	.LBB3358:
 7156               	.LBB3359:
 7157               	.LBB3360:
 7158               	.LBB3361:
 7159               	.LM866:
 7160 10e8 F801      		movw r30,r16
 7161               	.LVL548:
 7162               	/* #APP */
 7163               	 ;  105 "c:/winavr-20100110/lib/gcc/../../avr/include/util/delay_basic.h" 1
 7164 10ea 3197      		1: sbiw r30,1
 7165 10ec 01F4      		brne 1b
 7166               	 ;  0 "" 2
 7167               	/* #NOAPP */
 7168               	.LBE3361:
 7169               	.LBE3360:
 7170               	.LM867:
 7171 10ee 0197      		sbiw r24,1
 7172               	.LM868:
 7173 10f0 01F4      		brne .L303
 7174 10f2 80E1      		ldi r24,lo8(10000)
 7175 10f4 97E2      		ldi r25,hi8(10000)
 7176               	.LVL549:
 7177               	.L304:
 7178               	.LBE3359:
 7179               	.LBE3358:
 7180               	.LBB3362:
 7181               	.LBB3363:
 7182               	.LBB3364:
 7183               	.LBB3365:
 7184               	.LM869:
 7185 10f6 F801      		movw r30,r16
 7186               	.LVL550:
 7187               	/* #APP */
 7188               	 ;  105 "c:/winavr-20100110/lib/gcc/../../avr/include/util/delay_basic.h" 1
 7189 10f8 3197      		1: sbiw r30,1
 7190 10fa 01F4      		brne 1b
 7191               	 ;  0 "" 2
 7192               	/* #NOAPP */
 7193               	.LBE3365:
 7194               	.LBE3364:
 7195               	.LM870:
 7196 10fc 0197      		sbiw r24,1
 7197               	.LM871:
 7198 10fe 01F4      		brne .L304
 7199 1100 80E1      		ldi r24,lo8(10000)
 7200 1102 97E2      		ldi r25,hi8(10000)
 7201               	.LVL551:
 7202               	.L305:
 7203               	.LBE3363:
 7204               	.LBE3362:
 7205               	.LBB3366:
 7206               	.LBB3367:
 7207               	.LBB3368:
 7208               	.LBB3369:
 7209               	.LM872:
 7210 1104 F801      		movw r30,r16
 7211               	.LVL552:
 7212               	/* #APP */
 7213               	 ;  105 "c:/winavr-20100110/lib/gcc/../../avr/include/util/delay_basic.h" 1
 7214 1106 3197      		1: sbiw r30,1
 7215 1108 01F4      		brne 1b
 7216               	 ;  0 "" 2
 7217               	/* #NOAPP */
 7218               	.LBE3369:
 7219               	.LBE3368:
 7220               	.LM873:
 7221 110a 0197      		sbiw r24,1
 7222               	.LM874:
 7223 110c 01F4      		brne .L305
 7224 110e 80E1      		ldi r24,lo8(10000)
 7225 1110 97E2      		ldi r25,hi8(10000)
 7226               	.LVL553:
 7227               	.L306:
 7228               	.LBE3367:
 7229               	.LBE3366:
 7230               	.LBB3370:
 7231               	.LBB3371:
 7232               	.LBB3372:
 7233               	.LBB3373:
 7234               	.LM875:
 7235 1112 F801      		movw r30,r16
 7236               	.LVL554:
 7237               	/* #APP */
 7238               	 ;  105 "c:/winavr-20100110/lib/gcc/../../avr/include/util/delay_basic.h" 1
 7239 1114 3197      		1: sbiw r30,1
 7240 1116 01F4      		brne 1b
 7241               	 ;  0 "" 2
 7242               	/* #NOAPP */
 7243               	.LBE3373:
 7244               	.LBE3372:
 7245               	.LM876:
 7246 1118 0197      		sbiw r24,1
 7247               	.LM877:
 7248 111a 01F4      		brne .L306
 7249 111c 80E1      		ldi r24,lo8(10000)
 7250 111e 97E2      		ldi r25,hi8(10000)
 7251               	.LVL555:
 7252               	.L307:
 7253               	.LBE3371:
 7254               	.LBE3370:
 7255               	.LBB3374:
 7256               	.LBB3375:
 7257               	.LBB3376:
 7258               	.LBB3377:
 7259               	.LM878:
 7260 1120 F801      		movw r30,r16
 7261               	.LVL556:
 7262               	/* #APP */
 7263               	 ;  105 "c:/winavr-20100110/lib/gcc/../../avr/include/util/delay_basic.h" 1
 7264 1122 3197      		1: sbiw r30,1
 7265 1124 01F4      		brne 1b
 7266               	 ;  0 "" 2
 7267               	/* #NOAPP */
 7268               	.LBE3377:
 7269               	.LBE3376:
 7270               	.LM879:
 7271 1126 0197      		sbiw r24,1
 7272               	.LM880:
 7273 1128 01F4      		brne .L307
 7274 112a 80E1      		ldi r24,lo8(10000)
 7275 112c 97E2      		ldi r25,hi8(10000)
 7276               	.LVL557:
 7277               	.L308:
 7278               	.LBE3375:
 7279               	.LBE3374:
 7280               	.LBB3378:
 7281               	.LBB3379:
 7282               	.LBB3380:
 7283               	.LBB3381:
 7284               	.LM881:
 7285 112e F801      		movw r30,r16
 7286               	.LVL558:
 7287               	/* #APP */
 7288               	 ;  105 "c:/winavr-20100110/lib/gcc/../../avr/include/util/delay_basic.h" 1
 7289 1130 3197      		1: sbiw r30,1
 7290 1132 01F4      		brne 1b
 7291               	 ;  0 "" 2
 7292               	/* #NOAPP */
 7293               	.LBE3381:
 7294               	.LBE3380:
 7295               	.LM882:
 7296 1134 0197      		sbiw r24,1
 7297               	.LM883:
 7298 1136 01F4      		brne .L308
 7299 1138 80E1      		ldi r24,lo8(10000)
 7300 113a 97E2      		ldi r25,hi8(10000)
 7301               	.LVL559:
 7302               	.L309:
 7303               	.LBE3379:
 7304               	.LBE3378:
 7305               	.LBB3382:
 7306               	.LBB3383:
 7307               	.LBB3384:
 7308               	.LBB3385:
 7309               	.LM884:
 7310 113c F801      		movw r30,r16
 7311               	.LVL560:
 7312               	/* #APP */
 7313               	 ;  105 "c:/winavr-20100110/lib/gcc/../../avr/include/util/delay_basic.h" 1
 7314 113e 3197      		1: sbiw r30,1
 7315 1140 01F4      		brne 1b
 7316               	 ;  0 "" 2
 7317               	/* #NOAPP */
 7318               	.LBE3385:
 7319               	.LBE3384:
 7320               	.LM885:
 7321 1142 0197      		sbiw r24,1
 7322               	.LM886:
 7323 1144 01F4      		brne .L309
 7324 1146 80E1      		ldi r24,lo8(10000)
 7325 1148 97E2      		ldi r25,hi8(10000)
 7326               	.LVL561:
 7327               	.L310:
 7328               	.LBE3383:
 7329               	.LBE3382:
 7330               	.LBB3386:
 7331               	.LBB3387:
 7332               	.LBB3388:
 7333               	.LBB3389:
 7334               	.LM887:
 7335 114a F801      		movw r30,r16
 7336               	.LVL562:
 7337               	/* #APP */
 7338               	 ;  105 "c:/winavr-20100110/lib/gcc/../../avr/include/util/delay_basic.h" 1
 7339 114c 3197      		1: sbiw r30,1
 7340 114e 01F4      		brne 1b
 7341               	 ;  0 "" 2
 7342               	/* #NOAPP */
 7343               	.LBE3389:
 7344               	.LBE3388:
 7345               	.LM888:
 7346 1150 0197      		sbiw r24,1
 7347               	.LM889:
 7348 1152 01F4      		brne .L310
 7349 1154 80E1      		ldi r24,lo8(10000)
 7350 1156 97E2      		ldi r25,hi8(10000)
 7351               	.LVL563:
 7352               	.L311:
 7353               	.LBE3387:
 7354               	.LBE3386:
 7355               	.LBB3390:
 7356               	.LBB3391:
 7357               	.LBB3392:
 7358               	.LBB3393:
 7359               	.LM890:
 7360 1158 F801      		movw r30,r16
 7361               	.LVL564:
 7362               	/* #APP */
 7363               	 ;  105 "c:/winavr-20100110/lib/gcc/../../avr/include/util/delay_basic.h" 1
 7364 115a 3197      		1: sbiw r30,1
 7365 115c 01F4      		brne 1b
 7366               	 ;  0 "" 2
 7367               	/* #NOAPP */
 7368               	.LBE3393:
 7369               	.LBE3392:
 7370               	.LM891:
 7371 115e 0197      		sbiw r24,1
 7372               	.LM892:
 7373 1160 01F4      		brne .L311
 7374 1162 80E1      		ldi r24,lo8(10000)
 7375 1164 97E2      		ldi r25,hi8(10000)
 7376               	.LVL565:
 7377               	.L312:
 7378               	.LBE3391:
 7379               	.LBE3390:
 7380               	.LBB3394:
 7381               	.LBB3395:
 7382               	.LBB3396:
 7383               	.LBB3397:
 7384               	.LM893:
 7385 1166 F801      		movw r30,r16
 7386               	.LVL566:
 7387               	/* #APP */
 7388               	 ;  105 "c:/winavr-20100110/lib/gcc/../../avr/include/util/delay_basic.h" 1
 7389 1168 3197      		1: sbiw r30,1
 7390 116a 01F4      		brne 1b
 7391               	 ;  0 "" 2
 7392               	/* #NOAPP */
 7393               	.LBE3397:
 7394               	.LBE3396:
 7395               	.LM894:
 7396 116c 0197      		sbiw r24,1
 7397               	.LM895:
 7398 116e 01F4      		brne .L312
 7399 1170 80E1      		ldi r24,lo8(10000)
 7400 1172 97E2      		ldi r25,hi8(10000)
 7401               	.LVL567:
 7402               	.L313:
 7403               	.LBE3395:
 7404               	.LBE3394:
 7405               	.LBB3398:
 7406               	.LBB3399:
 7407               	.LBB3400:
 7408               	.LBB3401:
 7409               	.LM896:
 7410 1174 F801      		movw r30,r16
 7411               	.LVL568:
 7412               	/* #APP */
 7413               	 ;  105 "c:/winavr-20100110/lib/gcc/../../avr/include/util/delay_basic.h" 1
 7414 1176 3197      		1: sbiw r30,1
 7415 1178 01F4      		brne 1b
 7416               	 ;  0 "" 2
 7417               	/* #NOAPP */
 7418               	.LBE3401:
 7419               	.LBE3400:
 7420               	.LM897:
 7421 117a 0197      		sbiw r24,1
 7422               	.LM898:
 7423 117c 01F4      		brne .L313
 7424 117e 80E1      		ldi r24,lo8(10000)
 7425 1180 97E2      		ldi r25,hi8(10000)
 7426               	.LVL569:
 7427               	.L314:
 7428               	.LBE3399:
 7429               	.LBE3398:
 7430               	.LBB3402:
 7431               	.LBB3403:
 7432               	.LBB3404:
 7433               	.LBB3405:
 7434               	.LM899:
 7435 1182 F801      		movw r30,r16
 7436               	.LVL570:
 7437               	/* #APP */
 7438               	 ;  105 "c:/winavr-20100110/lib/gcc/../../avr/include/util/delay_basic.h" 1
 7439 1184 3197      		1: sbiw r30,1
 7440 1186 01F4      		brne 1b
 7441               	 ;  0 "" 2
 7442               	/* #NOAPP */
 7443               	.LBE3405:
 7444               	.LBE3404:
 7445               	.LM900:
 7446 1188 0197      		sbiw r24,1
 7447               	.LM901:
 7448 118a 01F4      		brne .L314
 7449 118c 80E1      		ldi r24,lo8(10000)
 7450 118e 97E2      		ldi r25,hi8(10000)
 7451               	.LVL571:
 7452               	.L315:
 7453               	.LBE3403:
 7454               	.LBE3402:
 7455               	.LBB3406:
 7456               	.LBB3407:
 7457               	.LBB3408:
 7458               	.LBB3409:
 7459               	.LM902:
 7460 1190 F801      		movw r30,r16
 7461               	.LVL572:
 7462               	/* #APP */
 7463               	 ;  105 "c:/winavr-20100110/lib/gcc/../../avr/include/util/delay_basic.h" 1
 7464 1192 3197      		1: sbiw r30,1
 7465 1194 01F4      		brne 1b
 7466               	 ;  0 "" 2
 7467               	/* #NOAPP */
 7468               	.LBE3409:
 7469               	.LBE3408:
 7470               	.LM903:
 7471 1196 0197      		sbiw r24,1
 7472               	.LM904:
 7473 1198 01F4      		brne .L315
 7474 119a 80E1      		ldi r24,lo8(10000)
 7475 119c 97E2      		ldi r25,hi8(10000)
 7476               	.LVL573:
 7477               	.L316:
 7478               	.LBE3407:
 7479               	.LBE3406:
 7480               	.LBB3410:
 7481               	.LBB3411:
 7482               	.LBB3412:
 7483               	.LBB3413:
 7484               	.LM905:
 7485 119e F801      		movw r30,r16
 7486               	.LVL574:
 7487               	/* #APP */
 7488               	 ;  105 "c:/winavr-20100110/lib/gcc/../../avr/include/util/delay_basic.h" 1
 7489 11a0 3197      		1: sbiw r30,1
 7490 11a2 01F4      		brne 1b
 7491               	 ;  0 "" 2
 7492               	/* #NOAPP */
 7493               	.LBE3413:
 7494               	.LBE3412:
 7495               	.LM906:
 7496 11a4 0197      		sbiw r24,1
 7497               	.LM907:
 7498 11a6 01F4      		brne .L316
 7499 11a8 80E1      		ldi r24,lo8(10000)
 7500 11aa 97E2      		ldi r25,hi8(10000)
 7501               	.LVL575:
 7502               	.L317:
 7503               	.LBE3411:
 7504               	.LBE3410:
 7505               	.LBB3414:
 7506               	.LBB3415:
 7507               	.LBB3416:
 7508               	.LBB3417:
 7509               	.LM908:
 7510 11ac F801      		movw r30,r16
 7511               	.LVL576:
 7512               	/* #APP */
 7513               	 ;  105 "c:/winavr-20100110/lib/gcc/../../avr/include/util/delay_basic.h" 1
 7514 11ae 3197      		1: sbiw r30,1
 7515 11b0 01F4      		brne 1b
 7516               	 ;  0 "" 2
 7517               	/* #NOAPP */
 7518               	.LBE3417:
 7519               	.LBE3416:
 7520               	.LM909:
 7521 11b2 0197      		sbiw r24,1
 7522               	.LM910:
 7523 11b4 01F4      		brne .L317
 7524 11b6 80E1      		ldi r24,lo8(10000)
 7525 11b8 97E2      		ldi r25,hi8(10000)
 7526               	.LVL577:
 7527               	.L318:
 7528               	.LBE3415:
 7529               	.LBE3414:
 7530               	.LBB3418:
 7531               	.LBB3419:
 7532               	.LBB3420:
 7533               	.LBB3421:
 7534               	.LM911:
 7535 11ba F801      		movw r30,r16
 7536               	.LVL578:
 7537               	/* #APP */
 7538               	 ;  105 "c:/winavr-20100110/lib/gcc/../../avr/include/util/delay_basic.h" 1
 7539 11bc 3197      		1: sbiw r30,1
 7540 11be 01F4      		brne 1b
 7541               	 ;  0 "" 2
 7542               	/* #NOAPP */
 7543               	.LBE3421:
 7544               	.LBE3420:
 7545               	.LM912:
 7546 11c0 0197      		sbiw r24,1
 7547               	.LM913:
 7548 11c2 01F4      		brne .L318
 7549 11c4 80E1      		ldi r24,lo8(10000)
 7550 11c6 97E2      		ldi r25,hi8(10000)
 7551               	.LVL579:
 7552               	.L319:
 7553               	.LBE3419:
 7554               	.LBE3418:
 7555               	.LBB3422:
 7556               	.LBB3423:
 7557               	.LBB3424:
 7558               	.LBB3425:
 7559               	.LM914:
 7560 11c8 F801      		movw r30,r16
 7561               	.LVL580:
 7562               	/* #APP */
 7563               	 ;  105 "c:/winavr-20100110/lib/gcc/../../avr/include/util/delay_basic.h" 1
 7564 11ca 3197      		1: sbiw r30,1
 7565 11cc 01F4      		brne 1b
 7566               	 ;  0 "" 2
 7567               	/* #NOAPP */
 7568               	.LBE3425:
 7569               	.LBE3424:
 7570               	.LM915:
 7571 11ce 0197      		sbiw r24,1
 7572               	.LM916:
 7573 11d0 01F4      		brne .L319
 7574 11d2 80E1      		ldi r24,lo8(10000)
 7575 11d4 97E2      		ldi r25,hi8(10000)
 7576               	.LVL581:
 7577               	.L320:
 7578               	.LBE3423:
 7579               	.LBE3422:
 7580               	.LBB3426:
 7581               	.LBB3427:
 7582               	.LBB3428:
 7583               	.LBB3429:
 7584               	.LM917:
 7585 11d6 F801      		movw r30,r16
 7586               	.LVL582:
 7587               	/* #APP */
 7588               	 ;  105 "c:/winavr-20100110/lib/gcc/../../avr/include/util/delay_basic.h" 1
 7589 11d8 3197      		1: sbiw r30,1
 7590 11da 01F4      		brne 1b
 7591               	 ;  0 "" 2
 7592               	/* #NOAPP */
 7593               	.LBE3429:
 7594               	.LBE3428:
 7595               	.LM918:
 7596 11dc 0197      		sbiw r24,1
 7597               	.LM919:
 7598 11de 01F4      		brne .L320
 7599 11e0 80E1      		ldi r24,lo8(10000)
 7600 11e2 97E2      		ldi r25,hi8(10000)
 7601               	.LVL583:
 7602               	.L321:
 7603               	.LBE3427:
 7604               	.LBE3426:
 7605               	.LBB3430:
 7606               	.LBB3431:
 7607               	.LBB3432:
 7608               	.LBB3433:
 7609               	.LM920:
 7610 11e4 F801      		movw r30,r16
 7611               	.LVL584:
 7612               	/* #APP */
 7613               	 ;  105 "c:/winavr-20100110/lib/gcc/../../avr/include/util/delay_basic.h" 1
 7614 11e6 3197      		1: sbiw r30,1
 7615 11e8 01F4      		brne 1b
 7616               	 ;  0 "" 2
 7617               	/* #NOAPP */
 7618               	.LBE3433:
 7619               	.LBE3432:
 7620               	.LM921:
 7621 11ea 0197      		sbiw r24,1
 7622               	.LM922:
 7623 11ec 01F4      		brne .L321
 7624 11ee 80E1      		ldi r24,lo8(10000)
 7625 11f0 97E2      		ldi r25,hi8(10000)
 7626               	.LVL585:
 7627               	.L322:
 7628               	.LBE3431:
 7629               	.LBE3430:
 7630               	.LBB3434:
 7631               	.LBB3435:
 7632               	.LBB3436:
 7633               	.LBB3437:
 7634               	.LM923:
 7635 11f2 F801      		movw r30,r16
 7636               	.LVL586:
 7637               	/* #APP */
 7638               	 ;  105 "c:/winavr-20100110/lib/gcc/../../avr/include/util/delay_basic.h" 1
 7639 11f4 3197      		1: sbiw r30,1
 7640 11f6 01F4      		brne 1b
 7641               	 ;  0 "" 2
 7642               	/* #NOAPP */
 7643               	.LBE3437:
 7644               	.LBE3436:
 7645               	.LM924:
 7646 11f8 0197      		sbiw r24,1
 7647               	.LM925:
 7648 11fa 01F4      		brne .L322
 7649 11fc 80E1      		ldi r24,lo8(10000)
 7650 11fe 97E2      		ldi r25,hi8(10000)
 7651               	.LVL587:
 7652               	.L323:
 7653               	.LBE3435:
 7654               	.LBE3434:
 7655               	.LBB3438:
 7656               	.LBB3439:
 7657               	.LBB3440:
 7658               	.LBB3441:
 7659               	.LM926:
 7660 1200 F801      		movw r30,r16
 7661               	.LVL588:
 7662               	/* #APP */
 7663               	 ;  105 "c:/winavr-20100110/lib/gcc/../../avr/include/util/delay_basic.h" 1
 7664 1202 3197      		1: sbiw r30,1
 7665 1204 01F4      		brne 1b
 7666               	 ;  0 "" 2
 7667               	/* #NOAPP */
 7668               	.LBE3441:
 7669               	.LBE3440:
 7670               	.LM927:
 7671 1206 0197      		sbiw r24,1
 7672               	.LM928:
 7673 1208 01F4      		brne .L323
 7674 120a 80E1      		ldi r24,lo8(10000)
 7675 120c 97E2      		ldi r25,hi8(10000)
 7676               	.LVL589:
 7677               	.L324:
 7678               	.LBE3439:
 7679               	.LBE3438:
 7680               	.LBB3442:
 7681               	.LBB3443:
 7682               	.LBB3444:
 7683               	.LBB3445:
 7684               	.LM929:
 7685 120e F801      		movw r30,r16
 7686               	.LVL590:
 7687               	/* #APP */
 7688               	 ;  105 "c:/winavr-20100110/lib/gcc/../../avr/include/util/delay_basic.h" 1
 7689 1210 3197      		1: sbiw r30,1
 7690 1212 01F4      		brne 1b
 7691               	 ;  0 "" 2
 7692               	/* #NOAPP */
 7693               	.LBE3445:
 7694               	.LBE3444:
 7695               	.LM930:
 7696 1214 0197      		sbiw r24,1
 7697               	.LM931:
 7698 1216 01F4      		brne .L324
 7699 1218 80E1      		ldi r24,lo8(10000)
 7700 121a 97E2      		ldi r25,hi8(10000)
 7701               	.LVL591:
 7702               	.L325:
 7703               	.LBE3443:
 7704               	.LBE3442:
 7705               	.LBB3446:
 7706               	.LBB3447:
 7707               	.LBB3448:
 7708               	.LBB3449:
 7709               	.LM932:
 7710 121c F801      		movw r30,r16
 7711               	.LVL592:
 7712               	/* #APP */
 7713               	 ;  105 "c:/winavr-20100110/lib/gcc/../../avr/include/util/delay_basic.h" 1
 7714 121e 3197      		1: sbiw r30,1
 7715 1220 01F4      		brne 1b
 7716               	 ;  0 "" 2
 7717               	/* #NOAPP */
 7718               	.LBE3449:
 7719               	.LBE3448:
 7720               	.LM933:
 7721 1222 0197      		sbiw r24,1
 7722               	.LM934:
 7723 1224 01F4      		brne .L325
 7724 1226 80E1      		ldi r24,lo8(10000)
 7725 1228 97E2      		ldi r25,hi8(10000)
 7726               	.LVL593:
 7727               	.L326:
 7728               	.LBE3447:
 7729               	.LBE3446:
 7730               	.LBB3450:
 7731               	.LBB3451:
 7732               	.LBB3452:
 7733               	.LBB3453:
 7734               	.LM935:
 7735 122a F801      		movw r30,r16
 7736               	.LVL594:
 7737               	/* #APP */
 7738               	 ;  105 "c:/winavr-20100110/lib/gcc/../../avr/include/util/delay_basic.h" 1
 7739 122c 3197      		1: sbiw r30,1
 7740 122e 01F4      		brne 1b
 7741               	 ;  0 "" 2
 7742               	/* #NOAPP */
 7743               	.LBE3453:
 7744               	.LBE3452:
 7745               	.LM936:
 7746 1230 0197      		sbiw r24,1
 7747               	.LM937:
 7748 1232 01F4      		brne .L326
 7749 1234 80E1      		ldi r24,lo8(10000)
 7750 1236 97E2      		ldi r25,hi8(10000)
 7751               	.LVL595:
 7752               	.L327:
 7753               	.LBE3451:
 7754               	.LBE3450:
 7755               	.LBB3454:
 7756               	.LBB3455:
 7757               	.LBB3456:
 7758               	.LBB3457:
 7759               	.LM938:
 7760 1238 F801      		movw r30,r16
 7761               	.LVL596:
 7762               	/* #APP */
 7763               	 ;  105 "c:/winavr-20100110/lib/gcc/../../avr/include/util/delay_basic.h" 1
 7764 123a 3197      		1: sbiw r30,1
 7765 123c 01F4      		brne 1b
 7766               	 ;  0 "" 2
 7767               	/* #NOAPP */
 7768               	.LBE3457:
 7769               	.LBE3456:
 7770               	.LM939:
 7771 123e 0197      		sbiw r24,1
 7772               	.LM940:
 7773 1240 01F4      		brne .L327
 7774 1242 80E1      		ldi r24,lo8(10000)
 7775 1244 97E2      		ldi r25,hi8(10000)
 7776               	.LVL597:
 7777               	.L328:
 7778               	.LBE3455:
 7779               	.LBE3454:
 7780               	.LBB3458:
 7781               	.LBB3459:
 7782               	.LBB3460:
 7783               	.LBB3461:
 7784               	.LM941:
 7785 1246 F801      		movw r30,r16
 7786               	.LVL598:
 7787               	/* #APP */
 7788               	 ;  105 "c:/winavr-20100110/lib/gcc/../../avr/include/util/delay_basic.h" 1
 7789 1248 3197      		1: sbiw r30,1
 7790 124a 01F4      		brne 1b
 7791               	 ;  0 "" 2
 7792               	/* #NOAPP */
 7793               	.LBE3461:
 7794               	.LBE3460:
 7795               	.LM942:
 7796 124c 0197      		sbiw r24,1
 7797               	.LM943:
 7798 124e 01F4      		brne .L328
 7799 1250 80E1      		ldi r24,lo8(10000)
 7800 1252 97E2      		ldi r25,hi8(10000)
 7801               	.LVL599:
 7802               	.L329:
 7803               	.LBE3459:
 7804               	.LBE3458:
 7805               	.LBB3462:
 7806               	.LBB3463:
 7807               	.LBB3464:
 7808               	.LBB3465:
 7809               	.LM944:
 7810 1254 F801      		movw r30,r16
 7811               	.LVL600:
 7812               	/* #APP */
 7813               	 ;  105 "c:/winavr-20100110/lib/gcc/../../avr/include/util/delay_basic.h" 1
 7814 1256 3197      		1: sbiw r30,1
 7815 1258 01F4      		brne 1b
 7816               	 ;  0 "" 2
 7817               	/* #NOAPP */
 7818               	.LBE3465:
 7819               	.LBE3464:
 7820               	.LM945:
 7821 125a 0197      		sbiw r24,1
 7822               	.LM946:
 7823 125c 01F4      		brne .L329
 7824 125e 80E1      		ldi r24,lo8(10000)
 7825 1260 97E2      		ldi r25,hi8(10000)
 7826               	.LVL601:
 7827               	.L330:
 7828               	.LBE3463:
 7829               	.LBE3462:
 7830               	.LBB3466:
 7831               	.LBB3467:
 7832               	.LBB3468:
 7833               	.LBB3469:
 7834               	.LM947:
 7835 1262 F801      		movw r30,r16
 7836               	.LVL602:
 7837               	/* #APP */
 7838               	 ;  105 "c:/winavr-20100110/lib/gcc/../../avr/include/util/delay_basic.h" 1
 7839 1264 3197      		1: sbiw r30,1
 7840 1266 01F4      		brne 1b
 7841               	 ;  0 "" 2
 7842               	/* #NOAPP */
 7843               	.LBE3469:
 7844               	.LBE3468:
 7845               	.LM948:
 7846 1268 0197      		sbiw r24,1
 7847               	.LM949:
 7848 126a 01F4      		brne .L330
 7849 126c 80E1      		ldi r24,lo8(10000)
 7850 126e 97E2      		ldi r25,hi8(10000)
 7851               	.LVL603:
 7852               	.L331:
 7853               	.LBE3467:
 7854               	.LBE3466:
 7855               	.LBB3470:
 7856               	.LBB3471:
 7857               	.LBB3472:
 7858               	.LBB3473:
 7859               	.LM950:
 7860 1270 F801      		movw r30,r16
 7861               	.LVL604:
 7862               	/* #APP */
 7863               	 ;  105 "c:/winavr-20100110/lib/gcc/../../avr/include/util/delay_basic.h" 1
 7864 1272 3197      		1: sbiw r30,1
 7865 1274 01F4      		brne 1b
 7866               	 ;  0 "" 2
 7867               	/* #NOAPP */
 7868               	.LBE3473:
 7869               	.LBE3472:
 7870               	.LM951:
 7871 1276 0197      		sbiw r24,1
 7872               	.LM952:
 7873 1278 01F4      		brne .L331
 7874               	.L289:
 7875               	.LBE3471:
 7876               	.LBE3470:
 7877               	.LM953:
 7878 127a C701      		movw r24,r14
 7879 127c B601      		movw r22,r12
 7880 127e 20E0      		ldi r18,lo8(0x41600000)
 7881 1280 30E0      		ldi r19,hi8(0x41600000)
 7882 1282 40E6      		ldi r20,hlo8(0x41600000)
 7883 1284 51E4      		ldi r21,hhi8(0x41600000)
 7884 1286 0E94 0000 		call __gesf2
 7885               	.LVL605:
 7886 128a 8823      		tst r24
 7887 128c 04F4      		brge .+2
 7888 128e 00C0      		rjmp .L332
 7889 1290 C701      		movw r24,r14
 7890 1292 B601      		movw r22,r12
 7891 1294 20E0      		ldi r18,lo8(0x41700000)
 7892 1296 30E0      		ldi r19,hi8(0x41700000)
 7893 1298 40E7      		ldi r20,hlo8(0x41700000)
 7894 129a 51E4      		ldi r21,hhi8(0x41700000)
 7895 129c 0E94 0000 		call __ltsf2
 7896 12a0 8823      		tst r24
 7897 12a2 04F0      		brlt .+2
 7898 12a4 00C0      		rjmp .L332
 7899               	.LM954:
 7900 12a6 8EE2      		ldi r24,lo8(46)
 7901 12a8 88BB      		out 56-32,r24
 7902 12aa 80E1      		ldi r24,lo8(10000)
 7903 12ac 97E2      		ldi r25,hi8(10000)
 7904               	.LVL606:
 7905               	.L335:
 7906               	.LBB3474:
 7907               	.LBB3475:
 7908               	.LBB3476:
 7909               	.LBB3477:
 7910               	.LM955:
 7911 12ae F801      		movw r30,r16
 7912               	.LVL607:
 7913               	/* #APP */
 7914               	 ;  105 "c:/winavr-20100110/lib/gcc/../../avr/include/util/delay_basic.h" 1
 7915 12b0 3197      		1: sbiw r30,1
 7916 12b2 01F4      		brne 1b
 7917               	 ;  0 "" 2
 7918               	/* #NOAPP */
 7919               	.LBE3477:
 7920               	.LBE3476:
 7921               	.LM956:
 7922 12b4 0197      		sbiw r24,1
 7923               	.LM957:
 7924 12b6 01F4      		brne .L335
 7925 12b8 80E1      		ldi r24,lo8(10000)
 7926 12ba 97E2      		ldi r25,hi8(10000)
 7927               	.LVL608:
 7928               	.L336:
 7929               	.LBE3475:
 7930               	.LBE3474:
 7931               	.LBB3478:
 7932               	.LBB3479:
 7933               	.LBB3480:
 7934               	.LBB3481:
 7935               	.LM958:
 7936 12bc F801      		movw r30,r16
 7937               	.LVL609:
 7938               	/* #APP */
 7939               	 ;  105 "c:/winavr-20100110/lib/gcc/../../avr/include/util/delay_basic.h" 1
 7940 12be 3197      		1: sbiw r30,1
 7941 12c0 01F4      		brne 1b
 7942               	 ;  0 "" 2
 7943               	/* #NOAPP */
 7944               	.LBE3481:
 7945               	.LBE3480:
 7946               	.LM959:
 7947 12c2 0197      		sbiw r24,1
 7948               	.LM960:
 7949 12c4 01F4      		brne .L336
 7950 12c6 80E1      		ldi r24,lo8(10000)
 7951 12c8 97E2      		ldi r25,hi8(10000)
 7952               	.LVL610:
 7953               	.L337:
 7954               	.LBE3479:
 7955               	.LBE3478:
 7956               	.LBB3482:
 7957               	.LBB3483:
 7958               	.LBB3484:
 7959               	.LBB3485:
 7960               	.LM961:
 7961 12ca F801      		movw r30,r16
 7962               	.LVL611:
 7963               	/* #APP */
 7964               	 ;  105 "c:/winavr-20100110/lib/gcc/../../avr/include/util/delay_basic.h" 1
 7965 12cc 3197      		1: sbiw r30,1
 7966 12ce 01F4      		brne 1b
 7967               	 ;  0 "" 2
 7968               	/* #NOAPP */
 7969               	.LBE3485:
 7970               	.LBE3484:
 7971               	.LM962:
 7972 12d0 0197      		sbiw r24,1
 7973               	.LM963:
 7974 12d2 01F4      		brne .L337
 7975 12d4 80E1      		ldi r24,lo8(10000)
 7976 12d6 97E2      		ldi r25,hi8(10000)
 7977               	.LVL612:
 7978               	.L338:
 7979               	.LBE3483:
 7980               	.LBE3482:
 7981               	.LBB3486:
 7982               	.LBB3487:
 7983               	.LBB3488:
 7984               	.LBB3489:
 7985               	.LM964:
 7986 12d8 F801      		movw r30,r16
 7987               	.LVL613:
 7988               	/* #APP */
 7989               	 ;  105 "c:/winavr-20100110/lib/gcc/../../avr/include/util/delay_basic.h" 1
 7990 12da 3197      		1: sbiw r30,1
 7991 12dc 01F4      		brne 1b
 7992               	 ;  0 "" 2
 7993               	/* #NOAPP */
 7994               	.LBE3489:
 7995               	.LBE3488:
 7996               	.LM965:
 7997 12de 0197      		sbiw r24,1
 7998               	.LM966:
 7999 12e0 01F4      		brne .L338
 8000 12e2 80E1      		ldi r24,lo8(10000)
 8001 12e4 97E2      		ldi r25,hi8(10000)
 8002               	.LVL614:
 8003               	.L339:
 8004               	.LBE3487:
 8005               	.LBE3486:
 8006               	.LBB3490:
 8007               	.LBB3491:
 8008               	.LBB3492:
 8009               	.LBB3493:
 8010               	.LM967:
 8011 12e6 F801      		movw r30,r16
 8012               	.LVL615:
 8013               	/* #APP */
 8014               	 ;  105 "c:/winavr-20100110/lib/gcc/../../avr/include/util/delay_basic.h" 1
 8015 12e8 3197      		1: sbiw r30,1
 8016 12ea 01F4      		brne 1b
 8017               	 ;  0 "" 2
 8018               	/* #NOAPP */
 8019               	.LBE3493:
 8020               	.LBE3492:
 8021               	.LM968:
 8022 12ec 0197      		sbiw r24,1
 8023               	.LM969:
 8024 12ee 01F4      		brne .L339
 8025 12f0 80E1      		ldi r24,lo8(10000)
 8026 12f2 97E2      		ldi r25,hi8(10000)
 8027               	.LVL616:
 8028               	.L340:
 8029               	.LBE3491:
 8030               	.LBE3490:
 8031               	.LBB3494:
 8032               	.LBB3495:
 8033               	.LBB3496:
 8034               	.LBB3497:
 8035               	.LM970:
 8036 12f4 F801      		movw r30,r16
 8037               	.LVL617:
 8038               	/* #APP */
 8039               	 ;  105 "c:/winavr-20100110/lib/gcc/../../avr/include/util/delay_basic.h" 1
 8040 12f6 3197      		1: sbiw r30,1
 8041 12f8 01F4      		brne 1b
 8042               	 ;  0 "" 2
 8043               	/* #NOAPP */
 8044               	.LBE3497:
 8045               	.LBE3496:
 8046               	.LM971:
 8047 12fa 0197      		sbiw r24,1
 8048               	.LM972:
 8049 12fc 01F4      		brne .L340
 8050 12fe 80E1      		ldi r24,lo8(10000)
 8051 1300 97E2      		ldi r25,hi8(10000)
 8052               	.LVL618:
 8053               	.L341:
 8054               	.LBE3495:
 8055               	.LBE3494:
 8056               	.LBB3498:
 8057               	.LBB3499:
 8058               	.LBB3500:
 8059               	.LBB3501:
 8060               	.LM973:
 8061 1302 F801      		movw r30,r16
 8062               	.LVL619:
 8063               	/* #APP */
 8064               	 ;  105 "c:/winavr-20100110/lib/gcc/../../avr/include/util/delay_basic.h" 1
 8065 1304 3197      		1: sbiw r30,1
 8066 1306 01F4      		brne 1b
 8067               	 ;  0 "" 2
 8068               	/* #NOAPP */
 8069               	.LBE3501:
 8070               	.LBE3500:
 8071               	.LM974:
 8072 1308 0197      		sbiw r24,1
 8073               	.LM975:
 8074 130a 01F4      		brne .L341
 8075 130c 80E1      		ldi r24,lo8(10000)
 8076 130e 97E2      		ldi r25,hi8(10000)
 8077               	.LVL620:
 8078               	.L342:
 8079               	.LBE3499:
 8080               	.LBE3498:
 8081               	.LBB3502:
 8082               	.LBB3503:
 8083               	.LBB3504:
 8084               	.LBB3505:
 8085               	.LM976:
 8086 1310 F801      		movw r30,r16
 8087               	.LVL621:
 8088               	/* #APP */
 8089               	 ;  105 "c:/winavr-20100110/lib/gcc/../../avr/include/util/delay_basic.h" 1
 8090 1312 3197      		1: sbiw r30,1
 8091 1314 01F4      		brne 1b
 8092               	 ;  0 "" 2
 8093               	/* #NOAPP */
 8094               	.LBE3505:
 8095               	.LBE3504:
 8096               	.LM977:
 8097 1316 0197      		sbiw r24,1
 8098               	.LM978:
 8099 1318 01F4      		brne .L342
 8100 131a 80E1      		ldi r24,lo8(10000)
 8101 131c 97E2      		ldi r25,hi8(10000)
 8102               	.LVL622:
 8103               	.L343:
 8104               	.LBE3503:
 8105               	.LBE3502:
 8106               	.LBB3506:
 8107               	.LBB3507:
 8108               	.LBB3508:
 8109               	.LBB3509:
 8110               	.LM979:
 8111 131e F801      		movw r30,r16
 8112               	.LVL623:
 8113               	/* #APP */
 8114               	 ;  105 "c:/winavr-20100110/lib/gcc/../../avr/include/util/delay_basic.h" 1
 8115 1320 3197      		1: sbiw r30,1
 8116 1322 01F4      		brne 1b
 8117               	 ;  0 "" 2
 8118               	/* #NOAPP */
 8119               	.LBE3509:
 8120               	.LBE3508:
 8121               	.LM980:
 8122 1324 0197      		sbiw r24,1
 8123               	.LM981:
 8124 1326 01F4      		brne .L343
 8125 1328 80E1      		ldi r24,lo8(10000)
 8126 132a 97E2      		ldi r25,hi8(10000)
 8127               	.LVL624:
 8128               	.L344:
 8129               	.LBE3507:
 8130               	.LBE3506:
 8131               	.LBB3510:
 8132               	.LBB3511:
 8133               	.LBB3512:
 8134               	.LBB3513:
 8135               	.LM982:
 8136 132c F801      		movw r30,r16
 8137               	.LVL625:
 8138               	/* #APP */
 8139               	 ;  105 "c:/winavr-20100110/lib/gcc/../../avr/include/util/delay_basic.h" 1
 8140 132e 3197      		1: sbiw r30,1
 8141 1330 01F4      		brne 1b
 8142               	 ;  0 "" 2
 8143               	/* #NOAPP */
 8144               	.LBE3513:
 8145               	.LBE3512:
 8146               	.LM983:
 8147 1332 0197      		sbiw r24,1
 8148               	.LM984:
 8149 1334 01F4      		brne .L344
 8150 1336 80E1      		ldi r24,lo8(10000)
 8151 1338 97E2      		ldi r25,hi8(10000)
 8152               	.LVL626:
 8153               	.L345:
 8154               	.LBE3511:
 8155               	.LBE3510:
 8156               	.LBB3514:
 8157               	.LBB3515:
 8158               	.LBB3516:
 8159               	.LBB3517:
 8160               	.LM985:
 8161 133a F801      		movw r30,r16
 8162               	.LVL627:
 8163               	/* #APP */
 8164               	 ;  105 "c:/winavr-20100110/lib/gcc/../../avr/include/util/delay_basic.h" 1
 8165 133c 3197      		1: sbiw r30,1
 8166 133e 01F4      		brne 1b
 8167               	 ;  0 "" 2
 8168               	/* #NOAPP */
 8169               	.LBE3517:
 8170               	.LBE3516:
 8171               	.LM986:
 8172 1340 0197      		sbiw r24,1
 8173               	.LM987:
 8174 1342 01F4      		brne .L345
 8175 1344 80E1      		ldi r24,lo8(10000)
 8176 1346 97E2      		ldi r25,hi8(10000)
 8177               	.LVL628:
 8178               	.L346:
 8179               	.LBE3515:
 8180               	.LBE3514:
 8181               	.LBB3518:
 8182               	.LBB3519:
 8183               	.LBB3520:
 8184               	.LBB3521:
 8185               	.LM988:
 8186 1348 F801      		movw r30,r16
 8187               	.LVL629:
 8188               	/* #APP */
 8189               	 ;  105 "c:/winavr-20100110/lib/gcc/../../avr/include/util/delay_basic.h" 1
 8190 134a 3197      		1: sbiw r30,1
 8191 134c 01F4      		brne 1b
 8192               	 ;  0 "" 2
 8193               	/* #NOAPP */
 8194               	.LBE3521:
 8195               	.LBE3520:
 8196               	.LM989:
 8197 134e 0197      		sbiw r24,1
 8198               	.LM990:
 8199 1350 01F4      		brne .L346
 8200 1352 80E1      		ldi r24,lo8(10000)
 8201 1354 97E2      		ldi r25,hi8(10000)
 8202               	.LVL630:
 8203               	.L347:
 8204               	.LBE3519:
 8205               	.LBE3518:
 8206               	.LBB3522:
 8207               	.LBB3523:
 8208               	.LBB3524:
 8209               	.LBB3525:
 8210               	.LM991:
 8211 1356 F801      		movw r30,r16
 8212               	.LVL631:
 8213               	/* #APP */
 8214               	 ;  105 "c:/winavr-20100110/lib/gcc/../../avr/include/util/delay_basic.h" 1
 8215 1358 3197      		1: sbiw r30,1
 8216 135a 01F4      		brne 1b
 8217               	 ;  0 "" 2
 8218               	/* #NOAPP */
 8219               	.LBE3525:
 8220               	.LBE3524:
 8221               	.LM992:
 8222 135c 0197      		sbiw r24,1
 8223               	.LM993:
 8224 135e 01F4      		brne .L347
 8225 1360 80E1      		ldi r24,lo8(10000)
 8226 1362 97E2      		ldi r25,hi8(10000)
 8227               	.LVL632:
 8228               	.L348:
 8229               	.LBE3523:
 8230               	.LBE3522:
 8231               	.LBB3526:
 8232               	.LBB3527:
 8233               	.LBB3528:
 8234               	.LBB3529:
 8235               	.LM994:
 8236 1364 F801      		movw r30,r16
 8237               	.LVL633:
 8238               	/* #APP */
 8239               	 ;  105 "c:/winavr-20100110/lib/gcc/../../avr/include/util/delay_basic.h" 1
 8240 1366 3197      		1: sbiw r30,1
 8241 1368 01F4      		brne 1b
 8242               	 ;  0 "" 2
 8243               	/* #NOAPP */
 8244               	.LBE3529:
 8245               	.LBE3528:
 8246               	.LM995:
 8247 136a 0197      		sbiw r24,1
 8248               	.LM996:
 8249 136c 01F4      		brne .L348
 8250 136e 80E1      		ldi r24,lo8(10000)
 8251 1370 97E2      		ldi r25,hi8(10000)
 8252               	.LVL634:
 8253               	.L349:
 8254               	.LBE3527:
 8255               	.LBE3526:
 8256               	.LBB3530:
 8257               	.LBB3531:
 8258               	.LBB3532:
 8259               	.LBB3533:
 8260               	.LM997:
 8261 1372 F801      		movw r30,r16
 8262               	.LVL635:
 8263               	/* #APP */
 8264               	 ;  105 "c:/winavr-20100110/lib/gcc/../../avr/include/util/delay_basic.h" 1
 8265 1374 3197      		1: sbiw r30,1
 8266 1376 01F4      		brne 1b
 8267               	 ;  0 "" 2
 8268               	/* #NOAPP */
 8269               	.LBE3533:
 8270               	.LBE3532:
 8271               	.LM998:
 8272 1378 0197      		sbiw r24,1
 8273               	.LM999:
 8274 137a 01F4      		brne .L349
 8275 137c 80E1      		ldi r24,lo8(10000)
 8276 137e 97E2      		ldi r25,hi8(10000)
 8277               	.LVL636:
 8278               	.L350:
 8279               	.LBE3531:
 8280               	.LBE3530:
 8281               	.LBB3534:
 8282               	.LBB3535:
 8283               	.LBB3536:
 8284               	.LBB3537:
 8285               	.LM1000:
 8286 1380 F801      		movw r30,r16
 8287               	.LVL637:
 8288               	/* #APP */
 8289               	 ;  105 "c:/winavr-20100110/lib/gcc/../../avr/include/util/delay_basic.h" 1
 8290 1382 3197      		1: sbiw r30,1
 8291 1384 01F4      		brne 1b
 8292               	 ;  0 "" 2
 8293               	/* #NOAPP */
 8294               	.LBE3537:
 8295               	.LBE3536:
 8296               	.LM1001:
 8297 1386 0197      		sbiw r24,1
 8298               	.LM1002:
 8299 1388 01F4      		brne .L350
 8300 138a 80E1      		ldi r24,lo8(10000)
 8301 138c 97E2      		ldi r25,hi8(10000)
 8302               	.LVL638:
 8303               	.L351:
 8304               	.LBE3535:
 8305               	.LBE3534:
 8306               	.LBB3538:
 8307               	.LBB3539:
 8308               	.LBB3540:
 8309               	.LBB3541:
 8310               	.LM1003:
 8311 138e F801      		movw r30,r16
 8312               	.LVL639:
 8313               	/* #APP */
 8314               	 ;  105 "c:/winavr-20100110/lib/gcc/../../avr/include/util/delay_basic.h" 1
 8315 1390 3197      		1: sbiw r30,1
 8316 1392 01F4      		brne 1b
 8317               	 ;  0 "" 2
 8318               	/* #NOAPP */
 8319               	.LBE3541:
 8320               	.LBE3540:
 8321               	.LM1004:
 8322 1394 0197      		sbiw r24,1
 8323               	.LM1005:
 8324 1396 01F4      		brne .L351
 8325 1398 80E1      		ldi r24,lo8(10000)
 8326 139a 97E2      		ldi r25,hi8(10000)
 8327               	.LVL640:
 8328               	.L352:
 8329               	.LBE3539:
 8330               	.LBE3538:
 8331               	.LBB3542:
 8332               	.LBB3543:
 8333               	.LBB3544:
 8334               	.LBB3545:
 8335               	.LM1006:
 8336 139c F801      		movw r30,r16
 8337               	.LVL641:
 8338               	/* #APP */
 8339               	 ;  105 "c:/winavr-20100110/lib/gcc/../../avr/include/util/delay_basic.h" 1
 8340 139e 3197      		1: sbiw r30,1
 8341 13a0 01F4      		brne 1b
 8342               	 ;  0 "" 2
 8343               	/* #NOAPP */
 8344               	.LBE3545:
 8345               	.LBE3544:
 8346               	.LM1007:
 8347 13a2 0197      		sbiw r24,1
 8348               	.LM1008:
 8349 13a4 01F4      		brne .L352
 8350 13a6 80E1      		ldi r24,lo8(10000)
 8351 13a8 97E2      		ldi r25,hi8(10000)
 8352               	.LVL642:
 8353               	.L353:
 8354               	.LBE3543:
 8355               	.LBE3542:
 8356               	.LBB3546:
 8357               	.LBB3547:
 8358               	.LBB3548:
 8359               	.LBB3549:
 8360               	.LM1009:
 8361 13aa F801      		movw r30,r16
 8362               	.LVL643:
 8363               	/* #APP */
 8364               	 ;  105 "c:/winavr-20100110/lib/gcc/../../avr/include/util/delay_basic.h" 1
 8365 13ac 3197      		1: sbiw r30,1
 8366 13ae 01F4      		brne 1b
 8367               	 ;  0 "" 2
 8368               	/* #NOAPP */
 8369               	.LBE3549:
 8370               	.LBE3548:
 8371               	.LM1010:
 8372 13b0 0197      		sbiw r24,1
 8373               	.LM1011:
 8374 13b2 01F4      		brne .L353
 8375 13b4 80E1      		ldi r24,lo8(10000)
 8376 13b6 97E2      		ldi r25,hi8(10000)
 8377               	.LVL644:
 8378               	.L354:
 8379               	.LBE3547:
 8380               	.LBE3546:
 8381               	.LBB3550:
 8382               	.LBB3551:
 8383               	.LBB3552:
 8384               	.LBB3553:
 8385               	.LM1012:
 8386 13b8 F801      		movw r30,r16
 8387               	.LVL645:
 8388               	/* #APP */
 8389               	 ;  105 "c:/winavr-20100110/lib/gcc/../../avr/include/util/delay_basic.h" 1
 8390 13ba 3197      		1: sbiw r30,1
 8391 13bc 01F4      		brne 1b
 8392               	 ;  0 "" 2
 8393               	/* #NOAPP */
 8394               	.LBE3553:
 8395               	.LBE3552:
 8396               	.LM1013:
 8397 13be 0197      		sbiw r24,1
 8398               	.LM1014:
 8399 13c0 01F4      		brne .L354
 8400 13c2 80E1      		ldi r24,lo8(10000)
 8401 13c4 97E2      		ldi r25,hi8(10000)
 8402               	.LVL646:
 8403               	.L355:
 8404               	.LBE3551:
 8405               	.LBE3550:
 8406               	.LBB3554:
 8407               	.LBB3555:
 8408               	.LBB3556:
 8409               	.LBB3557:
 8410               	.LM1015:
 8411 13c6 F801      		movw r30,r16
 8412               	.LVL647:
 8413               	/* #APP */
 8414               	 ;  105 "c:/winavr-20100110/lib/gcc/../../avr/include/util/delay_basic.h" 1
 8415 13c8 3197      		1: sbiw r30,1
 8416 13ca 01F4      		brne 1b
 8417               	 ;  0 "" 2
 8418               	/* #NOAPP */
 8419               	.LBE3557:
 8420               	.LBE3556:
 8421               	.LM1016:
 8422 13cc 0197      		sbiw r24,1
 8423               	.LM1017:
 8424 13ce 01F4      		brne .L355
 8425 13d0 80E1      		ldi r24,lo8(10000)
 8426 13d2 97E2      		ldi r25,hi8(10000)
 8427               	.LVL648:
 8428               	.L356:
 8429               	.LBE3555:
 8430               	.LBE3554:
 8431               	.LBB3558:
 8432               	.LBB3559:
 8433               	.LBB3560:
 8434               	.LBB3561:
 8435               	.LM1018:
 8436 13d4 F801      		movw r30,r16
 8437               	.LVL649:
 8438               	/* #APP */
 8439               	 ;  105 "c:/winavr-20100110/lib/gcc/../../avr/include/util/delay_basic.h" 1
 8440 13d6 3197      		1: sbiw r30,1
 8441 13d8 01F4      		brne 1b
 8442               	 ;  0 "" 2
 8443               	/* #NOAPP */
 8444               	.LBE3561:
 8445               	.LBE3560:
 8446               	.LM1019:
 8447 13da 0197      		sbiw r24,1
 8448               	.LM1020:
 8449 13dc 01F4      		brne .L356
 8450 13de 80E1      		ldi r24,lo8(10000)
 8451 13e0 97E2      		ldi r25,hi8(10000)
 8452               	.LVL650:
 8453               	.L357:
 8454               	.LBE3559:
 8455               	.LBE3558:
 8456               	.LBB3562:
 8457               	.LBB3563:
 8458               	.LBB3564:
 8459               	.LBB3565:
 8460               	.LM1021:
 8461 13e2 F801      		movw r30,r16
 8462               	.LVL651:
 8463               	/* #APP */
 8464               	 ;  105 "c:/winavr-20100110/lib/gcc/../../avr/include/util/delay_basic.h" 1
 8465 13e4 3197      		1: sbiw r30,1
 8466 13e6 01F4      		brne 1b
 8467               	 ;  0 "" 2
 8468               	/* #NOAPP */
 8469               	.LBE3565:
 8470               	.LBE3564:
 8471               	.LM1022:
 8472 13e8 0197      		sbiw r24,1
 8473               	.LM1023:
 8474 13ea 01F4      		brne .L357
 8475 13ec 80E1      		ldi r24,lo8(10000)
 8476 13ee 97E2      		ldi r25,hi8(10000)
 8477               	.LVL652:
 8478               	.L358:
 8479               	.LBE3563:
 8480               	.LBE3562:
 8481               	.LBB3566:
 8482               	.LBB3567:
 8483               	.LBB3568:
 8484               	.LBB3569:
 8485               	.LM1024:
 8486 13f0 F801      		movw r30,r16
 8487               	.LVL653:
 8488               	/* #APP */
 8489               	 ;  105 "c:/winavr-20100110/lib/gcc/../../avr/include/util/delay_basic.h" 1
 8490 13f2 3197      		1: sbiw r30,1
 8491 13f4 01F4      		brne 1b
 8492               	 ;  0 "" 2
 8493               	/* #NOAPP */
 8494               	.LBE3569:
 8495               	.LBE3568:
 8496               	.LM1025:
 8497 13f6 0197      		sbiw r24,1
 8498               	.LM1026:
 8499 13f8 01F4      		brne .L358
 8500 13fa 80E1      		ldi r24,lo8(10000)
 8501 13fc 97E2      		ldi r25,hi8(10000)
 8502               	.LVL654:
 8503               	.L359:
 8504               	.LBE3567:
 8505               	.LBE3566:
 8506               	.LBB3570:
 8507               	.LBB3571:
 8508               	.LBB3572:
 8509               	.LBB3573:
 8510               	.LM1027:
 8511 13fe F801      		movw r30,r16
 8512               	.LVL655:
 8513               	/* #APP */
 8514               	 ;  105 "c:/winavr-20100110/lib/gcc/../../avr/include/util/delay_basic.h" 1
 8515 1400 3197      		1: sbiw r30,1
 8516 1402 01F4      		brne 1b
 8517               	 ;  0 "" 2
 8518               	/* #NOAPP */
 8519               	.LBE3573:
 8520               	.LBE3572:
 8521               	.LM1028:
 8522 1404 0197      		sbiw r24,1
 8523               	.LM1029:
 8524 1406 01F4      		brne .L359
 8525 1408 80E1      		ldi r24,lo8(10000)
 8526 140a 97E2      		ldi r25,hi8(10000)
 8527               	.LVL656:
 8528               	.L360:
 8529               	.LBE3571:
 8530               	.LBE3570:
 8531               	.LBB3574:
 8532               	.LBB3575:
 8533               	.LBB3576:
 8534               	.LBB3577:
 8535               	.LM1030:
 8536 140c F801      		movw r30,r16
 8537               	.LVL657:
 8538               	/* #APP */
 8539               	 ;  105 "c:/winavr-20100110/lib/gcc/../../avr/include/util/delay_basic.h" 1
 8540 140e 3197      		1: sbiw r30,1
 8541 1410 01F4      		brne 1b
 8542               	 ;  0 "" 2
 8543               	/* #NOAPP */
 8544               	.LBE3577:
 8545               	.LBE3576:
 8546               	.LM1031:
 8547 1412 0197      		sbiw r24,1
 8548               	.LM1032:
 8549 1414 01F4      		brne .L360
 8550 1416 80E1      		ldi r24,lo8(10000)
 8551 1418 97E2      		ldi r25,hi8(10000)
 8552               	.LVL658:
 8553               	.L361:
 8554               	.LBE3575:
 8555               	.LBE3574:
 8556               	.LBB3578:
 8557               	.LBB3579:
 8558               	.LBB3580:
 8559               	.LBB3581:
 8560               	.LM1033:
 8561 141a F801      		movw r30,r16
 8562               	.LVL659:
 8563               	/* #APP */
 8564               	 ;  105 "c:/winavr-20100110/lib/gcc/../../avr/include/util/delay_basic.h" 1
 8565 141c 3197      		1: sbiw r30,1
 8566 141e 01F4      		brne 1b
 8567               	 ;  0 "" 2
 8568               	/* #NOAPP */
 8569               	.LBE3581:
 8570               	.LBE3580:
 8571               	.LM1034:
 8572 1420 0197      		sbiw r24,1
 8573               	.LM1035:
 8574 1422 01F4      		brne .L361
 8575 1424 80E1      		ldi r24,lo8(10000)
 8576 1426 97E2      		ldi r25,hi8(10000)
 8577               	.LVL660:
 8578               	.L362:
 8579               	.LBE3579:
 8580               	.LBE3578:
 8581               	.LBB3582:
 8582               	.LBB3583:
 8583               	.LBB3584:
 8584               	.LBB3585:
 8585               	.LM1036:
 8586 1428 F801      		movw r30,r16
 8587               	.LVL661:
 8588               	/* #APP */
 8589               	 ;  105 "c:/winavr-20100110/lib/gcc/../../avr/include/util/delay_basic.h" 1
 8590 142a 3197      		1: sbiw r30,1
 8591 142c 01F4      		brne 1b
 8592               	 ;  0 "" 2
 8593               	/* #NOAPP */
 8594               	.LBE3585:
 8595               	.LBE3584:
 8596               	.LM1037:
 8597 142e 0197      		sbiw r24,1
 8598               	.LM1038:
 8599 1430 01F4      		brne .L362
 8600 1432 80E1      		ldi r24,lo8(10000)
 8601 1434 97E2      		ldi r25,hi8(10000)
 8602               	.LVL662:
 8603               	.L363:
 8604               	.LBE3583:
 8605               	.LBE3582:
 8606               	.LBB3586:
 8607               	.LBB3587:
 8608               	.LBB3588:
 8609               	.LBB3589:
 8610               	.LM1039:
 8611 1436 F801      		movw r30,r16
 8612               	.LVL663:
 8613               	/* #APP */
 8614               	 ;  105 "c:/winavr-20100110/lib/gcc/../../avr/include/util/delay_basic.h" 1
 8615 1438 3197      		1: sbiw r30,1
 8616 143a 01F4      		brne 1b
 8617               	 ;  0 "" 2
 8618               	/* #NOAPP */
 8619               	.LBE3589:
 8620               	.LBE3588:
 8621               	.LM1040:
 8622 143c 0197      		sbiw r24,1
 8623               	.LM1041:
 8624 143e 01F4      		brne .L363
 8625 1440 80E1      		ldi r24,lo8(10000)
 8626 1442 97E2      		ldi r25,hi8(10000)
 8627               	.LVL664:
 8628               	.L364:
 8629               	.LBE3587:
 8630               	.LBE3586:
 8631               	.LBB3590:
 8632               	.LBB3591:
 8633               	.LBB3592:
 8634               	.LBB3593:
 8635               	.LM1042:
 8636 1444 F801      		movw r30,r16
 8637               	.LVL665:
 8638               	/* #APP */
 8639               	 ;  105 "c:/winavr-20100110/lib/gcc/../../avr/include/util/delay_basic.h" 1
 8640 1446 3197      		1: sbiw r30,1
 8641 1448 01F4      		brne 1b
 8642               	 ;  0 "" 2
 8643               	/* #NOAPP */
 8644               	.LBE3593:
 8645               	.LBE3592:
 8646               	.LM1043:
 8647 144a 0197      		sbiw r24,1
 8648               	.LM1044:
 8649 144c 01F4      		brne .L364
 8650 144e 80E1      		ldi r24,lo8(10000)
 8651 1450 97E2      		ldi r25,hi8(10000)
 8652               	.LVL666:
 8653               	.L365:
 8654               	.LBE3591:
 8655               	.LBE3590:
 8656               	.LBB3594:
 8657               	.LBB3595:
 8658               	.LBB3596:
 8659               	.LBB3597:
 8660               	.LM1045:
 8661 1452 F801      		movw r30,r16
 8662               	.LVL667:
 8663               	/* #APP */
 8664               	 ;  105 "c:/winavr-20100110/lib/gcc/../../avr/include/util/delay_basic.h" 1
 8665 1454 3197      		1: sbiw r30,1
 8666 1456 01F4      		brne 1b
 8667               	 ;  0 "" 2
 8668               	/* #NOAPP */
 8669               	.LBE3597:
 8670               	.LBE3596:
 8671               	.LM1046:
 8672 1458 0197      		sbiw r24,1
 8673               	.LM1047:
 8674 145a 01F4      		brne .L365
 8675 145c 80E1      		ldi r24,lo8(10000)
 8676 145e 97E2      		ldi r25,hi8(10000)
 8677               	.LVL668:
 8678               	.L366:
 8679               	.LBE3595:
 8680               	.LBE3594:
 8681               	.LBB3598:
 8682               	.LBB3599:
 8683               	.LBB3600:
 8684               	.LBB3601:
 8685               	.LM1048:
 8686 1460 F801      		movw r30,r16
 8687               	.LVL669:
 8688               	/* #APP */
 8689               	 ;  105 "c:/winavr-20100110/lib/gcc/../../avr/include/util/delay_basic.h" 1
 8690 1462 3197      		1: sbiw r30,1
 8691 1464 01F4      		brne 1b
 8692               	 ;  0 "" 2
 8693               	/* #NOAPP */
 8694               	.LBE3601:
 8695               	.LBE3600:
 8696               	.LM1049:
 8697 1466 0197      		sbiw r24,1
 8698               	.LM1050:
 8699 1468 01F4      		brne .L366
 8700 146a 80E1      		ldi r24,lo8(10000)
 8701 146c 97E2      		ldi r25,hi8(10000)
 8702               	.LVL670:
 8703               	.L367:
 8704               	.LBE3599:
 8705               	.LBE3598:
 8706               	.LBB3602:
 8707               	.LBB3603:
 8708               	.LBB3604:
 8709               	.LBB3605:
 8710               	.LM1051:
 8711 146e F801      		movw r30,r16
 8712               	.LVL671:
 8713               	/* #APP */
 8714               	 ;  105 "c:/winavr-20100110/lib/gcc/../../avr/include/util/delay_basic.h" 1
 8715 1470 3197      		1: sbiw r30,1
 8716 1472 01F4      		brne 1b
 8717               	 ;  0 "" 2
 8718               	/* #NOAPP */
 8719               	.LBE3605:
 8720               	.LBE3604:
 8721               	.LM1052:
 8722 1474 0197      		sbiw r24,1
 8723               	.LM1053:
 8724 1476 01F4      		brne .L367
 8725 1478 80E1      		ldi r24,lo8(10000)
 8726 147a 97E2      		ldi r25,hi8(10000)
 8727               	.LVL672:
 8728               	.L368:
 8729               	.LBE3603:
 8730               	.LBE3602:
 8731               	.LBB3606:
 8732               	.LBB3607:
 8733               	.LBB3608:
 8734               	.LBB3609:
 8735               	.LM1054:
 8736 147c F801      		movw r30,r16
 8737               	.LVL673:
 8738               	/* #APP */
 8739               	 ;  105 "c:/winavr-20100110/lib/gcc/../../avr/include/util/delay_basic.h" 1
 8740 147e 3197      		1: sbiw r30,1
 8741 1480 01F4      		brne 1b
 8742               	 ;  0 "" 2
 8743               	/* #NOAPP */
 8744               	.LBE3609:
 8745               	.LBE3608:
 8746               	.LM1055:
 8747 1482 0197      		sbiw r24,1
 8748               	.LM1056:
 8749 1484 01F4      		brne .L368
 8750 1486 80E1      		ldi r24,lo8(10000)
 8751 1488 97E2      		ldi r25,hi8(10000)
 8752               	.LVL674:
 8753               	.L369:
 8754               	.LBE3607:
 8755               	.LBE3606:
 8756               	.LBB3610:
 8757               	.LBB3611:
 8758               	.LBB3612:
 8759               	.LBB3613:
 8760               	.LM1057:
 8761 148a F801      		movw r30,r16
 8762               	.LVL675:
 8763               	/* #APP */
 8764               	 ;  105 "c:/winavr-20100110/lib/gcc/../../avr/include/util/delay_basic.h" 1
 8765 148c 3197      		1: sbiw r30,1
 8766 148e 01F4      		brne 1b
 8767               	 ;  0 "" 2
 8768               	/* #NOAPP */
 8769               	.LBE3613:
 8770               	.LBE3612:
 8771               	.LM1058:
 8772 1490 0197      		sbiw r24,1
 8773               	.LM1059:
 8774 1492 01F4      		brne .L369
 8775 1494 80E1      		ldi r24,lo8(10000)
 8776 1496 97E2      		ldi r25,hi8(10000)
 8777               	.LVL676:
 8778               	.L370:
 8779               	.LBE3611:
 8780               	.LBE3610:
 8781               	.LBB3614:
 8782               	.LBB3615:
 8783               	.LBB3616:
 8784               	.LBB3617:
 8785               	.LM1060:
 8786 1498 F801      		movw r30,r16
 8787               	.LVL677:
 8788               	/* #APP */
 8789               	 ;  105 "c:/winavr-20100110/lib/gcc/../../avr/include/util/delay_basic.h" 1
 8790 149a 3197      		1: sbiw r30,1
 8791 149c 01F4      		brne 1b
 8792               	 ;  0 "" 2
 8793               	/* #NOAPP */
 8794               	.LBE3617:
 8795               	.LBE3616:
 8796               	.LM1061:
 8797 149e 0197      		sbiw r24,1
 8798               	.LM1062:
 8799 14a0 01F4      		brne .L370
 8800 14a2 80E1      		ldi r24,lo8(10000)
 8801 14a4 97E2      		ldi r25,hi8(10000)
 8802               	.LVL678:
 8803               	.L371:
 8804               	.LBE3615:
 8805               	.LBE3614:
 8806               	.LBB3618:
 8807               	.LBB3619:
 8808               	.LBB3620:
 8809               	.LBB3621:
 8810               	.LM1063:
 8811 14a6 F801      		movw r30,r16
 8812               	.LVL679:
 8813               	/* #APP */
 8814               	 ;  105 "c:/winavr-20100110/lib/gcc/../../avr/include/util/delay_basic.h" 1
 8815 14a8 3197      		1: sbiw r30,1
 8816 14aa 01F4      		brne 1b
 8817               	 ;  0 "" 2
 8818               	/* #NOAPP */
 8819               	.LBE3621:
 8820               	.LBE3620:
 8821               	.LM1064:
 8822 14ac 0197      		sbiw r24,1
 8823               	.LM1065:
 8824 14ae 01F4      		brne .L371
 8825 14b0 80E1      		ldi r24,lo8(10000)
 8826 14b2 97E2      		ldi r25,hi8(10000)
 8827               	.LVL680:
 8828               	.L372:
 8829               	.LBE3619:
 8830               	.LBE3618:
 8831               	.LBB3622:
 8832               	.LBB3623:
 8833               	.LBB3624:
 8834               	.LBB3625:
 8835               	.LM1066:
 8836 14b4 F801      		movw r30,r16
 8837               	.LVL681:
 8838               	/* #APP */
 8839               	 ;  105 "c:/winavr-20100110/lib/gcc/../../avr/include/util/delay_basic.h" 1
 8840 14b6 3197      		1: sbiw r30,1
 8841 14b8 01F4      		brne 1b
 8842               	 ;  0 "" 2
 8843               	/* #NOAPP */
 8844               	.LBE3625:
 8845               	.LBE3624:
 8846               	.LM1067:
 8847 14ba 0197      		sbiw r24,1
 8848               	.LM1068:
 8849 14bc 01F4      		brne .L372
 8850 14be 80E1      		ldi r24,lo8(10000)
 8851 14c0 97E2      		ldi r25,hi8(10000)
 8852               	.LVL682:
 8853               	.L373:
 8854               	.LBE3623:
 8855               	.LBE3622:
 8856               	.LBB3626:
 8857               	.LBB3627:
 8858               	.LBB3628:
 8859               	.LBB3629:
 8860               	.LM1069:
 8861 14c2 F801      		movw r30,r16
 8862               	.LVL683:
 8863               	/* #APP */
 8864               	 ;  105 "c:/winavr-20100110/lib/gcc/../../avr/include/util/delay_basic.h" 1
 8865 14c4 3197      		1: sbiw r30,1
 8866 14c6 01F4      		brne 1b
 8867               	 ;  0 "" 2
 8868               	/* #NOAPP */
 8869               	.LBE3629:
 8870               	.LBE3628:
 8871               	.LM1070:
 8872 14c8 0197      		sbiw r24,1
 8873               	.LM1071:
 8874 14ca 01F4      		brne .L373
 8875 14cc 80E1      		ldi r24,lo8(10000)
 8876 14ce 97E2      		ldi r25,hi8(10000)
 8877               	.LVL684:
 8878               	.L374:
 8879               	.LBE3627:
 8880               	.LBE3626:
 8881               	.LBB3630:
 8882               	.LBB3631:
 8883               	.LBB3632:
 8884               	.LBB3633:
 8885               	.LM1072:
 8886 14d0 F801      		movw r30,r16
 8887               	.LVL685:
 8888               	/* #APP */
 8889               	 ;  105 "c:/winavr-20100110/lib/gcc/../../avr/include/util/delay_basic.h" 1
 8890 14d2 3197      		1: sbiw r30,1
 8891 14d4 01F4      		brne 1b
 8892               	 ;  0 "" 2
 8893               	/* #NOAPP */
 8894               	.LBE3633:
 8895               	.LBE3632:
 8896               	.LM1073:
 8897 14d6 0197      		sbiw r24,1
 8898               	.LM1074:
 8899 14d8 01F4      		brne .L374
 8900               	.L332:
 8901               	.LBE3631:
 8902               	.LBE3630:
 8903               	.LM1075:
 8904 14da C701      		movw r24,r14
 8905 14dc B601      		movw r22,r12
 8906 14de 20E0      		ldi r18,lo8(0x41700000)
 8907 14e0 30E0      		ldi r19,hi8(0x41700000)
 8908 14e2 40E7      		ldi r20,hlo8(0x41700000)
 8909 14e4 51E4      		ldi r21,hhi8(0x41700000)
 8910 14e6 0E94 0000 		call __gesf2
 8911               	.LVL686:
 8912 14ea 8823      		tst r24
 8913 14ec 04F4      		brge .+2
 8914 14ee 00C0      		rjmp .L375
 8915 14f0 C701      		movw r24,r14
 8916 14f2 B601      		movw r22,r12
 8917 14f4 20E0      		ldi r18,lo8(0x41800000)
 8918 14f6 30E0      		ldi r19,hi8(0x41800000)
 8919 14f8 40E8      		ldi r20,hlo8(0x41800000)
 8920 14fa 51E4      		ldi r21,hhi8(0x41800000)
 8921 14fc 0E94 0000 		call __ltsf2
 8922 1500 8823      		tst r24
 8923 1502 04F0      		brlt .+2
 8924 1504 00C0      		rjmp .L375
 8925               	.LM1076:
 8926 1506 82E3      		ldi r24,lo8(50)
 8927 1508 88BB      		out 56-32,r24
 8928 150a 80E1      		ldi r24,lo8(10000)
 8929 150c 97E2      		ldi r25,hi8(10000)
 8930               	.LVL687:
 8931               	.L378:
 8932               	.LBB3634:
 8933               	.LBB3635:
 8934               	.LBB3636:
 8935               	.LBB3637:
 8936               	.LM1077:
 8937 150e F801      		movw r30,r16
 8938               	.LVL688:
 8939               	/* #APP */
 8940               	 ;  105 "c:/winavr-20100110/lib/gcc/../../avr/include/util/delay_basic.h" 1
 8941 1510 3197      		1: sbiw r30,1
 8942 1512 01F4      		brne 1b
 8943               	 ;  0 "" 2
 8944               	/* #NOAPP */
 8945               	.LBE3637:
 8946               	.LBE3636:
 8947               	.LM1078:
 8948 1514 0197      		sbiw r24,1
 8949               	.LM1079:
 8950 1516 01F4      		brne .L378
 8951 1518 80E1      		ldi r24,lo8(10000)
 8952 151a 97E2      		ldi r25,hi8(10000)
 8953               	.LVL689:
 8954               	.L379:
 8955               	.LBE3635:
 8956               	.LBE3634:
 8957               	.LBB3638:
 8958               	.LBB3639:
 8959               	.LBB3640:
 8960               	.LBB3641:
 8961               	.LM1080:
 8962 151c F801      		movw r30,r16
 8963               	.LVL690:
 8964               	/* #APP */
 8965               	 ;  105 "c:/winavr-20100110/lib/gcc/../../avr/include/util/delay_basic.h" 1
 8966 151e 3197      		1: sbiw r30,1
 8967 1520 01F4      		brne 1b
 8968               	 ;  0 "" 2
 8969               	/* #NOAPP */
 8970               	.LBE3641:
 8971               	.LBE3640:
 8972               	.LM1081:
 8973 1522 0197      		sbiw r24,1
 8974               	.LM1082:
 8975 1524 01F4      		brne .L379
 8976 1526 80E1      		ldi r24,lo8(10000)
 8977 1528 97E2      		ldi r25,hi8(10000)
 8978               	.LVL691:
 8979               	.L380:
 8980               	.LBE3639:
 8981               	.LBE3638:
 8982               	.LBB3642:
 8983               	.LBB3643:
 8984               	.LBB3644:
 8985               	.LBB3645:
 8986               	.LM1083:
 8987 152a F801      		movw r30,r16
 8988               	.LVL692:
 8989               	/* #APP */
 8990               	 ;  105 "c:/winavr-20100110/lib/gcc/../../avr/include/util/delay_basic.h" 1
 8991 152c 3197      		1: sbiw r30,1
 8992 152e 01F4      		brne 1b
 8993               	 ;  0 "" 2
 8994               	/* #NOAPP */
 8995               	.LBE3645:
 8996               	.LBE3644:
 8997               	.LM1084:
 8998 1530 0197      		sbiw r24,1
 8999               	.LM1085:
 9000 1532 01F4      		brne .L380
 9001 1534 80E1      		ldi r24,lo8(10000)
 9002 1536 97E2      		ldi r25,hi8(10000)
 9003               	.LVL693:
 9004               	.L381:
 9005               	.LBE3643:
 9006               	.LBE3642:
 9007               	.LBB3646:
 9008               	.LBB3647:
 9009               	.LBB3648:
 9010               	.LBB3649:
 9011               	.LM1086:
 9012 1538 F801      		movw r30,r16
 9013               	.LVL694:
 9014               	/* #APP */
 9015               	 ;  105 "c:/winavr-20100110/lib/gcc/../../avr/include/util/delay_basic.h" 1
 9016 153a 3197      		1: sbiw r30,1
 9017 153c 01F4      		brne 1b
 9018               	 ;  0 "" 2
 9019               	/* #NOAPP */
 9020               	.LBE3649:
 9021               	.LBE3648:
 9022               	.LM1087:
 9023 153e 0197      		sbiw r24,1
 9024               	.LM1088:
 9025 1540 01F4      		brne .L381
 9026 1542 80E1      		ldi r24,lo8(10000)
 9027 1544 97E2      		ldi r25,hi8(10000)
 9028               	.LVL695:
 9029               	.L382:
 9030               	.LBE3647:
 9031               	.LBE3646:
 9032               	.LBB3650:
 9033               	.LBB3651:
 9034               	.LBB3652:
 9035               	.LBB3653:
 9036               	.LM1089:
 9037 1546 F801      		movw r30,r16
 9038               	.LVL696:
 9039               	/* #APP */
 9040               	 ;  105 "c:/winavr-20100110/lib/gcc/../../avr/include/util/delay_basic.h" 1
 9041 1548 3197      		1: sbiw r30,1
 9042 154a 01F4      		brne 1b
 9043               	 ;  0 "" 2
 9044               	/* #NOAPP */
 9045               	.LBE3653:
 9046               	.LBE3652:
 9047               	.LM1090:
 9048 154c 0197      		sbiw r24,1
 9049               	.LM1091:
 9050 154e 01F4      		brne .L382
 9051 1550 80E1      		ldi r24,lo8(10000)
 9052 1552 97E2      		ldi r25,hi8(10000)
 9053               	.LVL697:
 9054               	.L383:
 9055               	.LBE3651:
 9056               	.LBE3650:
 9057               	.LBB3654:
 9058               	.LBB3655:
 9059               	.LBB3656:
 9060               	.LBB3657:
 9061               	.LM1092:
 9062 1554 F801      		movw r30,r16
 9063               	.LVL698:
 9064               	/* #APP */
 9065               	 ;  105 "c:/winavr-20100110/lib/gcc/../../avr/include/util/delay_basic.h" 1
 9066 1556 3197      		1: sbiw r30,1
 9067 1558 01F4      		brne 1b
 9068               	 ;  0 "" 2
 9069               	/* #NOAPP */
 9070               	.LBE3657:
 9071               	.LBE3656:
 9072               	.LM1093:
 9073 155a 0197      		sbiw r24,1
 9074               	.LM1094:
 9075 155c 01F4      		brne .L383
 9076 155e 80E1      		ldi r24,lo8(10000)
 9077 1560 97E2      		ldi r25,hi8(10000)
 9078               	.LVL699:
 9079               	.L384:
 9080               	.LBE3655:
 9081               	.LBE3654:
 9082               	.LBB3658:
 9083               	.LBB3659:
 9084               	.LBB3660:
 9085               	.LBB3661:
 9086               	.LM1095:
 9087 1562 F801      		movw r30,r16
 9088               	.LVL700:
 9089               	/* #APP */
 9090               	 ;  105 "c:/winavr-20100110/lib/gcc/../../avr/include/util/delay_basic.h" 1
 9091 1564 3197      		1: sbiw r30,1
 9092 1566 01F4      		brne 1b
 9093               	 ;  0 "" 2
 9094               	/* #NOAPP */
 9095               	.LBE3661:
 9096               	.LBE3660:
 9097               	.LM1096:
 9098 1568 0197      		sbiw r24,1
 9099               	.LM1097:
 9100 156a 01F4      		brne .L384
 9101 156c 80E1      		ldi r24,lo8(10000)
 9102 156e 97E2      		ldi r25,hi8(10000)
 9103               	.LVL701:
 9104               	.L385:
 9105               	.LBE3659:
 9106               	.LBE3658:
 9107               	.LBB3662:
 9108               	.LBB3663:
 9109               	.LBB3664:
 9110               	.LBB3665:
 9111               	.LM1098:
 9112 1570 F801      		movw r30,r16
 9113               	.LVL702:
 9114               	/* #APP */
 9115               	 ;  105 "c:/winavr-20100110/lib/gcc/../../avr/include/util/delay_basic.h" 1
 9116 1572 3197      		1: sbiw r30,1
 9117 1574 01F4      		brne 1b
 9118               	 ;  0 "" 2
 9119               	/* #NOAPP */
 9120               	.LBE3665:
 9121               	.LBE3664:
 9122               	.LM1099:
 9123 1576 0197      		sbiw r24,1
 9124               	.LM1100:
 9125 1578 01F4      		brne .L385
 9126 157a 80E1      		ldi r24,lo8(10000)
 9127 157c 97E2      		ldi r25,hi8(10000)
 9128               	.LVL703:
 9129               	.L386:
 9130               	.LBE3663:
 9131               	.LBE3662:
 9132               	.LBB3666:
 9133               	.LBB3667:
 9134               	.LBB3668:
 9135               	.LBB3669:
 9136               	.LM1101:
 9137 157e F801      		movw r30,r16
 9138               	.LVL704:
 9139               	/* #APP */
 9140               	 ;  105 "c:/winavr-20100110/lib/gcc/../../avr/include/util/delay_basic.h" 1
 9141 1580 3197      		1: sbiw r30,1
 9142 1582 01F4      		brne 1b
 9143               	 ;  0 "" 2
 9144               	/* #NOAPP */
 9145               	.LBE3669:
 9146               	.LBE3668:
 9147               	.LM1102:
 9148 1584 0197      		sbiw r24,1
 9149               	.LM1103:
 9150 1586 01F4      		brne .L386
 9151 1588 80E1      		ldi r24,lo8(10000)
 9152 158a 97E2      		ldi r25,hi8(10000)
 9153               	.LVL705:
 9154               	.L387:
 9155               	.LBE3667:
 9156               	.LBE3666:
 9157               	.LBB3670:
 9158               	.LBB3671:
 9159               	.LBB3672:
 9160               	.LBB3673:
 9161               	.LM1104:
 9162 158c F801      		movw r30,r16
 9163               	.LVL706:
 9164               	/* #APP */
 9165               	 ;  105 "c:/winavr-20100110/lib/gcc/../../avr/include/util/delay_basic.h" 1
 9166 158e 3197      		1: sbiw r30,1
 9167 1590 01F4      		brne 1b
 9168               	 ;  0 "" 2
 9169               	/* #NOAPP */
 9170               	.LBE3673:
 9171               	.LBE3672:
 9172               	.LM1105:
 9173 1592 0197      		sbiw r24,1
 9174               	.LM1106:
 9175 1594 01F4      		brne .L387
 9176 1596 80E1      		ldi r24,lo8(10000)
 9177 1598 97E2      		ldi r25,hi8(10000)
 9178               	.LVL707:
 9179               	.L388:
 9180               	.LBE3671:
 9181               	.LBE3670:
 9182               	.LBB3674:
 9183               	.LBB3675:
 9184               	.LBB3676:
 9185               	.LBB3677:
 9186               	.LM1107:
 9187 159a F801      		movw r30,r16
 9188               	.LVL708:
 9189               	/* #APP */
 9190               	 ;  105 "c:/winavr-20100110/lib/gcc/../../avr/include/util/delay_basic.h" 1
 9191 159c 3197      		1: sbiw r30,1
 9192 159e 01F4      		brne 1b
 9193               	 ;  0 "" 2
 9194               	/* #NOAPP */
 9195               	.LBE3677:
 9196               	.LBE3676:
 9197               	.LM1108:
 9198 15a0 0197      		sbiw r24,1
 9199               	.LM1109:
 9200 15a2 01F4      		brne .L388
 9201 15a4 80E1      		ldi r24,lo8(10000)
 9202 15a6 97E2      		ldi r25,hi8(10000)
 9203               	.LVL709:
 9204               	.L389:
 9205               	.LBE3675:
 9206               	.LBE3674:
 9207               	.LBB3678:
 9208               	.LBB3679:
 9209               	.LBB3680:
 9210               	.LBB3681:
 9211               	.LM1110:
 9212 15a8 F801      		movw r30,r16
 9213               	.LVL710:
 9214               	/* #APP */
 9215               	 ;  105 "c:/winavr-20100110/lib/gcc/../../avr/include/util/delay_basic.h" 1
 9216 15aa 3197      		1: sbiw r30,1
 9217 15ac 01F4      		brne 1b
 9218               	 ;  0 "" 2
 9219               	/* #NOAPP */
 9220               	.LBE3681:
 9221               	.LBE3680:
 9222               	.LM1111:
 9223 15ae 0197      		sbiw r24,1
 9224               	.LM1112:
 9225 15b0 01F4      		brne .L389
 9226 15b2 80E1      		ldi r24,lo8(10000)
 9227 15b4 97E2      		ldi r25,hi8(10000)
 9228               	.LVL711:
 9229               	.L390:
 9230               	.LBE3679:
 9231               	.LBE3678:
 9232               	.LBB3682:
 9233               	.LBB3683:
 9234               	.LBB3684:
 9235               	.LBB3685:
 9236               	.LM1113:
 9237 15b6 F801      		movw r30,r16
 9238               	.LVL712:
 9239               	/* #APP */
 9240               	 ;  105 "c:/winavr-20100110/lib/gcc/../../avr/include/util/delay_basic.h" 1
 9241 15b8 3197      		1: sbiw r30,1
 9242 15ba 01F4      		brne 1b
 9243               	 ;  0 "" 2
 9244               	/* #NOAPP */
 9245               	.LBE3685:
 9246               	.LBE3684:
 9247               	.LM1114:
 9248 15bc 0197      		sbiw r24,1
 9249               	.LM1115:
 9250 15be 01F4      		brne .L390
 9251 15c0 80E1      		ldi r24,lo8(10000)
 9252 15c2 97E2      		ldi r25,hi8(10000)
 9253               	.LVL713:
 9254               	.L391:
 9255               	.LBE3683:
 9256               	.LBE3682:
 9257               	.LBB3686:
 9258               	.LBB3687:
 9259               	.LBB3688:
 9260               	.LBB3689:
 9261               	.LM1116:
 9262 15c4 F801      		movw r30,r16
 9263               	.LVL714:
 9264               	/* #APP */
 9265               	 ;  105 "c:/winavr-20100110/lib/gcc/../../avr/include/util/delay_basic.h" 1
 9266 15c6 3197      		1: sbiw r30,1
 9267 15c8 01F4      		brne 1b
 9268               	 ;  0 "" 2
 9269               	/* #NOAPP */
 9270               	.LBE3689:
 9271               	.LBE3688:
 9272               	.LM1117:
 9273 15ca 0197      		sbiw r24,1
 9274               	.LM1118:
 9275 15cc 01F4      		brne .L391
 9276 15ce 80E1      		ldi r24,lo8(10000)
 9277 15d0 97E2      		ldi r25,hi8(10000)
 9278               	.LVL715:
 9279               	.L392:
 9280               	.LBE3687:
 9281               	.LBE3686:
 9282               	.LBB3690:
 9283               	.LBB3691:
 9284               	.LBB3692:
 9285               	.LBB3693:
 9286               	.LM1119:
 9287 15d2 F801      		movw r30,r16
 9288               	.LVL716:
 9289               	/* #APP */
 9290               	 ;  105 "c:/winavr-20100110/lib/gcc/../../avr/include/util/delay_basic.h" 1
 9291 15d4 3197      		1: sbiw r30,1
 9292 15d6 01F4      		brne 1b
 9293               	 ;  0 "" 2
 9294               	/* #NOAPP */
 9295               	.LBE3693:
 9296               	.LBE3692:
 9297               	.LM1120:
 9298 15d8 0197      		sbiw r24,1
 9299               	.LM1121:
 9300 15da 01F4      		brne .L392
 9301 15dc 80E1      		ldi r24,lo8(10000)
 9302 15de 97E2      		ldi r25,hi8(10000)
 9303               	.LVL717:
 9304               	.L393:
 9305               	.LBE3691:
 9306               	.LBE3690:
 9307               	.LBB3694:
 9308               	.LBB3695:
 9309               	.LBB3696:
 9310               	.LBB3697:
 9311               	.LM1122:
 9312 15e0 F801      		movw r30,r16
 9313               	.LVL718:
 9314               	/* #APP */
 9315               	 ;  105 "c:/winavr-20100110/lib/gcc/../../avr/include/util/delay_basic.h" 1
 9316 15e2 3197      		1: sbiw r30,1
 9317 15e4 01F4      		brne 1b
 9318               	 ;  0 "" 2
 9319               	/* #NOAPP */
 9320               	.LBE3697:
 9321               	.LBE3696:
 9322               	.LM1123:
 9323 15e6 0197      		sbiw r24,1
 9324               	.LM1124:
 9325 15e8 01F4      		brne .L393
 9326 15ea 80E1      		ldi r24,lo8(10000)
 9327 15ec 97E2      		ldi r25,hi8(10000)
 9328               	.LVL719:
 9329               	.L394:
 9330               	.LBE3695:
 9331               	.LBE3694:
 9332               	.LBB3698:
 9333               	.LBB3699:
 9334               	.LBB3700:
 9335               	.LBB3701:
 9336               	.LM1125:
 9337 15ee F801      		movw r30,r16
 9338               	.LVL720:
 9339               	/* #APP */
 9340               	 ;  105 "c:/winavr-20100110/lib/gcc/../../avr/include/util/delay_basic.h" 1
 9341 15f0 3197      		1: sbiw r30,1
 9342 15f2 01F4      		brne 1b
 9343               	 ;  0 "" 2
 9344               	/* #NOAPP */
 9345               	.LBE3701:
 9346               	.LBE3700:
 9347               	.LM1126:
 9348 15f4 0197      		sbiw r24,1
 9349               	.LM1127:
 9350 15f6 01F4      		brne .L394
 9351 15f8 80E1      		ldi r24,lo8(10000)
 9352 15fa 97E2      		ldi r25,hi8(10000)
 9353               	.LVL721:
 9354               	.L395:
 9355               	.LBE3699:
 9356               	.LBE3698:
 9357               	.LBB3702:
 9358               	.LBB3703:
 9359               	.LBB3704:
 9360               	.LBB3705:
 9361               	.LM1128:
 9362 15fc F801      		movw r30,r16
 9363               	.LVL722:
 9364               	/* #APP */
 9365               	 ;  105 "c:/winavr-20100110/lib/gcc/../../avr/include/util/delay_basic.h" 1
 9366 15fe 3197      		1: sbiw r30,1
 9367 1600 01F4      		brne 1b
 9368               	 ;  0 "" 2
 9369               	/* #NOAPP */
 9370               	.LBE3705:
 9371               	.LBE3704:
 9372               	.LM1129:
 9373 1602 0197      		sbiw r24,1
 9374               	.LM1130:
 9375 1604 01F4      		brne .L395
 9376 1606 80E1      		ldi r24,lo8(10000)
 9377 1608 97E2      		ldi r25,hi8(10000)
 9378               	.LVL723:
 9379               	.L396:
 9380               	.LBE3703:
 9381               	.LBE3702:
 9382               	.LBB3706:
 9383               	.LBB3707:
 9384               	.LBB3708:
 9385               	.LBB3709:
 9386               	.LM1131:
 9387 160a F801      		movw r30,r16
 9388               	.LVL724:
 9389               	/* #APP */
 9390               	 ;  105 "c:/winavr-20100110/lib/gcc/../../avr/include/util/delay_basic.h" 1
 9391 160c 3197      		1: sbiw r30,1
 9392 160e 01F4      		brne 1b
 9393               	 ;  0 "" 2
 9394               	/* #NOAPP */
 9395               	.LBE3709:
 9396               	.LBE3708:
 9397               	.LM1132:
 9398 1610 0197      		sbiw r24,1
 9399               	.LM1133:
 9400 1612 01F4      		brne .L396
 9401 1614 80E1      		ldi r24,lo8(10000)
 9402 1616 97E2      		ldi r25,hi8(10000)
 9403               	.LVL725:
 9404               	.L397:
 9405               	.LBE3707:
 9406               	.LBE3706:
 9407               	.LBB3710:
 9408               	.LBB3711:
 9409               	.LBB3712:
 9410               	.LBB3713:
 9411               	.LM1134:
 9412 1618 F801      		movw r30,r16
 9413               	.LVL726:
 9414               	/* #APP */
 9415               	 ;  105 "c:/winavr-20100110/lib/gcc/../../avr/include/util/delay_basic.h" 1
 9416 161a 3197      		1: sbiw r30,1
 9417 161c 01F4      		brne 1b
 9418               	 ;  0 "" 2
 9419               	/* #NOAPP */
 9420               	.LBE3713:
 9421               	.LBE3712:
 9422               	.LM1135:
 9423 161e 0197      		sbiw r24,1
 9424               	.LM1136:
 9425 1620 01F4      		brne .L397
 9426 1622 80E1      		ldi r24,lo8(10000)
 9427 1624 97E2      		ldi r25,hi8(10000)
 9428               	.LVL727:
 9429               	.L398:
 9430               	.LBE3711:
 9431               	.LBE3710:
 9432               	.LBB3714:
 9433               	.LBB3715:
 9434               	.LBB3716:
 9435               	.LBB3717:
 9436               	.LM1137:
 9437 1626 F801      		movw r30,r16
 9438               	.LVL728:
 9439               	/* #APP */
 9440               	 ;  105 "c:/winavr-20100110/lib/gcc/../../avr/include/util/delay_basic.h" 1
 9441 1628 3197      		1: sbiw r30,1
 9442 162a 01F4      		brne 1b
 9443               	 ;  0 "" 2
 9444               	/* #NOAPP */
 9445               	.LBE3717:
 9446               	.LBE3716:
 9447               	.LM1138:
 9448 162c 0197      		sbiw r24,1
 9449               	.LM1139:
 9450 162e 01F4      		brne .L398
 9451 1630 80E1      		ldi r24,lo8(10000)
 9452 1632 97E2      		ldi r25,hi8(10000)
 9453               	.LVL729:
 9454               	.L399:
 9455               	.LBE3715:
 9456               	.LBE3714:
 9457               	.LBB3718:
 9458               	.LBB3719:
 9459               	.LBB3720:
 9460               	.LBB3721:
 9461               	.LM1140:
 9462 1634 F801      		movw r30,r16
 9463               	.LVL730:
 9464               	/* #APP */
 9465               	 ;  105 "c:/winavr-20100110/lib/gcc/../../avr/include/util/delay_basic.h" 1
 9466 1636 3197      		1: sbiw r30,1
 9467 1638 01F4      		brne 1b
 9468               	 ;  0 "" 2
 9469               	/* #NOAPP */
 9470               	.LBE3721:
 9471               	.LBE3720:
 9472               	.LM1141:
 9473 163a 0197      		sbiw r24,1
 9474               	.LM1142:
 9475 163c 01F4      		brne .L399
 9476 163e 80E1      		ldi r24,lo8(10000)
 9477 1640 97E2      		ldi r25,hi8(10000)
 9478               	.LVL731:
 9479               	.L400:
 9480               	.LBE3719:
 9481               	.LBE3718:
 9482               	.LBB3722:
 9483               	.LBB3723:
 9484               	.LBB3724:
 9485               	.LBB3725:
 9486               	.LM1143:
 9487 1642 F801      		movw r30,r16
 9488               	.LVL732:
 9489               	/* #APP */
 9490               	 ;  105 "c:/winavr-20100110/lib/gcc/../../avr/include/util/delay_basic.h" 1
 9491 1644 3197      		1: sbiw r30,1
 9492 1646 01F4      		brne 1b
 9493               	 ;  0 "" 2
 9494               	/* #NOAPP */
 9495               	.LBE3725:
 9496               	.LBE3724:
 9497               	.LM1144:
 9498 1648 0197      		sbiw r24,1
 9499               	.LM1145:
 9500 164a 01F4      		brne .L400
 9501 164c 80E1      		ldi r24,lo8(10000)
 9502 164e 97E2      		ldi r25,hi8(10000)
 9503               	.LVL733:
 9504               	.L401:
 9505               	.LBE3723:
 9506               	.LBE3722:
 9507               	.LBB3726:
 9508               	.LBB3727:
 9509               	.LBB3728:
 9510               	.LBB3729:
 9511               	.LM1146:
 9512 1650 F801      		movw r30,r16
 9513               	.LVL734:
 9514               	/* #APP */
 9515               	 ;  105 "c:/winavr-20100110/lib/gcc/../../avr/include/util/delay_basic.h" 1
 9516 1652 3197      		1: sbiw r30,1
 9517 1654 01F4      		brne 1b
 9518               	 ;  0 "" 2
 9519               	/* #NOAPP */
 9520               	.LBE3729:
 9521               	.LBE3728:
 9522               	.LM1147:
 9523 1656 0197      		sbiw r24,1
 9524               	.LM1148:
 9525 1658 01F4      		brne .L401
 9526 165a 80E1      		ldi r24,lo8(10000)
 9527 165c 97E2      		ldi r25,hi8(10000)
 9528               	.LVL735:
 9529               	.L402:
 9530               	.LBE3727:
 9531               	.LBE3726:
 9532               	.LBB3730:
 9533               	.LBB3731:
 9534               	.LBB3732:
 9535               	.LBB3733:
 9536               	.LM1149:
 9537 165e F801      		movw r30,r16
 9538               	.LVL736:
 9539               	/* #APP */
 9540               	 ;  105 "c:/winavr-20100110/lib/gcc/../../avr/include/util/delay_basic.h" 1
 9541 1660 3197      		1: sbiw r30,1
 9542 1662 01F4      		brne 1b
 9543               	 ;  0 "" 2
 9544               	/* #NOAPP */
 9545               	.LBE3733:
 9546               	.LBE3732:
 9547               	.LM1150:
 9548 1664 0197      		sbiw r24,1
 9549               	.LM1151:
 9550 1666 01F4      		brne .L402
 9551 1668 80E1      		ldi r24,lo8(10000)
 9552 166a 97E2      		ldi r25,hi8(10000)
 9553               	.LVL737:
 9554               	.L403:
 9555               	.LBE3731:
 9556               	.LBE3730:
 9557               	.LBB3734:
 9558               	.LBB3735:
 9559               	.LBB3736:
 9560               	.LBB3737:
 9561               	.LM1152:
 9562 166c F801      		movw r30,r16
 9563               	.LVL738:
 9564               	/* #APP */
 9565               	 ;  105 "c:/winavr-20100110/lib/gcc/../../avr/include/util/delay_basic.h" 1
 9566 166e 3197      		1: sbiw r30,1
 9567 1670 01F4      		brne 1b
 9568               	 ;  0 "" 2
 9569               	/* #NOAPP */
 9570               	.LBE3737:
 9571               	.LBE3736:
 9572               	.LM1153:
 9573 1672 0197      		sbiw r24,1
 9574               	.LM1154:
 9575 1674 01F4      		brne .L403
 9576 1676 80E1      		ldi r24,lo8(10000)
 9577 1678 97E2      		ldi r25,hi8(10000)
 9578               	.LVL739:
 9579               	.L404:
 9580               	.LBE3735:
 9581               	.LBE3734:
 9582               	.LBB3738:
 9583               	.LBB3739:
 9584               	.LBB3740:
 9585               	.LBB3741:
 9586               	.LM1155:
 9587 167a F801      		movw r30,r16
 9588               	.LVL740:
 9589               	/* #APP */
 9590               	 ;  105 "c:/winavr-20100110/lib/gcc/../../avr/include/util/delay_basic.h" 1
 9591 167c 3197      		1: sbiw r30,1
 9592 167e 01F4      		brne 1b
 9593               	 ;  0 "" 2
 9594               	/* #NOAPP */
 9595               	.LBE3741:
 9596               	.LBE3740:
 9597               	.LM1156:
 9598 1680 0197      		sbiw r24,1
 9599               	.LM1157:
 9600 1682 01F4      		brne .L404
 9601 1684 80E1      		ldi r24,lo8(10000)
 9602 1686 97E2      		ldi r25,hi8(10000)
 9603               	.LVL741:
 9604               	.L405:
 9605               	.LBE3739:
 9606               	.LBE3738:
 9607               	.LBB3742:
 9608               	.LBB3743:
 9609               	.LBB3744:
 9610               	.LBB3745:
 9611               	.LM1158:
 9612 1688 F801      		movw r30,r16
 9613               	.LVL742:
 9614               	/* #APP */
 9615               	 ;  105 "c:/winavr-20100110/lib/gcc/../../avr/include/util/delay_basic.h" 1
 9616 168a 3197      		1: sbiw r30,1
 9617 168c 01F4      		brne 1b
 9618               	 ;  0 "" 2
 9619               	/* #NOAPP */
 9620               	.LBE3745:
 9621               	.LBE3744:
 9622               	.LM1159:
 9623 168e 0197      		sbiw r24,1
 9624               	.LM1160:
 9625 1690 01F4      		brne .L405
 9626 1692 80E1      		ldi r24,lo8(10000)
 9627 1694 97E2      		ldi r25,hi8(10000)
 9628               	.LVL743:
 9629               	.L406:
 9630               	.LBE3743:
 9631               	.LBE3742:
 9632               	.LBB3746:
 9633               	.LBB3747:
 9634               	.LBB3748:
 9635               	.LBB3749:
 9636               	.LM1161:
 9637 1696 F801      		movw r30,r16
 9638               	.LVL744:
 9639               	/* #APP */
 9640               	 ;  105 "c:/winavr-20100110/lib/gcc/../../avr/include/util/delay_basic.h" 1
 9641 1698 3197      		1: sbiw r30,1
 9642 169a 01F4      		brne 1b
 9643               	 ;  0 "" 2
 9644               	/* #NOAPP */
 9645               	.LBE3749:
 9646               	.LBE3748:
 9647               	.LM1162:
 9648 169c 0197      		sbiw r24,1
 9649               	.LM1163:
 9650 169e 01F4      		brne .L406
 9651 16a0 80E1      		ldi r24,lo8(10000)
 9652 16a2 97E2      		ldi r25,hi8(10000)
 9653               	.LVL745:
 9654               	.L407:
 9655               	.LBE3747:
 9656               	.LBE3746:
 9657               	.LBB3750:
 9658               	.LBB3751:
 9659               	.LBB3752:
 9660               	.LBB3753:
 9661               	.LM1164:
 9662 16a4 F801      		movw r30,r16
 9663               	.LVL746:
 9664               	/* #APP */
 9665               	 ;  105 "c:/winavr-20100110/lib/gcc/../../avr/include/util/delay_basic.h" 1
 9666 16a6 3197      		1: sbiw r30,1
 9667 16a8 01F4      		brne 1b
 9668               	 ;  0 "" 2
 9669               	/* #NOAPP */
 9670               	.LBE3753:
 9671               	.LBE3752:
 9672               	.LM1165:
 9673 16aa 0197      		sbiw r24,1
 9674               	.LM1166:
 9675 16ac 01F4      		brne .L407
 9676 16ae 80E1      		ldi r24,lo8(10000)
 9677 16b0 97E2      		ldi r25,hi8(10000)
 9678               	.LVL747:
 9679               	.L408:
 9680               	.LBE3751:
 9681               	.LBE3750:
 9682               	.LBB3754:
 9683               	.LBB3755:
 9684               	.LBB3756:
 9685               	.LBB3757:
 9686               	.LM1167:
 9687 16b2 F801      		movw r30,r16
 9688               	.LVL748:
 9689               	/* #APP */
 9690               	 ;  105 "c:/winavr-20100110/lib/gcc/../../avr/include/util/delay_basic.h" 1
 9691 16b4 3197      		1: sbiw r30,1
 9692 16b6 01F4      		brne 1b
 9693               	 ;  0 "" 2
 9694               	/* #NOAPP */
 9695               	.LBE3757:
 9696               	.LBE3756:
 9697               	.LM1168:
 9698 16b8 0197      		sbiw r24,1
 9699               	.LM1169:
 9700 16ba 01F4      		brne .L408
 9701 16bc 80E1      		ldi r24,lo8(10000)
 9702 16be 97E2      		ldi r25,hi8(10000)
 9703               	.LVL749:
 9704               	.L409:
 9705               	.LBE3755:
 9706               	.LBE3754:
 9707               	.LBB3758:
 9708               	.LBB3759:
 9709               	.LBB3760:
 9710               	.LBB3761:
 9711               	.LM1170:
 9712 16c0 F801      		movw r30,r16
 9713               	.LVL750:
 9714               	/* #APP */
 9715               	 ;  105 "c:/winavr-20100110/lib/gcc/../../avr/include/util/delay_basic.h" 1
 9716 16c2 3197      		1: sbiw r30,1
 9717 16c4 01F4      		brne 1b
 9718               	 ;  0 "" 2
 9719               	/* #NOAPP */
 9720               	.LBE3761:
 9721               	.LBE3760:
 9722               	.LM1171:
 9723 16c6 0197      		sbiw r24,1
 9724               	.LM1172:
 9725 16c8 01F4      		brne .L409
 9726 16ca 80E1      		ldi r24,lo8(10000)
 9727 16cc 97E2      		ldi r25,hi8(10000)
 9728               	.LVL751:
 9729               	.L410:
 9730               	.LBE3759:
 9731               	.LBE3758:
 9732               	.LBB3762:
 9733               	.LBB3763:
 9734               	.LBB3764:
 9735               	.LBB3765:
 9736               	.LM1173:
 9737 16ce F801      		movw r30,r16
 9738               	.LVL752:
 9739               	/* #APP */
 9740               	 ;  105 "c:/winavr-20100110/lib/gcc/../../avr/include/util/delay_basic.h" 1
 9741 16d0 3197      		1: sbiw r30,1
 9742 16d2 01F4      		brne 1b
 9743               	 ;  0 "" 2
 9744               	/* #NOAPP */
 9745               	.LBE3765:
 9746               	.LBE3764:
 9747               	.LM1174:
 9748 16d4 0197      		sbiw r24,1
 9749               	.LM1175:
 9750 16d6 01F4      		brne .L410
 9751 16d8 80E1      		ldi r24,lo8(10000)
 9752 16da 97E2      		ldi r25,hi8(10000)
 9753               	.LVL753:
 9754               	.L411:
 9755               	.LBE3763:
 9756               	.LBE3762:
 9757               	.LBB3766:
 9758               	.LBB3767:
 9759               	.LBB3768:
 9760               	.LBB3769:
 9761               	.LM1176:
 9762 16dc F801      		movw r30,r16
 9763               	.LVL754:
 9764               	/* #APP */
 9765               	 ;  105 "c:/winavr-20100110/lib/gcc/../../avr/include/util/delay_basic.h" 1
 9766 16de 3197      		1: sbiw r30,1
 9767 16e0 01F4      		brne 1b
 9768               	 ;  0 "" 2
 9769               	/* #NOAPP */
 9770               	.LBE3769:
 9771               	.LBE3768:
 9772               	.LM1177:
 9773 16e2 0197      		sbiw r24,1
 9774               	.LM1178:
 9775 16e4 01F4      		brne .L411
 9776 16e6 80E1      		ldi r24,lo8(10000)
 9777 16e8 97E2      		ldi r25,hi8(10000)
 9778               	.LVL755:
 9779               	.L412:
 9780               	.LBE3767:
 9781               	.LBE3766:
 9782               	.LBB3770:
 9783               	.LBB3771:
 9784               	.LBB3772:
 9785               	.LBB3773:
 9786               	.LM1179:
 9787 16ea F801      		movw r30,r16
 9788               	.LVL756:
 9789               	/* #APP */
 9790               	 ;  105 "c:/winavr-20100110/lib/gcc/../../avr/include/util/delay_basic.h" 1
 9791 16ec 3197      		1: sbiw r30,1
 9792 16ee 01F4      		brne 1b
 9793               	 ;  0 "" 2
 9794               	/* #NOAPP */
 9795               	.LBE3773:
 9796               	.LBE3772:
 9797               	.LM1180:
 9798 16f0 0197      		sbiw r24,1
 9799               	.LM1181:
 9800 16f2 01F4      		brne .L412
 9801 16f4 80E1      		ldi r24,lo8(10000)
 9802 16f6 97E2      		ldi r25,hi8(10000)
 9803               	.LVL757:
 9804               	.L413:
 9805               	.LBE3771:
 9806               	.LBE3770:
 9807               	.LBB3774:
 9808               	.LBB3775:
 9809               	.LBB3776:
 9810               	.LBB3777:
 9811               	.LM1182:
 9812 16f8 F801      		movw r30,r16
 9813               	.LVL758:
 9814               	/* #APP */
 9815               	 ;  105 "c:/winavr-20100110/lib/gcc/../../avr/include/util/delay_basic.h" 1
 9816 16fa 3197      		1: sbiw r30,1
 9817 16fc 01F4      		brne 1b
 9818               	 ;  0 "" 2
 9819               	/* #NOAPP */
 9820               	.LBE3777:
 9821               	.LBE3776:
 9822               	.LM1183:
 9823 16fe 0197      		sbiw r24,1
 9824               	.LM1184:
 9825 1700 01F4      		brne .L413
 9826 1702 80E1      		ldi r24,lo8(10000)
 9827 1704 97E2      		ldi r25,hi8(10000)
 9828               	.LVL759:
 9829               	.L414:
 9830               	.LBE3775:
 9831               	.LBE3774:
 9832               	.LBB3778:
 9833               	.LBB3779:
 9834               	.LBB3780:
 9835               	.LBB3781:
 9836               	.LM1185:
 9837 1706 F801      		movw r30,r16
 9838               	.LVL760:
 9839               	/* #APP */
 9840               	 ;  105 "c:/winavr-20100110/lib/gcc/../../avr/include/util/delay_basic.h" 1
 9841 1708 3197      		1: sbiw r30,1
 9842 170a 01F4      		brne 1b
 9843               	 ;  0 "" 2
 9844               	/* #NOAPP */
 9845               	.LBE3781:
 9846               	.LBE3780:
 9847               	.LM1186:
 9848 170c 0197      		sbiw r24,1
 9849               	.LM1187:
 9850 170e 01F4      		brne .L414
 9851 1710 80E1      		ldi r24,lo8(10000)
 9852 1712 97E2      		ldi r25,hi8(10000)
 9853               	.LVL761:
 9854               	.L415:
 9855               	.LBE3779:
 9856               	.LBE3778:
 9857               	.LBB3782:
 9858               	.LBB3783:
 9859               	.LBB3784:
 9860               	.LBB3785:
 9861               	.LM1188:
 9862 1714 F801      		movw r30,r16
 9863               	.LVL762:
 9864               	/* #APP */
 9865               	 ;  105 "c:/winavr-20100110/lib/gcc/../../avr/include/util/delay_basic.h" 1
 9866 1716 3197      		1: sbiw r30,1
 9867 1718 01F4      		brne 1b
 9868               	 ;  0 "" 2
 9869               	/* #NOAPP */
 9870               	.LBE3785:
 9871               	.LBE3784:
 9872               	.LM1189:
 9873 171a 0197      		sbiw r24,1
 9874               	.LM1190:
 9875 171c 01F4      		brne .L415
 9876 171e 80E1      		ldi r24,lo8(10000)
 9877 1720 97E2      		ldi r25,hi8(10000)
 9878               	.LVL763:
 9879               	.L416:
 9880               	.LBE3783:
 9881               	.LBE3782:
 9882               	.LBB3786:
 9883               	.LBB3787:
 9884               	.LBB3788:
 9885               	.LBB3789:
 9886               	.LM1191:
 9887 1722 F801      		movw r30,r16
 9888               	.LVL764:
 9889               	/* #APP */
 9890               	 ;  105 "c:/winavr-20100110/lib/gcc/../../avr/include/util/delay_basic.h" 1
 9891 1724 3197      		1: sbiw r30,1
 9892 1726 01F4      		brne 1b
 9893               	 ;  0 "" 2
 9894               	/* #NOAPP */
 9895               	.LBE3789:
 9896               	.LBE3788:
 9897               	.LM1192:
 9898 1728 0197      		sbiw r24,1
 9899               	.LM1193:
 9900 172a 01F4      		brne .L416
 9901 172c 80E1      		ldi r24,lo8(10000)
 9902 172e 97E2      		ldi r25,hi8(10000)
 9903               	.LVL765:
 9904               	.L417:
 9905               	.LBE3787:
 9906               	.LBE3786:
 9907               	.LBB3790:
 9908               	.LBB3791:
 9909               	.LBB3792:
 9910               	.LBB3793:
 9911               	.LM1194:
 9912 1730 F801      		movw r30,r16
 9913               	.LVL766:
 9914               	/* #APP */
 9915               	 ;  105 "c:/winavr-20100110/lib/gcc/../../avr/include/util/delay_basic.h" 1
 9916 1732 3197      		1: sbiw r30,1
 9917 1734 01F4      		brne 1b
 9918               	 ;  0 "" 2
 9919               	/* #NOAPP */
 9920               	.LBE3793:
 9921               	.LBE3792:
 9922               	.LM1195:
 9923 1736 0197      		sbiw r24,1
 9924               	.LM1196:
 9925 1738 01F4      		brne .L417
 9926               	.L375:
 9927               	.LBE3791:
 9928               	.LBE3790:
 9929               	.LM1197:
 9930 173a 369A      		sbi 38-32,6
 9931               	.L418:
 9932               	.LM1198:
 9933 173c 3699      		sbic 38-32,6
 9934 173e 00C0      		rjmp .L418
 9935               	.LM1199:
 9936 1740 84B1      		in r24,36-32
 9937 1742 95B1      		in r25,(36)+1-32
 9938               	.LVL767:
 9939               	.LM1200:
 9940 1744 0E94 0000 		call LCD_init
 9941               	.LVL768:
 9942               	.LBE2317:
 9943               	.LM1201:
 9944 1748 0894      		sec
 9945 174a A11C      		adc r10,__zero_reg__
 9946 174c B11C      		adc r11,__zero_reg__
 9947 174e 8AE0      		ldi r24,lo8(10)
 9948 1750 A816      		cp r10,r24
 9949 1752 B104      		cpc r11,__zero_reg__
 9950 1754 04F4      		brge .+4
 9951 1756 0C94 0000 		jmp .L811
 9952 175a AA24      		clr r10
 9953 175c BB24      		clr r11
 9954 175e 0C94 0000 		jmp .L811
 9955               	.LFE17:
 9957               	.global	LCD_Send_String
 9959               	LCD_Send_String:
 9960               	.LFB14:
 9961               	.LM1202:
 9962               	.LVL769:
 9963 1762 EF92      		push r14
 9964 1764 FF92      		push r15
 9965 1766 0F93      		push r16
 9966 1768 1F93      		push r17
 9967 176a CF93      		push r28
 9968 176c DF93      		push r29
 9969               	/* prologue: function */
 9970               	/* frame size = 0 */
 9971 176e 7C01      		movw r14,r24
 9972               	.LM1203:
 9973 1770 DC01      		movw r26,r24
 9974 1772 0D90      		ld __tmp_reg__,X+
 9975 1774 0020      		tst __tmp_reg__
 9976 1776 01F4      		brne .-6
 9977 1778 8D01      		movw r16,r26
 9978               	.LVL770:
 9979 177a 0150      		subi r16,lo8(-(-1))
 9980 177c 1040      		sbci r17,hi8(-(-1))
 9981 177e 081B      		sub r16,r24
 9982 1780 190B      		sbc r17,r25
 9983 1782 C0E0      		ldi r28,lo8(0)
 9984 1784 D0E0      		ldi r29,hi8(0)
 9985               	.LVL771:
 9986 1786 00C0      		rjmp .L813
 9987               	.L814:
 9988               	.LM1204:
 9989 1788 F701      		movw r30,r14
 9990 178a EC0F      		add r30,r28
 9991 178c FD1F      		adc r31,r29
 9992 178e 8081      		ld r24,Z
 9993               	.LVL772:
 9994 1790 61E0      		ldi r22,lo8(1)
 9995 1792 70E0      		ldi r23,hi8(1)
 9996 1794 0E94 0000 		call LCD_Send
 9997               	.LM1205:
 9998 1798 2196      		adiw r28,1
 9999               	.LVL773:
 10000               	.L813:
 10001 179a C017      		cp r28,r16
 10002 179c D107      		cpc r29,r17
 10003 179e 04F0      		brlt .L814
 10004               	.LVL774:
 10005               	/* epilogue start */
 10006               	.LM1206:
 10007 17a0 DF91      		pop r29
 10008 17a2 CF91      		pop r28
 10009               	.LVL775:
 10010 17a4 1F91      		pop r17
 10011 17a6 0F91      		pop r16
 10012               	.LVL776:
 10013 17a8 FF90      		pop r15
 10014 17aa EF90      		pop r14
 10015 17ac 0895      		ret
 10016               	.LFE14:
 10018               	.global	LCD_Print
 10020               	LCD_Print:
 10021               	.LFB16:
 10022               	.LM1207:
 10023               	.LVL777:
 10024 17ae 0F93      		push r16
 10025 17b0 1F93      		push r17
 10026 17b2 DF93      		push r29
 10027 17b4 CF93      		push r28
 10028 17b6 CDB7      		in r28,__SP_L__
 10029 17b8 DEB7      		in r29,__SP_H__
 10030 17ba C656      		subi r28,lo8(-(-102))
 10031 17bc D040      		sbci r29,hi8(-(-102))
 10032 17be 0FB6      		in __tmp_reg__,__SREG__
 10033 17c0 F894      		cli
 10034 17c2 DEBF      		out __SP_H__,r29
 10035 17c4 0FBE      		out __SREG__,__tmp_reg__
 10036 17c6 CDBF      		out __SP_L__,r28
 10037               	/* prologue: function */
 10038               	/* frame size = 102 */
 10039 17c8 8C01      		movw r16,r24
 10040 17ca CB01      		movw r24,r22
 10041               	.LVL778:
 10042               	.LM1208:
 10043 17cc BA01      		movw r22,r20
 10044               	.LVL779:
 10045 17ce 0E94 0000 		call LCD_GotoXY
 10046               	.LVL780:
 10047               	.LM1209:
 10048 17d2 17FF      		sbrs r17,7
 10049 17d4 00C0      		rjmp .L817
 10050               	.LBB3794:
 10051               	.LM1210:
 10052 17d6 8DE2      		ldi r24,lo8(45)
 10053 17d8 8983      		std Y+1,r24
 10054 17da 1A82      		std Y+2,__zero_reg__
 10055               	.LM1211:
 10056 17dc CE01      		movw r24,r28
 10057 17de 0196      		adiw r24,1
 10058 17e0 0E94 0000 		call LCD_Send_String
 10059               	.LM1212:
 10060 17e4 1095      		com r17
 10061 17e6 0195      		neg r16
 10062 17e8 1F4F      		sbci r17,lo8(-1)
 10063               	.L817:
 10064               	.LBE3794:
 10065               	.LM1213:
 10066 17ea C801      		movw r24,r16
 10067 17ec BE01      		movw r22,r28
 10068 17ee 6D5F      		subi r22,lo8(-(3))
 10069 17f0 7F4F      		sbci r23,hi8(-(3))
 10070 17f2 4AE0      		ldi r20,lo8(10)
 10071 17f4 50E0      		ldi r21,hi8(10)
 10072 17f6 0E94 0000 		call itoa
 10073 17fa 0E94 0000 		call LCD_Send_String
 10074               	/* epilogue start */
 10075               	.LM1214:
 10076 17fe CA59      		subi r28,lo8(-(102))
 10077 1800 DF4F      		sbci r29,hi8(-(102))
 10078 1802 0FB6      		in __tmp_reg__,__SREG__
 10079 1804 F894      		cli
 10080 1806 DEBF      		out __SP_H__,r29
 10081 1808 0FBE      		out __SREG__,__tmp_reg__
 10082 180a CDBF      		out __SP_L__,r28
 10083 180c CF91      		pop r28
 10084 180e DF91      		pop r29
 10085 1810 1F91      		pop r17
 10086 1812 0F91      		pop r16
 10087               	.LVL781:
 10088 1814 0895      		ret
 10089               	.LFE16:
 10091               		.data
 10094               	C.3.1736:
 10095 0000 B8        		.byte	-72
 10096 0001 1E        		.byte	30
 10097 0002 49        		.byte	73
 10098 0003 41        		.byte	65
 10099 0004 0A        		.byte	10
 10100 0005 D7        		.byte	-41
 10101 0006 0F        		.byte	15
 10102 0007 41        		.byte	65
 10103 0008 3D        		.byte	61
 10104 0009 0A        		.byte	10
 10105 000a 77        		.byte	119
 10106 000b 41        		.byte	65
 10107 000c 5C        		.byte	92
 10108 000d 8F        		.byte	-113
 10109 000e 1A        		.byte	26
 10110 000f 41        		.byte	65
 10111 0010 EC        		.byte	-20
 10112 0011 51        		.byte	81
 10113 0012 5C        		.byte	92
 10114 0013 41        		.byte	65
 10115 0014 1F        		.byte	31
 10116 0015 85        		.byte	-123
 10117 0016 23        		.byte	35
 10118 0017 41        		.byte	65
 10119 0018 7B        		.byte	123
 10120 0019 14        		.byte	20
 10121 001a 6E        		.byte	110
 10122 001b 41        		.byte	65
 10123 001c 1F        		.byte	31
 10124 001d 85        		.byte	-123
 10125 001e 13        		.byte	19
 10126 001f 41        		.byte	65
 10127 0020 7B        		.byte	123
 10128 0021 14        		.byte	20
 10129 0022 4E        		.byte	78
 10130 0023 41        		.byte	65
 10131 0024 AE        		.byte	-82
 10132 0025 47        		.byte	71
 10133 0026 05        		.byte	5
 10134 0027 41        		.byte	65
 10239               	.Letext0:
DEFINED SYMBOLS
                            *ABS*:00000000 main.c
C:\Users\JASHWA~1\AppData\Local\Temp/ccwWZggt.s:2      *ABS*:0000003f __SREG__
C:\Users\JASHWA~1\AppData\Local\Temp/ccwWZggt.s:3      *ABS*:0000003e __SP_H__
C:\Users\JASHWA~1\AppData\Local\Temp/ccwWZggt.s:4      *ABS*:0000003d __SP_L__
C:\Users\JASHWA~1\AppData\Local\Temp/ccwWZggt.s:5      *ABS*:00000034 __CCP__
C:\Users\JASHWA~1\AppData\Local\Temp/ccwWZggt.s:6      *ABS*:00000000 __tmp_reg__
C:\Users\JASHWA~1\AppData\Local\Temp/ccwWZggt.s:7      *ABS*:00000001 __zero_reg__
C:\Users\JASHWA~1\AppData\Local\Temp/ccwWZggt.s:18     .text:00000000 toggle
C:\Users\JASHWA~1\AppData\Local\Temp/ccwWZggt.s:52     .text:0000000e set_rs
C:\Users\JASHWA~1\AppData\Local\Temp/ccwWZggt.s:66     .text:00000012 clear_rs
C:\Users\JASHWA~1\AppData\Local\Temp/ccwWZggt.s:80     .text:00000016 clear_rw
C:\Users\JASHWA~1\AppData\Local\Temp/ccwWZggt.s:94     .text:0000001a set_rw
C:\Users\JASHWA~1\AppData\Local\Temp/ccwWZggt.s:108    .text:0000001e LCD_Send
C:\Users\JASHWA~1\AppData\Local\Temp/ccwWZggt.s:317    .text:00000098 LCD_init
C:\Users\JASHWA~1\AppData\Local\Temp/ccwWZggt.s:359    .text:000000c0 LCD_GotoXY
C:\Users\JASHWA~1\AppData\Local\Temp/ccwWZggt.s:397    .text:000000e4 main
C:\Users\JASHWA~1\AppData\Local\Temp/ccwWZggt.s:10094  .data:00000000 C.3.1736
C:\Users\JASHWA~1\AppData\Local\Temp/ccwWZggt.s:9959   .text:00001762 LCD_Send_String
C:\Users\JASHWA~1\AppData\Local\Temp/ccwWZggt.s:10020  .text:000017ae LCD_Print

UNDEFINED SYMBOLS
__gesf2
__ltsf2
itoa
__do_copy_data
